Archive member included because of file (symbol)

d:/fpga/nios2eds/bin/gnu/h-i686-mingw32/bin/../lib/gcc/nios2-elf/4.1.2\libgcc.a(_si_to_sf.o)
                              obj/default/media_interrupt_HAL.o (__floatsisf)
d:/fpga/nios2eds/bin/gnu/h-i686-mingw32/bin/../lib/gcc/nios2-elf/4.1.2\libgcc.a(_sf_to_si.o)
                              obj/default/media_interrupt_HAL.o (__fixsfsi)
d:/fpga/nios2eds/bin/gnu/h-i686-mingw32/bin/../lib/gcc/nios2-elf/4.1.2\libgcc.a(_sf_to_df.o)
                              obj/default/media_interrupt_HAL.o (__extendsfdf2)
d:/fpga/nios2eds/bin/gnu/h-i686-mingw32/bin/../lib/gcc/nios2-elf/4.1.2\libgcc.a(_usi_to_sf.o)
                              obj/default/media_interrupt_HAL.o (__floatunsisf)
d:/fpga/nios2eds/bin/gnu/h-i686-mingw32/bin/../lib/gcc/nios2-elf/4.1.2\libgcc.a(_make_df.o)
                              d:/fpga/nios2eds/bin/gnu/h-i686-mingw32/bin/../lib/gcc/nios2-elf/4.1.2\libgcc.a(_sf_to_df.o) (__make_dp)
d:/fpga/nios2eds/bin/gnu/h-i686-mingw32/bin/../lib/gcc/nios2-elf/4.1.2\libgcc.a(_clzsi2.o)
                              d:/fpga/nios2eds/bin/gnu/h-i686-mingw32/bin/../lib/gcc/nios2-elf/4.1.2\libgcc.a(_si_to_sf.o) (__clzsi2)
d:/fpga/nios2eds/bin/gnu/h-i686-mingw32/bin/../lib/gcc/nios2-elf/4.1.2\libgcc.a(_pack_sf.o)
                              d:/fpga/nios2eds/bin/gnu/h-i686-mingw32/bin/../lib/gcc/nios2-elf/4.1.2\libgcc.a(_si_to_sf.o) (__pack_f)
d:/fpga/nios2eds/bin/gnu/h-i686-mingw32/bin/../lib/gcc/nios2-elf/4.1.2\libgcc.a(_unpack_sf.o)
                              d:/fpga/nios2eds/bin/gnu/h-i686-mingw32/bin/../lib/gcc/nios2-elf/4.1.2\libgcc.a(_sf_to_si.o) (__unpack_f)
d:/fpga/nios2eds/bin/gnu/h-i686-mingw32/bin/../lib/gcc/nios2-elf/4.1.2\libgcc.a(_pack_df.o)
                              d:/fpga/nios2eds/bin/gnu/h-i686-mingw32/bin/../lib/gcc/nios2-elf/4.1.2\libgcc.a(_make_df.o) (__pack_d)
d:/fpga/nios2eds/bin/gnu/h-i686-mingw32/bin/../lib/gcc/nios2-elf/4.1.2\libgcc.a(_clz.o)
                              d:/fpga/nios2eds/bin/gnu/h-i686-mingw32/bin/../lib/gcc/nios2-elf/4.1.2\libgcc.a(_clzsi2.o) (__clz_tab)
d:/fpga/nios2eds/bin/gnu/h-i686-mingw32/bin/../lib/gcc/nios2-elf/4.1.2/../../../../nios2-elf/lib\libc.a(lib_a-memcpy.o)
                              obj/default/media_interrupt_HAL.o (memcpy)
d:/fpga/nios2eds/bin/gnu/h-i686-mingw32/bin/../lib/gcc/nios2-elf/4.1.2/../../../../nios2-elf/lib\libc.a(lib_a-memset.o)
                              obj/default/media_interrupt_HAL.o (memset)
d:/fpga/nios2eds/bin/gnu/h-i686-mingw32/bin/../lib/gcc/nios2-elf/4.1.2/../../../../nios2-elf/lib\libc.a(lib_a-printf.o)
                              obj/default/audio_ISR.o (printf)
d:/fpga/nios2eds/bin/gnu/h-i686-mingw32/bin/../lib/gcc/nios2-elf/4.1.2/../../../../nios2-elf/lib\libc.a(lib_a-vfprintf.o)
                              d:/fpga/nios2eds/bin/gnu/h-i686-mingw32/bin/../lib/gcc/nios2-elf/4.1.2/../../../../nios2-elf/lib\libc.a(lib_a-printf.o) (___vfprintf_internal_r)
d:/fpga/nios2eds/bin/gnu/h-i686-mingw32/bin/../lib/gcc/nios2-elf/4.1.2/../../../../nios2-elf/lib\libc.a(lib_a-wsetup.o)
                              d:/fpga/nios2eds/bin/gnu/h-i686-mingw32/bin/../lib/gcc/nios2-elf/4.1.2/../../../../nios2-elf/lib\libc.a(lib_a-vfprintf.o) (__swsetup_r)
d:/fpga/nios2eds/bin/gnu/h-i686-mingw32/bin/../lib/gcc/nios2-elf/4.1.2/../../../../nios2-elf/lib\libc.a(lib_a-dtoa.o)
                              d:/fpga/nios2eds/bin/gnu/h-i686-mingw32/bin/../lib/gcc/nios2-elf/4.1.2/../../../../nios2-elf/lib\libc.a(lib_a-vfprintf.o) (_dtoa_r)
d:/fpga/nios2eds/bin/gnu/h-i686-mingw32/bin/../lib/gcc/nios2-elf/4.1.2/../../../../nios2-elf/lib\libc.a(lib_a-fflush.o)
                              d:/fpga/nios2eds/bin/gnu/h-i686-mingw32/bin/../lib/gcc/nios2-elf/4.1.2/../../../../nios2-elf/lib\libc.a(lib_a-vfprintf.o) (_fflush_r)
d:/fpga/nios2eds/bin/gnu/h-i686-mingw32/bin/../lib/gcc/nios2-elf/4.1.2/../../../../nios2-elf/lib\libc.a(lib_a-findfp.o)
                              d:/fpga/nios2eds/bin/gnu/h-i686-mingw32/bin/../lib/gcc/nios2-elf/4.1.2/../../../../nios2-elf/lib\libc.a(lib_a-vfprintf.o) (__sinit)
d:/fpga/nios2eds/bin/gnu/h-i686-mingw32/bin/../lib/gcc/nios2-elf/4.1.2/../../../../nios2-elf/lib\libc.a(lib_a-freer.o)
                              d:/fpga/nios2eds/bin/gnu/h-i686-mingw32/bin/../lib/gcc/nios2-elf/4.1.2/../../../../nios2-elf/lib\libc.a(lib_a-wsetup.o) (_free_r)
d:/fpga/nios2eds/bin/gnu/h-i686-mingw32/bin/../lib/gcc/nios2-elf/4.1.2/../../../../nios2-elf/lib\libc.a(lib_a-fvwrite.o)
                              d:/fpga/nios2eds/bin/gnu/h-i686-mingw32/bin/../lib/gcc/nios2-elf/4.1.2/../../../../nios2-elf/lib\libc.a(lib_a-vfprintf.o) (__sfvwrite_r)
d:/fpga/nios2eds/bin/gnu/h-i686-mingw32/bin/../lib/gcc/nios2-elf/4.1.2/../../../../nios2-elf/lib\libc.a(lib_a-fwalk.o)
                              d:/fpga/nios2eds/bin/gnu/h-i686-mingw32/bin/../lib/gcc/nios2-elf/4.1.2/../../../../nios2-elf/lib\libc.a(lib_a-fflush.o) (_fwalk_reent)
d:/fpga/nios2eds/bin/gnu/h-i686-mingw32/bin/../lib/gcc/nios2-elf/4.1.2/../../../../nios2-elf/lib\libc.a(lib_a-impure.o)
                              d:/fpga/nios2eds/bin/gnu/h-i686-mingw32/bin/../lib/gcc/nios2-elf/4.1.2/../../../../nios2-elf/lib\libc.a(lib_a-printf.o) (_impure_ptr)
d:/fpga/nios2eds/bin/gnu/h-i686-mingw32/bin/../lib/gcc/nios2-elf/4.1.2/../../../../nios2-elf/lib\libc.a(lib_a-locale.o)
                              d:/fpga/nios2eds/bin/gnu/h-i686-mingw32/bin/../lib/gcc/nios2-elf/4.1.2/../../../../nios2-elf/lib\libc.a(lib_a-vfprintf.o) (_localeconv_r)
d:/fpga/nios2eds/bin/gnu/h-i686-mingw32/bin/../lib/gcc/nios2-elf/4.1.2/../../../../nios2-elf/lib\libc.a(lib_a-makebuf.o)
                              d:/fpga/nios2eds/bin/gnu/h-i686-mingw32/bin/../lib/gcc/nios2-elf/4.1.2/../../../../nios2-elf/lib\libc.a(lib_a-wsetup.o) (__smakebuf_r)
d:/fpga/nios2eds/bin/gnu/h-i686-mingw32/bin/../lib/gcc/nios2-elf/4.1.2/../../../../nios2-elf/lib\libc.a(lib_a-mallocr.o)
                              d:/fpga/nios2eds/bin/gnu/h-i686-mingw32/bin/../lib/gcc/nios2-elf/4.1.2/../../../../nios2-elf/lib\libc.a(lib_a-findfp.o) (_malloc_r)
d:/fpga/nios2eds/bin/gnu/h-i686-mingw32/bin/../lib/gcc/nios2-elf/4.1.2/../../../../nios2-elf/lib\libc.a(lib_a-memchr.o)
                              d:/fpga/nios2eds/bin/gnu/h-i686-mingw32/bin/../lib/gcc/nios2-elf/4.1.2/../../../../nios2-elf/lib\libc.a(lib_a-vfprintf.o) (memchr)
d:/fpga/nios2eds/bin/gnu/h-i686-mingw32/bin/../lib/gcc/nios2-elf/4.1.2/../../../../nios2-elf/lib\libc.a(lib_a-memmove.o)
                              d:/fpga/nios2eds/bin/gnu/h-i686-mingw32/bin/../lib/gcc/nios2-elf/4.1.2/../../../../nios2-elf/lib\libc.a(lib_a-fvwrite.o) (memmove)
d:/fpga/nios2eds/bin/gnu/h-i686-mingw32/bin/../lib/gcc/nios2-elf/4.1.2/../../../../nios2-elf/lib\libc.a(lib_a-mprec.o)
                              d:/fpga/nios2eds/bin/gnu/h-i686-mingw32/bin/../lib/gcc/nios2-elf/4.1.2/../../../../nios2-elf/lib\libc.a(lib_a-dtoa.o) (_Bfree)
d:/fpga/nios2eds/bin/gnu/h-i686-mingw32/bin/../lib/gcc/nios2-elf/4.1.2/../../../../nios2-elf/lib\libc.a(lib_a-reallocr.o)
                              d:/fpga/nios2eds/bin/gnu/h-i686-mingw32/bin/../lib/gcc/nios2-elf/4.1.2/../../../../nios2-elf/lib\libc.a(lib_a-fvwrite.o) (_realloc_r)
d:/fpga/nios2eds/bin/gnu/h-i686-mingw32/bin/../lib/gcc/nios2-elf/4.1.2/../../../../nios2-elf/lib\libc.a(lib_a-s_isinfd.o)
                              d:/fpga/nios2eds/bin/gnu/h-i686-mingw32/bin/../lib/gcc/nios2-elf/4.1.2/../../../../nios2-elf/lib\libc.a(lib_a-vfprintf.o) (__isinfd)
d:/fpga/nios2eds/bin/gnu/h-i686-mingw32/bin/../lib/gcc/nios2-elf/4.1.2/../../../../nios2-elf/lib\libc.a(lib_a-s_isnand.o)
                              d:/fpga/nios2eds/bin/gnu/h-i686-mingw32/bin/../lib/gcc/nios2-elf/4.1.2/../../../../nios2-elf/lib\libc.a(lib_a-vfprintf.o) (__isnand)
d:/fpga/nios2eds/bin/gnu/h-i686-mingw32/bin/../lib/gcc/nios2-elf/4.1.2/../../../../nios2-elf/lib\libc.a(lib_a-sbrkr.o)
                              d:/fpga/nios2eds/bin/gnu/h-i686-mingw32/bin/../lib/gcc/nios2-elf/4.1.2/../../../../nios2-elf/lib\libc.a(lib_a-freer.o) (_sbrk_r)
d:/fpga/nios2eds/bin/gnu/h-i686-mingw32/bin/../lib/gcc/nios2-elf/4.1.2/../../../../nios2-elf/lib\libc.a(lib_a-stdio.o)
                              d:/fpga/nios2eds/bin/gnu/h-i686-mingw32/bin/../lib/gcc/nios2-elf/4.1.2/../../../../nios2-elf/lib\libc.a(lib_a-findfp.o) (__sclose)
d:/fpga/nios2eds/bin/gnu/h-i686-mingw32/bin/../lib/gcc/nios2-elf/4.1.2/../../../../nios2-elf/lib\libc.a(lib_a-strcmp.o)
                              d:/fpga/nios2eds/bin/gnu/h-i686-mingw32/bin/../lib/gcc/nios2-elf/4.1.2/../../../../nios2-elf/lib\libc.a(lib_a-locale.o) (strcmp)
d:/fpga/nios2eds/bin/gnu/h-i686-mingw32/bin/../lib/gcc/nios2-elf/4.1.2/../../../../nios2-elf/lib\libc.a(lib_a-strlen.o)
                              d:/fpga/nios2eds/bin/gnu/h-i686-mingw32/bin/../lib/gcc/nios2-elf/4.1.2/../../../../nios2-elf/lib\libc.a(lib_a-vfprintf.o) (strlen)
d:/fpga/nios2eds/bin/gnu/h-i686-mingw32/bin/../lib/gcc/nios2-elf/4.1.2/../../../../nios2-elf/lib\libc.a(lib_a-writer.o)
                              d:/fpga/nios2eds/bin/gnu/h-i686-mingw32/bin/../lib/gcc/nios2-elf/4.1.2/../../../../nios2-elf/lib\libc.a(lib_a-stdio.o) (_write_r)
d:/fpga/nios2eds/bin/gnu/h-i686-mingw32/bin/../lib/gcc/nios2-elf/4.1.2/../../../../nios2-elf/lib\libc.a(lib_a-callocr.o)
                              d:/fpga/nios2eds/bin/gnu/h-i686-mingw32/bin/../lib/gcc/nios2-elf/4.1.2/../../../../nios2-elf/lib\libc.a(lib_a-mprec.o) (_calloc_r)
d:/fpga/nios2eds/bin/gnu/h-i686-mingw32/bin/../lib/gcc/nios2-elf/4.1.2/../../../../nios2-elf/lib\libc.a(lib_a-closer.o)
                              d:/fpga/nios2eds/bin/gnu/h-i686-mingw32/bin/../lib/gcc/nios2-elf/4.1.2/../../../../nios2-elf/lib\libc.a(lib_a-stdio.o) (_close_r)
d:/fpga/nios2eds/bin/gnu/h-i686-mingw32/bin/../lib/gcc/nios2-elf/4.1.2/../../../../nios2-elf/lib\libc.a(lib_a-fclose.o)
                              d:/fpga/nios2eds/bin/gnu/h-i686-mingw32/bin/../lib/gcc/nios2-elf/4.1.2/../../../../nios2-elf/lib\libc.a(lib_a-findfp.o) (fclose)
d:/fpga/nios2eds/bin/gnu/h-i686-mingw32/bin/../lib/gcc/nios2-elf/4.1.2/../../../../nios2-elf/lib\libc.a(lib_a-fstatr.o)
                              d:/fpga/nios2eds/bin/gnu/h-i686-mingw32/bin/../lib/gcc/nios2-elf/4.1.2/../../../../nios2-elf/lib\libc.a(lib_a-makebuf.o) (_fstat_r)
d:/fpga/nios2eds/bin/gnu/h-i686-mingw32/bin/../lib/gcc/nios2-elf/4.1.2/../../../../nios2-elf/lib\libc.a(lib_a-int_errno.o)
                              d:/fpga/nios2eds/bin/gnu/h-i686-mingw32/bin/../lib/gcc/nios2-elf/4.1.2/../../../../nios2-elf/lib\libc.a(lib_a-sbrkr.o) (errno)
d:/fpga/nios2eds/bin/gnu/h-i686-mingw32/bin/../lib/gcc/nios2-elf/4.1.2/../../../../nios2-elf/lib\libc.a(lib_a-isattyr.o)
                              d:/fpga/nios2eds/bin/gnu/h-i686-mingw32/bin/../lib/gcc/nios2-elf/4.1.2/../../../../nios2-elf/lib\libc.a(lib_a-makebuf.o) (_isatty_r)
d:/fpga/nios2eds/bin/gnu/h-i686-mingw32/bin/../lib/gcc/nios2-elf/4.1.2/../../../../nios2-elf/lib\libc.a(lib_a-lseekr.o)
                              d:/fpga/nios2eds/bin/gnu/h-i686-mingw32/bin/../lib/gcc/nios2-elf/4.1.2/../../../../nios2-elf/lib\libc.a(lib_a-stdio.o) (_lseek_r)
d:/fpga/nios2eds/bin/gnu/h-i686-mingw32/bin/../lib/gcc/nios2-elf/4.1.2/../../../../nios2-elf/lib\libc.a(lib_a-readr.o)
                              d:/fpga/nios2eds/bin/gnu/h-i686-mingw32/bin/../lib/gcc/nios2-elf/4.1.2/../../../../nios2-elf/lib\libc.a(lib_a-stdio.o) (_read_r)
d:/fpga/nios2eds/bin/gnu/h-i686-mingw32/bin/../lib/gcc/nios2-elf/4.1.2\libgcc.a(_udivdi3.o)
                              d:/fpga/nios2eds/bin/gnu/h-i686-mingw32/bin/../lib/gcc/nios2-elf/4.1.2/../../../../nios2-elf/lib\libc.a(lib_a-vfprintf.o) (__udivdi3)
d:/fpga/nios2eds/bin/gnu/h-i686-mingw32/bin/../lib/gcc/nios2-elf/4.1.2\libgcc.a(_umoddi3.o)
                              d:/fpga/nios2eds/bin/gnu/h-i686-mingw32/bin/../lib/gcc/nios2-elf/4.1.2/../../../../nios2-elf/lib\libc.a(lib_a-vfprintf.o) (__umoddi3)
d:/fpga/nios2eds/bin/gnu/h-i686-mingw32/bin/../lib/gcc/nios2-elf/4.1.2\libgcc.a(_addsub_df.o)
                              d:/fpga/nios2eds/bin/gnu/h-i686-mingw32/bin/../lib/gcc/nios2-elf/4.1.2/../../../../nios2-elf/lib\libc.a(lib_a-dtoa.o) (__subdf3)
d:/fpga/nios2eds/bin/gnu/h-i686-mingw32/bin/../lib/gcc/nios2-elf/4.1.2\libgcc.a(_mul_df.o)
                              d:/fpga/nios2eds/bin/gnu/h-i686-mingw32/bin/../lib/gcc/nios2-elf/4.1.2/../../../../nios2-elf/lib\libc.a(lib_a-dtoa.o) (__muldf3)
d:/fpga/nios2eds/bin/gnu/h-i686-mingw32/bin/../lib/gcc/nios2-elf/4.1.2\libgcc.a(_div_df.o)
                              d:/fpga/nios2eds/bin/gnu/h-i686-mingw32/bin/../lib/gcc/nios2-elf/4.1.2/../../../../nios2-elf/lib\libc.a(lib_a-dtoa.o) (__divdf3)
d:/fpga/nios2eds/bin/gnu/h-i686-mingw32/bin/../lib/gcc/nios2-elf/4.1.2\libgcc.a(_eq_df.o)
                              d:/fpga/nios2eds/bin/gnu/h-i686-mingw32/bin/../lib/gcc/nios2-elf/4.1.2/../../../../nios2-elf/lib\libc.a(lib_a-vfprintf.o) (__eqdf2)
d:/fpga/nios2eds/bin/gnu/h-i686-mingw32/bin/../lib/gcc/nios2-elf/4.1.2\libgcc.a(_ne_df.o)
                              d:/fpga/nios2eds/bin/gnu/h-i686-mingw32/bin/../lib/gcc/nios2-elf/4.1.2/../../../../nios2-elf/lib\libc.a(lib_a-vfprintf.o) (__nedf2)
d:/fpga/nios2eds/bin/gnu/h-i686-mingw32/bin/../lib/gcc/nios2-elf/4.1.2\libgcc.a(_gt_df.o)
                              d:/fpga/nios2eds/bin/gnu/h-i686-mingw32/bin/../lib/gcc/nios2-elf/4.1.2/../../../../nios2-elf/lib\libc.a(lib_a-dtoa.o) (__gtdf2)
d:/fpga/nios2eds/bin/gnu/h-i686-mingw32/bin/../lib/gcc/nios2-elf/4.1.2\libgcc.a(_ge_df.o)
                              d:/fpga/nios2eds/bin/gnu/h-i686-mingw32/bin/../lib/gcc/nios2-elf/4.1.2/../../../../nios2-elf/lib\libc.a(lib_a-dtoa.o) (__gedf2)
d:/fpga/nios2eds/bin/gnu/h-i686-mingw32/bin/../lib/gcc/nios2-elf/4.1.2\libgcc.a(_lt_df.o)
                              d:/fpga/nios2eds/bin/gnu/h-i686-mingw32/bin/../lib/gcc/nios2-elf/4.1.2/../../../../nios2-elf/lib\libc.a(lib_a-vfprintf.o) (__ltdf2)
d:/fpga/nios2eds/bin/gnu/h-i686-mingw32/bin/../lib/gcc/nios2-elf/4.1.2\libgcc.a(_si_to_df.o)
                              d:/fpga/nios2eds/bin/gnu/h-i686-mingw32/bin/../lib/gcc/nios2-elf/4.1.2/../../../../nios2-elf/lib\libc.a(lib_a-dtoa.o) (__floatsidf)
d:/fpga/nios2eds/bin/gnu/h-i686-mingw32/bin/../lib/gcc/nios2-elf/4.1.2\libgcc.a(_df_to_si.o)
                              d:/fpga/nios2eds/bin/gnu/h-i686-mingw32/bin/../lib/gcc/nios2-elf/4.1.2/../../../../nios2-elf/lib\libc.a(lib_a-dtoa.o) (__fixdfsi)
d:/fpga/nios2eds/bin/gnu/h-i686-mingw32/bin/../lib/gcc/nios2-elf/4.1.2\libgcc.a(_thenan_df.o)
                              d:/fpga/nios2eds/bin/gnu/h-i686-mingw32/bin/../lib/gcc/nios2-elf/4.1.2\libgcc.a(_addsub_df.o) (__thenan_df)
d:/fpga/nios2eds/bin/gnu/h-i686-mingw32/bin/../lib/gcc/nios2-elf/4.1.2\libgcc.a(_usi_to_df.o)
                              d:/fpga/nios2eds/bin/gnu/h-i686-mingw32/bin/../lib/gcc/nios2-elf/4.1.2/../../../../nios2-elf/lib\libc.a(lib_a-dtoa.o) (__floatunsidf)
d:/fpga/nios2eds/bin/gnu/h-i686-mingw32/bin/../lib/gcc/nios2-elf/4.1.2\libgcc.a(lib2-divmod.o)
                              d:/fpga/nios2eds/bin/gnu/h-i686-mingw32/bin/../lib/gcc/nios2-elf/4.1.2/../../../../nios2-elf/lib\libc.a(lib_a-vfprintf.o) (__divsi3)
d:/fpga/nios2eds/bin/gnu/h-i686-mingw32/bin/../lib/gcc/nios2-elf/4.1.2\libgcc.a(_muldi3.o)
                              d:/fpga/nios2eds/bin/gnu/h-i686-mingw32/bin/../lib/gcc/nios2-elf/4.1.2\libgcc.a(_mul_df.o) (__muldi3)
d:/fpga/nios2eds/bin/gnu/h-i686-mingw32/bin/../lib/gcc/nios2-elf/4.1.2\libgcc.a(_unpack_df.o)
                              d:/fpga/nios2eds/bin/gnu/h-i686-mingw32/bin/../lib/gcc/nios2-elf/4.1.2\libgcc.a(_addsub_df.o) (__unpack_d)
d:/fpga/nios2eds/bin/gnu/h-i686-mingw32/bin/../lib/gcc/nios2-elf/4.1.2\libgcc.a(_fpcmp_parts_df.o)
                              d:/fpga/nios2eds/bin/gnu/h-i686-mingw32/bin/../lib/gcc/nios2-elf/4.1.2\libgcc.a(_eq_df.o) (__fpcmp_parts_d)
../lab4_software_bsp/\libhal_bsp.a(alt_close.o)
                              d:/fpga/nios2eds/bin/gnu/h-i686-mingw32/bin/../lib/gcc/nios2-elf/4.1.2/../../../../nios2-elf/lib\libc.a(lib_a-closer.o) (close)
../lab4_software_bsp/\libhal_bsp.a(alt_dev.o)
                              ../lab4_software_bsp/\libhal_bsp.a(alt_close.o) (alt_fd_list)
../lab4_software_bsp/\libhal_bsp.a(alt_errno.o)
                              ../lab4_software_bsp/\libhal_bsp.a(alt_close.o) (alt_errno)
../lab4_software_bsp/\libhal_bsp.a(alt_fstat.o)
                              d:/fpga/nios2eds/bin/gnu/h-i686-mingw32/bin/../lib/gcc/nios2-elf/4.1.2/../../../../nios2-elf/lib\libc.a(lib_a-fstatr.o) (fstat)
../lab4_software_bsp/\libhal_bsp.a(alt_irq_register.o)
                              obj/default/media_interrupt_HAL.o (alt_irq_register)
../lab4_software_bsp/\libhal_bsp.a(alt_irq_vars.o)
                              ../lab4_software_bsp/\libhal_bsp.a(alt_irq_register.o) (alt_irq_active)
../lab4_software_bsp/\libhal_bsp.a(alt_isatty.o)
                              d:/fpga/nios2eds/bin/gnu/h-i686-mingw32/bin/../lib/gcc/nios2-elf/4.1.2/../../../../nios2-elf/lib\libc.a(lib_a-isattyr.o) (isatty)
../lab4_software_bsp/\libhal_bsp.a(alt_load.o)
                              ../lab4_software_bsp//obj/HAL/src/crt0.o (alt_load)
../lab4_software_bsp/\libhal_bsp.a(alt_lseek.o)
                              d:/fpga/nios2eds/bin/gnu/h-i686-mingw32/bin/../lib/gcc/nios2-elf/4.1.2/../../../../nios2-elf/lib\libc.a(lib_a-lseekr.o) (lseek)
../lab4_software_bsp/\libhal_bsp.a(alt_main.o)
                              ../lab4_software_bsp//obj/HAL/src/crt0.o (alt_main)
../lab4_software_bsp/\libhal_bsp.a(alt_malloc_lock.o)
                              d:/fpga/nios2eds/bin/gnu/h-i686-mingw32/bin/../lib/gcc/nios2-elf/4.1.2/../../../../nios2-elf/lib\libc.a(lib_a-freer.o) (__malloc_lock)
../lab4_software_bsp/\libhal_bsp.a(alt_printf.o)
                              obj/default/media_interrupt_HAL.o (alt_printf)
../lab4_software_bsp/\libhal_bsp.a(alt_putchar.o)
                              ../lab4_software_bsp/\libhal_bsp.a(alt_printf.o) (alt_putchar)
../lab4_software_bsp/\libhal_bsp.a(alt_read.o)
                              d:/fpga/nios2eds/bin/gnu/h-i686-mingw32/bin/../lib/gcc/nios2-elf/4.1.2/../../../../nios2-elf/lib\libc.a(lib_a-readr.o) (read)
../lab4_software_bsp/\libhal_bsp.a(alt_release_fd.o)
                              ../lab4_software_bsp/\libhal_bsp.a(alt_close.o) (alt_release_fd)
../lab4_software_bsp/\libhal_bsp.a(alt_sbrk.o)
                              d:/fpga/nios2eds/bin/gnu/h-i686-mingw32/bin/../lib/gcc/nios2-elf/4.1.2/../../../../nios2-elf/lib\libc.a(lib_a-sbrkr.o) (sbrk)
../lab4_software_bsp/\libhal_bsp.a(alt_write.o)
                              d:/fpga/nios2eds/bin/gnu/h-i686-mingw32/bin/../lib/gcc/nios2-elf/4.1.2/../../../../nios2-elf/lib\libc.a(lib_a-writer.o) (write)
../lab4_software_bsp/\libhal_bsp.a(alt_sys_init.o)
                              ../lab4_software_bsp/\libhal_bsp.a(alt_main.o) (alt_irq_init)
../lab4_software_bsp/\libhal_bsp.a(altera_avalon_jtag_uart_fd.o)
                              ../lab4_software_bsp/\libhal_bsp.a(alt_sys_init.o) (altera_avalon_jtag_uart_read_fd)
../lab4_software_bsp/\libhal_bsp.a(altera_avalon_jtag_uart_init.o)
                              ../lab4_software_bsp/\libhal_bsp.a(alt_sys_init.o) (altera_avalon_jtag_uart_init)
../lab4_software_bsp/\libhal_bsp.a(altera_avalon_jtag_uart_ioctl.o)
                              ../lab4_software_bsp/\libhal_bsp.a(altera_avalon_jtag_uart_fd.o) (altera_avalon_jtag_uart_ioctl)
../lab4_software_bsp/\libhal_bsp.a(altera_avalon_jtag_uart_read.o)
                              ../lab4_software_bsp/\libhal_bsp.a(altera_avalon_jtag_uart_fd.o) (altera_avalon_jtag_uart_read)
../lab4_software_bsp/\libhal_bsp.a(altera_avalon_jtag_uart_write.o)
                              ../lab4_software_bsp/\libhal_bsp.a(altera_avalon_jtag_uart_fd.o) (altera_avalon_jtag_uart_write)
../lab4_software_bsp/\libhal_bsp.a(altera_avalon_timer_ts.o)
                              obj/default/media_interrupt_HAL.o (alt_timestamp_start)
../lab4_software_bsp/\libhal_bsp.a(altera_avalon_timer_vars.o)
                              ../lab4_software_bsp/\libhal_bsp.a(alt_sys_init.o) (altera_avalon_timer_ts_base)
../lab4_software_bsp/\libhal_bsp.a(altera_up_avalon_audio.o)
                              obj/default/media_interrupt_HAL.o (alt_up_audio_open_dev)
../lab4_software_bsp/\libhal_bsp.a(altera_up_avalon_character_lcd.o)
                              ../lab4_software_bsp/\libhal_bsp.a(alt_sys_init.o) (alt_up_character_lcd_init)
../lab4_software_bsp/\libhal_bsp.a(altera_up_avalon_ethernet.o)
                              ../lab4_software_bsp/\libhal_bsp.a(alt_sys_init.o) (alt_up_ethernet_init)
../lab4_software_bsp/\libhal_bsp.a(altera_up_avalon_ethernet_low_level_driver.o)
                              ../lab4_software_bsp/\libhal_bsp.a(altera_up_avalon_ethernet.o) (alt_up_ethernet_reg_write)
../lab4_software_bsp/\libhal_bsp.a(altera_up_avalon_irda.o)
                              ../lab4_software_bsp/\libhal_bsp.a(alt_sys_init.o) (alt_up_irda_read_fd)
../lab4_software_bsp/\libhal_bsp.a(altera_up_avalon_parallel_port.o)
                              obj/default/media_interrupt_HAL.o (alt_up_parallel_port_open_dev)
../lab4_software_bsp/\libhal_bsp.a(altera_up_avalon_ps2.o)
                              ../lab4_software_bsp/\libhal_bsp.a(alt_sys_init.o) (alt_up_ps2_init)
../lab4_software_bsp/\libhal_bsp.a(altera_up_avalon_rs232.o)
                              ../lab4_software_bsp/\libhal_bsp.a(alt_sys_init.o) (alt_up_rs232_read_fd)
../lab4_software_bsp/\libhal_bsp.a(altera_up_avalon_video_character_buffer_with_dma.o)
                              ../lab4_software_bsp/\libhal_bsp.a(alt_sys_init.o) (alt_up_char_buffer_init)
../lab4_software_bsp/\libhal_bsp.a(altera_up_avalon_video_pixel_buffer_dma.o)
                              obj/default/media_interrupt_HAL.o (alt_up_pixel_buffer_dma_open_dev)
../lab4_software_bsp/\libhal_bsp.a(alt_alarm_start.o)
                              ../lab4_software_bsp/\libhal_bsp.a(altera_avalon_jtag_uart_init.o) (alt_alarm_start)
../lab4_software_bsp/\libhal_bsp.a(alt_dcache_flush_all.o)
                              ../lab4_software_bsp/\libhal_bsp.a(alt_load.o) (alt_dcache_flush_all)
../lab4_software_bsp/\libhal_bsp.a(alt_dev_llist_insert.o)
                              ../lab4_software_bsp/\libhal_bsp.a(alt_sys_init.o) (alt_dev_llist_insert)
../lab4_software_bsp/\libhal_bsp.a(alt_do_ctors.o)
                              ../lab4_software_bsp/\libhal_bsp.a(alt_main.o) (_do_ctors)
../lab4_software_bsp/\libhal_bsp.a(alt_do_dtors.o)
                              ../lab4_software_bsp/\libhal_bsp.a(alt_main.o) (_do_dtors)
../lab4_software_bsp/\libhal_bsp.a(alt_find_dev.o)
                              ../lab4_software_bsp/\libhal_bsp.a(altera_up_avalon_audio.o) (alt_find_dev)
../lab4_software_bsp/\libhal_bsp.a(alt_icache_flush_all.o)
                              ../lab4_software_bsp/\libhal_bsp.a(alt_load.o) (alt_icache_flush_all)
../lab4_software_bsp/\libhal_bsp.a(alt_io_redirect.o)
                              ../lab4_software_bsp/\libhal_bsp.a(alt_main.o) (alt_io_redirect)
../lab4_software_bsp/\libhal_bsp.a(alt_irq_entry.o)
                              ../lab4_software_bsp/\libhal_bsp.a(alt_irq_register.o) (alt_irq_entry)
../lab4_software_bsp/\libhal_bsp.a(alt_irq_handler.o)
                              ../lab4_software_bsp/\libhal_bsp.a(alt_irq_register.o) (alt_irq_handler)
../lab4_software_bsp/\libhal_bsp.a(alt_open.o)
                              ../lab4_software_bsp/\libhal_bsp.a(alt_io_redirect.o) (open)
../lab4_software_bsp/\libhal_bsp.a(alt_tick.o)
                              ../lab4_software_bsp/\libhal_bsp.a(altera_avalon_jtag_uart_init.o) (_alt_tick_rate)
../lab4_software_bsp/\libhal_bsp.a(alt_usleep.o)
                              ../lab4_software_bsp/\libhal_bsp.a(altera_up_avalon_ethernet.o) (usleep)
../lab4_software_bsp/\libhal_bsp.a(altera_nios2_qsys_irq.o)
                              ../lab4_software_bsp/\libhal_bsp.a(alt_sys_init.o) (altera_nios2_qsys_irq_init)
../lab4_software_bsp/\libhal_bsp.a(alt_busy_sleep.o)
                              ../lab4_software_bsp/\libhal_bsp.a(alt_usleep.o) (alt_busy_sleep)
../lab4_software_bsp/\libhal_bsp.a(alt_exception_entry.o)
                              ../lab4_software_bsp/\libhal_bsp.a(alt_irq_entry.o) (alt_exception)
../lab4_software_bsp/\libhal_bsp.a(alt_find_file.o)
                              ../lab4_software_bsp/\libhal_bsp.a(alt_open.o) (alt_find_file)
../lab4_software_bsp/\libhal_bsp.a(alt_get_fd.o)
                              ../lab4_software_bsp/\libhal_bsp.a(alt_open.o) (alt_get_fd)
../lab4_software_bsp/\libhal_bsp.a(alt_icache_flush.o)
                              ../lab4_software_bsp/\libhal_bsp.a(alt_icache_flush_all.o) (alt_icache_flush)
d:/fpga/nios2eds/bin/gnu/h-i686-mingw32/bin/../lib/gcc/nios2-elf/4.1.2/../../../../nios2-elf/lib\libc.a(lib_a-atexit.o)
                              ../lab4_software_bsp/\libhal_bsp.a(alt_main.o) (atexit)
d:/fpga/nios2eds/bin/gnu/h-i686-mingw32/bin/../lib/gcc/nios2-elf/4.1.2/../../../../nios2-elf/lib\libc.a(lib_a-exit.o)
                              ../lab4_software_bsp/\libhal_bsp.a(alt_main.o) (exit)
d:/fpga/nios2eds/bin/gnu/h-i686-mingw32/bin/../lib/gcc/nios2-elf/4.1.2/../../../../nios2-elf/lib\libc.a(lib_a-memcmp.o)
                              ../lab4_software_bsp/\libhal_bsp.a(alt_find_dev.o) (memcmp)
d:/fpga/nios2eds/bin/gnu/h-i686-mingw32/bin/../lib/gcc/nios2-elf/4.1.2/../../../../nios2-elf/lib\libc.a(lib_a-putc.o)
                              ../lab4_software_bsp/\libhal_bsp.a(alt_putchar.o) (putc)
d:/fpga/nios2eds/bin/gnu/h-i686-mingw32/bin/../lib/gcc/nios2-elf/4.1.2/../../../../nios2-elf/lib\libc.a(lib_a-wbuf.o)
                              d:/fpga/nios2eds/bin/gnu/h-i686-mingw32/bin/../lib/gcc/nios2-elf/4.1.2/../../../../nios2-elf/lib\libc.a(lib_a-putc.o) (__swbuf_r)
d:/fpga/nios2eds/bin/gnu/h-i686-mingw32/bin/../lib/gcc/nios2-elf/4.1.2/../../../../nios2-elf/lib\libc.a(lib_a-__atexit.o)
                              d:/fpga/nios2eds/bin/gnu/h-i686-mingw32/bin/../lib/gcc/nios2-elf/4.1.2/../../../../nios2-elf/lib\libc.a(lib_a-atexit.o) (__register_exitproc)
d:/fpga/nios2eds/bin/gnu/h-i686-mingw32/bin/../lib/gcc/nios2-elf/4.1.2/../../../../nios2-elf/lib\libc.a(lib_a-__call_atexit.o)
                              d:/fpga/nios2eds/bin/gnu/h-i686-mingw32/bin/../lib/gcc/nios2-elf/4.1.2/../../../../nios2-elf/lib\libc.a(lib_a-exit.o) (__call_exitprocs)
../lab4_software_bsp/\libhal_bsp.a(alt_exit.o)
                              d:/fpga/nios2eds/bin/gnu/h-i686-mingw32/bin/../lib/gcc/nios2-elf/4.1.2/../../../../nios2-elf/lib\libc.a(lib_a-exit.o) (_exit)

Allocating common symbols
Common symbol       size              file

alt_irq             0x100             ../lab4_software_bsp/\libhal_bsp.a(alt_irq_handler.o)
byte2               0x1               obj/default/globals.o
byte3               0x1               obj/default/globals.o
copy_byte3          0x1               obj/default/globals.o
record_l_buf        0x1e8480          obj/default/audio_ISR.o
byte1               0x1               obj/default/globals.o
prev_y_mouse        0x4               obj/default/media_interrupt_HAL.o
errno               0x4               d:/fpga/nios2eds/bin/gnu/h-i686-mingw32/bin/../lib/gcc/nios2-elf/4.1.2/../../../../nios2-elf/lib\libc.a(lib_a-int_errno.o)
copy_byte1          0x1               obj/default/globals.o
y_mouse             0x4               obj/default/media_interrupt_HAL.o
flag                0x4               obj/default/PS2_ISR.o
up_dev              0x20              obj/default/globals.o
flag_denoise        0x4               obj/default/media_interrupt_HAL.o
play_l_buf          0x1e8480          obj/default/audio_ISR.o
prev_y_mouse_front  0x4               obj/default/media_interrupt_HAL.o
record_r_buf        0x1e8480          obj/default/audio_ISR.o
prev_y_mouse_back   0x4               obj/default/media_interrupt_HAL.o
max_y_mouse         0x4               obj/default/media_interrupt_HAL.o
prev_x_mouse        0x4               obj/default/media_interrupt_HAL.o
max_x_mouse         0x4               obj/default/media_interrupt_HAL.o
copy_byte2          0x1               obj/default/globals.o
flag_play           0x4               obj/default/media_interrupt_HAL.o
right_button_click  0x4               obj/default/media_interrupt_HAL.o
left_button_click   0x4               obj/default/media_interrupt_HAL.o
prev_x_mouse_back   0x4               obj/default/media_interrupt_HAL.o
timeout             0x4               obj/default/globals.o
_atexit0            0x190             d:/fpga/nios2eds/bin/gnu/h-i686-mingw32/bin/../lib/gcc/nios2-elf/4.1.2/../../../../nios2-elf/lib\libc.a(lib_a-atexit.o)
buf_index_play      0x4               obj/default/globals.o
pixel_buffer_dev    0x4               obj/default/media_interrupt_HAL.o
x_mouse             0x4               obj/default/media_interrupt_HAL.o
middle_button_click
                    0x4               obj/default/media_interrupt_HAL.o
play_r_buf          0x1e8480          obj/default/audio_ISR.o
buf_index_record    0x4               obj/default/globals.o
prev_x_mouse_front  0x4               obj/default/media_interrupt_HAL.o

Memory Configuration

Name             Origin             Length             Attributes
reset            0x00000000         0x00000020
SDRAM            0x00000020         0x007fffe0
Flash_flash_data 0x0c000000         0x00400000
*default*        0x00000000         0xffffffff

Linker script and memory map

LOAD ../lab4_software_bsp//obj/HAL/src/crt0.o
LOAD obj/default/PS2_ISR.o
LOAD obj/default/audio_ISR.o
LOAD obj/default/globals.o
LOAD obj/default/interval_timer_ISR.o
LOAD obj/default/media_interrupt_HAL.o
LOAD obj/default/pushbutton_ISR.o
LOAD d:/fpga/nios2eds/bin/gnu/h-i686-mingw32/bin/../lib/gcc/nios2-elf/4.1.2/../../../../nios2-elf/lib\libstdc++.a
LOAD d:/fpga/nios2eds/bin/gnu/h-i686-mingw32/bin/../lib/gcc/nios2-elf/4.1.2/../../../../nios2-elf/lib\libm.a
LOAD d:/fpga/nios2eds/bin/gnu/h-i686-mingw32/bin/../lib/gcc/nios2-elf/4.1.2\libgcc.a
START GROUP
LOAD d:/fpga/nios2eds/bin/gnu/h-i686-mingw32/bin/../lib/gcc/nios2-elf/4.1.2/../../../../nios2-elf/lib\libc.a
LOAD d:/fpga/nios2eds/bin/gnu/h-i686-mingw32/bin/../lib/gcc/nios2-elf/4.1.2\libgcc.a
LOAD ../lab4_software_bsp/\libhal_bsp.a
END GROUP
LOAD d:/fpga/nios2eds/bin/gnu/h-i686-mingw32/bin/../lib/gcc/nios2-elf/4.1.2\libgcc.a
                0x00000000                __alt_mem_SDRAM = 0x0
                0x0c000000                __alt_mem_Flash_flash_data = 0xc000000

.entry          0x00000000       0x20
 *(.entry)
 .entry         0x00000000       0x20 ../lab4_software_bsp//obj/HAL/src/crt0.o
                0x00000000                __reset

.exceptions     0x00000020      0x198
                0x00000020                PROVIDE (__ram_exceptions_start, ABSOLUTE (.))
                0x00000020                . = ALIGN (0x20)
 *(.irq)
 *(.exceptions.entry.label)
 .exceptions.entry.label
                0x00000020        0x0 ../lab4_software_bsp/\libhal_bsp.a(alt_irq_entry.o)
                0x00000020                alt_irq_entry
 .exceptions.entry.label
                0x00000020        0x0 ../lab4_software_bsp/\libhal_bsp.a(alt_exception_entry.o)
                0x00000020                alt_exception
 *(.exceptions.entry.user)
 *(.exceptions.entry)
 .exceptions.entry
                0x00000020       0x54 ../lab4_software_bsp/\libhal_bsp.a(alt_exception_entry.o)
 *(.exceptions.irqtest.user)
 *(.exceptions.irqtest)
 .exceptions.irqtest
                0x00000074       0x10 ../lab4_software_bsp/\libhal_bsp.a(alt_irq_entry.o)
 *(.exceptions.irqhandler.user)
 *(.exceptions.irqhandler)
 .exceptions.irqhandler
                0x00000084        0x4 ../lab4_software_bsp/\libhal_bsp.a(alt_irq_entry.o)
 *(.exceptions.irqreturn.user)
 *(.exceptions.irqreturn)
 .exceptions.irqreturn
                0x00000088        0x4 ../lab4_software_bsp/\libhal_bsp.a(alt_irq_entry.o)
 *(.exceptions.notirq.label)
 .exceptions.notirq.label
                0x0000008c        0x0 ../lab4_software_bsp/\libhal_bsp.a(alt_irq_entry.o)
 *(.exceptions.notirq.user)
 *(.exceptions.notirq)
 .exceptions.notirq
                0x0000008c        0x8 ../lab4_software_bsp/\libhal_bsp.a(alt_exception_entry.o)
 *(.exceptions.soft.user)
 *(.exceptions.soft)
 *(.exceptions.unknown.user)
 *(.exceptions.unknown)
 .exceptions.unknown
                0x00000094        0x4 ../lab4_software_bsp/\libhal_bsp.a(alt_exception_entry.o)
 *(.exceptions.exit.label)
 .exceptions.exit.label
                0x00000098        0x0 ../lab4_software_bsp/\libhal_bsp.a(alt_irq_entry.o)
 .exceptions.exit.label
                0x00000098        0x0 ../lab4_software_bsp/\libhal_bsp.a(alt_exception_entry.o)
 *(.exceptions.exit.user)
 *(.exceptions.exit)
 .exceptions.exit
                0x00000098       0x54 ../lab4_software_bsp/\libhal_bsp.a(alt_exception_entry.o)
 *(.exceptions)
 .exceptions    0x000000ec       0xcc ../lab4_software_bsp/\libhal_bsp.a(alt_irq_handler.o)
                0x000000ec                alt_irq_handler
                0x000001b8                PROVIDE (__ram_exceptions_end, ABSOLUTE (.))
                0x00000020                PROVIDE (__flash_exceptions_start, LOADADDR (.exceptions))

.text           0x000001b8    0x13028
                0x000001b8                PROVIDE (stext, ABSOLUTE (.))
 *(.interp)
 *(.hash)
 *(.dynsym)
 *(.dynstr)
 *(.gnu.version)
 *(.gnu.version_d)
 *(.gnu.version_r)
 *(.rel.init)
 *(.rela.init)
 *(.rel.text .rel.text.* .rel.gnu.linkonce.t.*)
 *(.rela.text .rela.text.* .rela.gnu.linkonce.t.*)
 *(.rel.fini)
 *(.rela.fini)
 *(.rel.rodata .rel.rodata.* .rel.gnu.linkonce.r.*)
 *(.rela.rodata .rela.rodata.* .rela.gnu.linkonce.r.*)
 *(.rel.data .rel.data.* .rel.gnu.linkonce.d.*)
 *(.rela.data .rela.data.* .rela.gnu.linkonce.d.*)
 *(.rel.tdata .rel.tdata.* .rel.gnu.linkonce.td.*)
 *(.rela.tdata .rela.tdata.* .rela.gnu.linkonce.td.*)
 *(.rel.tbss .rel.tbss.* .rel.gnu.linkonce.tb.*)
 *(.rela.tbss .rela.tbss.* .rela.gnu.linkonce.tb.*)
 *(.rel.ctors)
 *(.rela.ctors)
 *(.rel.dtors)
 *(.rela.dtors)
 *(.rel.got)
 *(.rela.got)
 *(.rel.sdata .rel.sdata.* .rel.gnu.linkonce.s.*)
 *(.rela.sdata .rela.sdata.* .rela.gnu.linkonce.s.*)
 *(.rel.sbss .rel.sbss.* .rel.gnu.linkonce.sb.*)
 *(.rela.sbss .rela.sbss.* .rela.gnu.linkonce.sb.*)
 *(.rel.sdata2 .rel.sdata2.* .rel.gnu.linkonce.s2.*)
 *(.rela.sdata2 .rela.sdata2.* .rela.gnu.linkonce.s2.*)
 *(.rel.sbss2 .rel.sbss2.* .rel.gnu.linkonce.sb2.*)
 *(.rela.sbss2 .rela.sbss2.* .rela.gnu.linkonce.sb2.*)
 *(.rel.bss .rel.bss.* .rel.gnu.linkonce.b.*)
 *(.rela.bss .rela.bss.* .rela.gnu.linkonce.b.*)
 *(.rel.plt)
 *(.rela.plt)
 *(.rel.dyn)
 *(.init)
 *(.plt)
 *(.text .stub .text.* .gnu.linkonce.t.*)
 .text          0x000001b8       0x3c ../lab4_software_bsp//obj/HAL/src/crt0.o
                0x000001b8                _start
 .text          0x000001f4      0x150 obj/default/PS2_ISR.o
                0x000001f4                PS2_ISR
 .text          0x00000344      0x4ec obj/default/audio_ISR.o
                0x00000344                audio_ISR
 .text          0x00000830        0x0 obj/default/globals.o
 .text          0x00000830       0x60 obj/default/interval_timer_ISR.o
                0x00000830                interval_timer_ISR
 .text          0x00000890     0x2128 obj/default/media_interrupt_HAL.o
                0x00000890                main
                0x000013ac                HEX_PS2
                0x000014d0                PS2_Init
                0x00001588                show_mouse_buttons_states_on_Red_LEDs
                0x00001680                check_for_click
                0x0000170c                check_KEYs
                0x000018fc                print_mouse_on_given_position
                0x000019a0                erase_previous_mouse_position
                0x00001ce4                setMouseBounds
                0x00001d18                getMouseState
                0x00001ef4                print_screen
                0x0000210c                denoise_the_noisy_sound
                0x00002264                echo_maker
                0x000024d4                plot_audio
                0x000027b8                amplitude_circute_stop
                0x000027d4                amplitude_circute_set_size
                0x0000281c                amplitude_circute_set_num
                0x00002860                amplitude_circute_set_rbuff_addr
                0x00002890                amplitude_circute_set_lbuff_addr
                0x000028c0                amplitude_circute_set_dest_addr
                0x000028f0                amplitude_circute_start
                0x00002920                amplitude_circute_get_status
                0x00002948                amplitude_operation
 .text          0x000029b8       0xb8 obj/default/pushbutton_ISR.o
                0x000029b8                pushbutton_ISR
 .text          0x00002a70       0x98 d:/fpga/nios2eds/bin/gnu/h-i686-mingw32/bin/../lib/gcc/nios2-elf/4.1.2\libgcc.a(_si_to_sf.o)
                0x00002a70                __floatsisf
 .text          0x00002b08       0x94 d:/fpga/nios2eds/bin/gnu/h-i686-mingw32/bin/../lib/gcc/nios2-elf/4.1.2\libgcc.a(_sf_to_si.o)
                0x00002b08                __fixsfsi
 .text          0x00002b9c       0x54 d:/fpga/nios2eds/bin/gnu/h-i686-mingw32/bin/../lib/gcc/nios2-elf/4.1.2\libgcc.a(_sf_to_df.o)
                0x00002b9c                __extendsfdf2
 .text          0x00002bf0       0xc0 d:/fpga/nios2eds/bin/gnu/h-i686-mingw32/bin/../lib/gcc/nios2-elf/4.1.2\libgcc.a(_usi_to_sf.o)
                0x00002bf0                __floatunsisf
 .text          0x00002cb0       0x38 d:/fpga/nios2eds/bin/gnu/h-i686-mingw32/bin/../lib/gcc/nios2-elf/4.1.2\libgcc.a(_make_df.o)
                0x00002cb0                __make_dp
 .text          0x00002ce8       0x80 d:/fpga/nios2eds/bin/gnu/h-i686-mingw32/bin/../lib/gcc/nios2-elf/4.1.2\libgcc.a(_clzsi2.o)
                0x00002ce8                __clzsi2
 .text          0x00002d68      0x160 d:/fpga/nios2eds/bin/gnu/h-i686-mingw32/bin/../lib/gcc/nios2-elf/4.1.2\libgcc.a(_pack_sf.o)
                0x00002d68                __pack_f
 .text          0x00002ec8       0xc8 d:/fpga/nios2eds/bin/gnu/h-i686-mingw32/bin/../lib/gcc/nios2-elf/4.1.2\libgcc.a(_unpack_sf.o)
                0x00002ec8                __unpack_f
 .text          0x00002f90      0x314 d:/fpga/nios2eds/bin/gnu/h-i686-mingw32/bin/../lib/gcc/nios2-elf/4.1.2\libgcc.a(_pack_df.o)
                0x00002f90                __pack_d
 .text          0x000032a4        0x0 d:/fpga/nios2eds/bin/gnu/h-i686-mingw32/bin/../lib/gcc/nios2-elf/4.1.2\libgcc.a(_clz.o)
 .text          0x000032a4       0xa0 d:/fpga/nios2eds/bin/gnu/h-i686-mingw32/bin/../lib/gcc/nios2-elf/4.1.2/../../../../nios2-elf/lib\libc.a(lib_a-memcpy.o)
                0x000032a4                memcpy
 .text          0x00003344       0x98 d:/fpga/nios2eds/bin/gnu/h-i686-mingw32/bin/../lib/gcc/nios2-elf/4.1.2/../../../../nios2-elf/lib\libc.a(lib_a-memset.o)
                0x00003344                memset
 .text          0x000033dc       0x78 d:/fpga/nios2eds/bin/gnu/h-i686-mingw32/bin/../lib/gcc/nios2-elf/4.1.2/../../../../nios2-elf/lib\libc.a(lib_a-printf.o)
                0x000033dc                printf
                0x00003420                _printf_r
 .text          0x00003454     0x1f28 d:/fpga/nios2eds/bin/gnu/h-i686-mingw32/bin/../lib/gcc/nios2-elf/4.1.2/../../../../nios2-elf/lib\libc.a(lib_a-vfprintf.o)
                0x000034ac                ___vfprintf_internal_r
                0x00005358                __vfprintf_internal
 .text          0x0000537c      0x13c d:/fpga/nios2eds/bin/gnu/h-i686-mingw32/bin/../lib/gcc/nios2-elf/4.1.2/../../../../nios2-elf/lib\libc.a(lib_a-wsetup.o)
                0x0000537c                __swsetup_r
 .text          0x000054b8     0x17cc d:/fpga/nios2eds/bin/gnu/h-i686-mingw32/bin/../lib/gcc/nios2-elf/4.1.2/../../../../nios2-elf/lib\libc.a(lib_a-dtoa.o)
                0x000056d0                _dtoa_r
 .text          0x00006c84      0x230 d:/fpga/nios2eds/bin/gnu/h-i686-mingw32/bin/../lib/gcc/nios2-elf/4.1.2/../../../../nios2-elf/lib\libc.a(lib_a-fflush.o)
                0x00006c84                _fflush_r
                0x00006e80                fflush
 .text          0x00006eb4      0x2c0 d:/fpga/nios2eds/bin/gnu/h-i686-mingw32/bin/../lib/gcc/nios2-elf/4.1.2/../../../../nios2-elf/lib\libc.a(lib_a-findfp.o)
                0x00006f0c                __sfp_lock_acquire
                0x00006f10                __sfp_lock_release
                0x00006f14                __sinit_lock_acquire
                0x00006f18                __sinit_lock_release
                0x00006f1c                __sinit
                0x00006fd0                __fp_unlock_all
                0x00006fe8                __fp_lock_all
                0x00007000                _cleanup_r
                0x0000700c                _cleanup
                0x0000701c                __sfmoreglue
                0x00007084                __sfp
 .text          0x00007174      0x440 d:/fpga/nios2eds/bin/gnu/h-i686-mingw32/bin/../lib/gcc/nios2-elf/4.1.2/../../../../nios2-elf/lib\libc.a(lib_a-freer.o)
                0x00007174                _malloc_trim_r
                0x000072a0                _free_r
 .text          0x000075b4      0x49c d:/fpga/nios2eds/bin/gnu/h-i686-mingw32/bin/../lib/gcc/nios2-elf/4.1.2/../../../../nios2-elf/lib\libc.a(lib_a-fvwrite.o)
                0x000075b4                __sfvwrite_r
 .text          0x00007a50      0x180 d:/fpga/nios2eds/bin/gnu/h-i686-mingw32/bin/../lib/gcc/nios2-elf/4.1.2/../../../../nios2-elf/lib\libc.a(lib_a-fwalk.o)
                0x00007a50                _fwalk_reent
                0x00007b18                _fwalk
 .text          0x00007bd0        0x0 d:/fpga/nios2eds/bin/gnu/h-i686-mingw32/bin/../lib/gcc/nios2-elf/4.1.2/../../../../nios2-elf/lib\libc.a(lib_a-impure.o)
 .text          0x00007bd0       0xc4 d:/fpga/nios2eds/bin/gnu/h-i686-mingw32/bin/../lib/gcc/nios2-elf/4.1.2/../../../../nios2-elf/lib\libc.a(lib_a-locale.o)
                0x00007bd0                __locale_charset
                0x00007bd8                _localeconv_r
                0x00007be4                localeconv
                0x00007bf4                _setlocale_r
                0x00007c78                setlocale
 .text          0x00007c94      0x194 d:/fpga/nios2eds/bin/gnu/h-i686-mingw32/bin/../lib/gcc/nios2-elf/4.1.2/../../../../nios2-elf/lib\libc.a(lib_a-makebuf.o)
                0x00007c94                __smakebuf_r
 .text          0x00007e28      0x740 d:/fpga/nios2eds/bin/gnu/h-i686-mingw32/bin/../lib/gcc/nios2-elf/4.1.2/../../../../nios2-elf/lib\libc.a(lib_a-mallocr.o)
                0x00007e28                _malloc_r
 .text          0x00008568       0xe4 d:/fpga/nios2eds/bin/gnu/h-i686-mingw32/bin/../lib/gcc/nios2-elf/4.1.2/../../../../nios2-elf/lib\libc.a(lib_a-memchr.o)
                0x00008568                memchr
 .text          0x0000864c       0xe0 d:/fpga/nios2eds/bin/gnu/h-i686-mingw32/bin/../lib/gcc/nios2-elf/4.1.2/../../../../nios2-elf/lib\libc.a(lib_a-memmove.o)
                0x0000864c                memmove
 .text          0x0000872c      0xff4 d:/fpga/nios2eds/bin/gnu/h-i686-mingw32/bin/../lib/gcc/nios2-elf/4.1.2/../../../../nios2-elf/lib\libc.a(lib_a-mprec.o)
                0x0000872c                _Bfree
                0x00008754                __hi0bits
                0x000087c4                __lo0bits
                0x00008888                __mcmp
                0x000088e8                __ulp
                0x00008968                __b2d
                0x00008a88                __ratio
                0x00008b38                _mprec_log10
                0x00008bcc                __copybits
                0x00008c24                __any_on
                0x00008cac                _Balloc
                0x00008d68                __d2b
                0x00008ee4                __mdiff
                0x00009070                __lshift
                0x000091bc                __multiply
                0x000093a4                __i2b
                0x000093e0                __multadd
                0x000094e0                __pow5mult
                0x00009600                __s2b
 .text          0x00009720      0x5f4 d:/fpga/nios2eds/bin/gnu/h-i686-mingw32/bin/../lib/gcc/nios2-elf/4.1.2/../../../../nios2-elf/lib\libc.a(lib_a-reallocr.o)
                0x00009720                _realloc_r
 .text          0x00009d14       0x40 d:/fpga/nios2eds/bin/gnu/h-i686-mingw32/bin/../lib/gcc/nios2-elf/4.1.2/../../../../nios2-elf/lib\libc.a(lib_a-s_isinfd.o)
                0x00009d14                __isinfd
 .text          0x00009d54       0x30 d:/fpga/nios2eds/bin/gnu/h-i686-mingw32/bin/../lib/gcc/nios2-elf/4.1.2/../../../../nios2-elf/lib\libc.a(lib_a-s_isnand.o)
                0x00009d54                __isnand
 .text          0x00009d84       0x70 d:/fpga/nios2eds/bin/gnu/h-i686-mingw32/bin/../lib/gcc/nios2-elf/4.1.2/../../../../nios2-elf/lib\libc.a(lib_a-sbrkr.o)
                0x00009d84                _sbrk_r
 .text          0x00009df4      0x14c d:/fpga/nios2eds/bin/gnu/h-i686-mingw32/bin/../lib/gcc/nios2-elf/4.1.2/../../../../nios2-elf/lib\libc.a(lib_a-stdio.o)
                0x00009df4                __sclose
                0x00009dfc                __sseek
                0x00009e64                __swrite
                0x00009ee0                __sread
 .text          0x00009f40       0xbc d:/fpga/nios2eds/bin/gnu/h-i686-mingw32/bin/../lib/gcc/nios2-elf/4.1.2/../../../../nios2-elf/lib\libc.a(lib_a-strcmp.o)
                0x00009f40                strcmp
 .text          0x00009ffc       0x74 d:/fpga/nios2eds/bin/gnu/h-i686-mingw32/bin/../lib/gcc/nios2-elf/4.1.2/../../../../nios2-elf/lib\libc.a(lib_a-strlen.o)
                0x00009ffc                strlen
 .text          0x0000a070       0x78 d:/fpga/nios2eds/bin/gnu/h-i686-mingw32/bin/../lib/gcc/nios2-elf/4.1.2/../../../../nios2-elf/lib\libc.a(lib_a-writer.o)
                0x0000a070                _write_r
 .text          0x0000a0e8       0xb4 d:/fpga/nios2eds/bin/gnu/h-i686-mingw32/bin/../lib/gcc/nios2-elf/4.1.2/../../../../nios2-elf/lib\libc.a(lib_a-callocr.o)
                0x0000a0e8                _calloc_r
 .text          0x0000a19c       0x70 d:/fpga/nios2eds/bin/gnu/h-i686-mingw32/bin/../lib/gcc/nios2-elf/4.1.2/../../../../nios2-elf/lib\libc.a(lib_a-closer.o)
                0x0000a19c                _close_r
 .text          0x0000a20c      0x124 d:/fpga/nios2eds/bin/gnu/h-i686-mingw32/bin/../lib/gcc/nios2-elf/4.1.2/../../../../nios2-elf/lib\libc.a(lib_a-fclose.o)
                0x0000a20c                _fclose_r
                0x0000a31c                fclose
 .text          0x0000a330       0x74 d:/fpga/nios2eds/bin/gnu/h-i686-mingw32/bin/../lib/gcc/nios2-elf/4.1.2/../../../../nios2-elf/lib\libc.a(lib_a-fstatr.o)
                0x0000a330                _fstat_r
 .text          0x0000a3a4        0x0 d:/fpga/nios2eds/bin/gnu/h-i686-mingw32/bin/../lib/gcc/nios2-elf/4.1.2/../../../../nios2-elf/lib\libc.a(lib_a-int_errno.o)
 .text          0x0000a3a4       0x70 d:/fpga/nios2eds/bin/gnu/h-i686-mingw32/bin/../lib/gcc/nios2-elf/4.1.2/../../../../nios2-elf/lib\libc.a(lib_a-isattyr.o)
                0x0000a3a4                _isatty_r
 .text          0x0000a414       0x78 d:/fpga/nios2eds/bin/gnu/h-i686-mingw32/bin/../lib/gcc/nios2-elf/4.1.2/../../../../nios2-elf/lib\libc.a(lib_a-lseekr.o)
                0x0000a414                _lseek_r
 .text          0x0000a48c       0x78 d:/fpga/nios2eds/bin/gnu/h-i686-mingw32/bin/../lib/gcc/nios2-elf/4.1.2/../../../../nios2-elf/lib\libc.a(lib_a-readr.o)
                0x0000a48c                _read_r
 .text          0x0000a504      0x5dc d:/fpga/nios2eds/bin/gnu/h-i686-mingw32/bin/../lib/gcc/nios2-elf/4.1.2\libgcc.a(_udivdi3.o)
                0x0000a504                __udivdi3
 .text          0x0000aae0      0x5b0 d:/fpga/nios2eds/bin/gnu/h-i686-mingw32/bin/../lib/gcc/nios2-elf/4.1.2\libgcc.a(_umoddi3.o)
                0x0000aae0                __umoddi3
 .text          0x0000b090      0x504 d:/fpga/nios2eds/bin/gnu/h-i686-mingw32/bin/../lib/gcc/nios2-elf/4.1.2\libgcc.a(_addsub_df.o)
                0x0000b4a0                __subdf3
                0x0000b520                __adddf3
 .text          0x0000b594      0x3c4 d:/fpga/nios2eds/bin/gnu/h-i686-mingw32/bin/../lib/gcc/nios2-elf/4.1.2\libgcc.a(_mul_df.o)
                0x0000b594                __muldf3
 .text          0x0000b958      0x258 d:/fpga/nios2eds/bin/gnu/h-i686-mingw32/bin/../lib/gcc/nios2-elf/4.1.2\libgcc.a(_div_df.o)
                0x0000b958                __divdf3
 .text          0x0000bbb0       0x88 d:/fpga/nios2eds/bin/gnu/h-i686-mingw32/bin/../lib/gcc/nios2-elf/4.1.2\libgcc.a(_eq_df.o)
                0x0000bbb0                __eqdf2
 .text          0x0000bc38       0x88 d:/fpga/nios2eds/bin/gnu/h-i686-mingw32/bin/../lib/gcc/nios2-elf/4.1.2\libgcc.a(_ne_df.o)
                0x0000bc38                __nedf2
 .text          0x0000bcc0       0x88 d:/fpga/nios2eds/bin/gnu/h-i686-mingw32/bin/../lib/gcc/nios2-elf/4.1.2\libgcc.a(_gt_df.o)
                0x0000bcc0                __gtdf2
 .text          0x0000bd48       0x88 d:/fpga/nios2eds/bin/gnu/h-i686-mingw32/bin/../lib/gcc/nios2-elf/4.1.2\libgcc.a(_ge_df.o)
                0x0000bd48                __gedf2
 .text          0x0000bdd0       0x88 d:/fpga/nios2eds/bin/gnu/h-i686-mingw32/bin/../lib/gcc/nios2-elf/4.1.2\libgcc.a(_lt_df.o)
                0x0000bdd0                __ltdf2
 .text          0x0000be58       0xf8 d:/fpga/nios2eds/bin/gnu/h-i686-mingw32/bin/../lib/gcc/nios2-elf/4.1.2\libgcc.a(_si_to_df.o)
                0x0000be58                __floatsidf
 .text          0x0000bf50       0xd8 d:/fpga/nios2eds/bin/gnu/h-i686-mingw32/bin/../lib/gcc/nios2-elf/4.1.2\libgcc.a(_df_to_si.o)
                0x0000bf50                __fixdfsi
 .text          0x0000c028        0x0 d:/fpga/nios2eds/bin/gnu/h-i686-mingw32/bin/../lib/gcc/nios2-elf/4.1.2\libgcc.a(_thenan_df.o)
 .text          0x0000c028      0x194 d:/fpga/nios2eds/bin/gnu/h-i686-mingw32/bin/../lib/gcc/nios2-elf/4.1.2\libgcc.a(_usi_to_df.o)
                0x0000c028                __floatunsidf
 .text          0x0000c1bc      0x14c d:/fpga/nios2eds/bin/gnu/h-i686-mingw32/bin/../lib/gcc/nios2-elf/4.1.2\libgcc.a(lib2-divmod.o)
                0x0000c238                __divsi3
                0x0000c298                __modsi3
                0x0000c2f8                __udivsi3
                0x0000c300                __umodsi3
 .text          0x0000c308       0x98 d:/fpga/nios2eds/bin/gnu/h-i686-mingw32/bin/../lib/gcc/nios2-elf/4.1.2\libgcc.a(_muldi3.o)
                0x0000c308                __muldi3
 .text          0x0000c3a0      0x138 d:/fpga/nios2eds/bin/gnu/h-i686-mingw32/bin/../lib/gcc/nios2-elf/4.1.2\libgcc.a(_unpack_df.o)
                0x0000c3a0                __unpack_d
 .text          0x0000c4d8       0xc8 d:/fpga/nios2eds/bin/gnu/h-i686-mingw32/bin/../lib/gcc/nios2-elf/4.1.2\libgcc.a(_fpcmp_parts_df.o)
                0x0000c4d8                __fpcmp_parts_d
 .text          0x0000c5a0      0x15c ../lab4_software_bsp/\libhal_bsp.a(alt_close.o)
                0x0000c5a0                close
 .text          0x0000c6fc       0x2c ../lab4_software_bsp/\libhal_bsp.a(alt_dev.o)
 .text          0x0000c728        0x0 ../lab4_software_bsp/\libhal_bsp.a(alt_errno.o)
 .text          0x0000c728      0x134 ../lab4_software_bsp/\libhal_bsp.a(alt_fstat.o)
                0x0000c728                fstat
 .text          0x0000c85c      0x1c0 ../lab4_software_bsp/\libhal_bsp.a(alt_irq_register.o)
                0x0000c85c                alt_irq_register
 .text          0x0000ca1c        0x0 ../lab4_software_bsp/\libhal_bsp.a(alt_irq_vars.o)
 .text          0x0000ca1c      0x120 ../lab4_software_bsp/\libhal_bsp.a(alt_isatty.o)
                0x0000ca1c                isatty
 .text          0x0000cb3c       0xec ../lab4_software_bsp/\libhal_bsp.a(alt_load.o)
                0x0000cb3c                alt_load
 .text          0x0000cc28      0x150 ../lab4_software_bsp/\libhal_bsp.a(alt_lseek.o)
                0x0000cc28                lseek
 .text          0x0000cd78       0x6c ../lab4_software_bsp/\libhal_bsp.a(alt_main.o)
                0x0000cd78                alt_main
 .text          0x0000cde4       0x40 ../lab4_software_bsp/\libhal_bsp.a(alt_malloc_lock.o)
                0x0000cde4                __malloc_lock
                0x0000ce04                __malloc_unlock
 .text          0x0000ce24      0x258 ../lab4_software_bsp/\libhal_bsp.a(alt_printf.o)
                0x0000ce24                alt_printf
 .text          0x0000d07c       0x40 ../lab4_software_bsp/\libhal_bsp.a(alt_putchar.o)
                0x0000d07c                alt_putchar
 .text          0x0000d0bc      0x180 ../lab4_software_bsp/\libhal_bsp.a(alt_read.o)
                0x0000d0bc                read
 .text          0x0000d23c       0x60 ../lab4_software_bsp/\libhal_bsp.a(alt_release_fd.o)
                0x0000d23c                alt_release_fd
 .text          0x0000d29c       0xbc ../lab4_software_bsp/\libhal_bsp.a(alt_sbrk.o)
                0x0000d29c                sbrk
 .text          0x0000d358      0x180 ../lab4_software_bsp/\libhal_bsp.a(alt_write.o)
                0x0000d358                write
 .text          0x0000d4d8      0x47c ../lab4_software_bsp/\libhal_bsp.a(alt_sys_init.o)
                0x0000d4d8                alt_irq_init
                0x0000d50c                alt_sys_init
 .text          0x0000d954      0x148 ../lab4_software_bsp/\libhal_bsp.a(altera_avalon_jtag_uart_fd.o)
                0x0000d954                altera_avalon_jtag_uart_read_fd
                0x0000d9ac                altera_avalon_jtag_uart_write_fd
                0x0000da04                altera_avalon_jtag_uart_close_fd
                0x0000da4c                altera_avalon_jtag_uart_ioctl_fd
 .text          0x0000da9c      0x408 ../lab4_software_bsp/\libhal_bsp.a(altera_avalon_jtag_uart_init.o)
                0x0000da9c                altera_avalon_jtag_uart_init
                0x0000de30                altera_avalon_jtag_uart_close
 .text          0x0000dea4       0xf4 ../lab4_software_bsp/\libhal_bsp.a(altera_avalon_jtag_uart_ioctl.o)
                0x0000dea4                altera_avalon_jtag_uart_ioctl
 .text          0x0000df98      0x224 ../lab4_software_bsp/\libhal_bsp.a(altera_avalon_jtag_uart_read.o)
                0x0000df98                altera_avalon_jtag_uart_read
 .text          0x0000e1bc      0x240 ../lab4_software_bsp/\libhal_bsp.a(altera_avalon_jtag_uart_write.o)
                0x0000e1bc                altera_avalon_jtag_uart_write
 .text          0x0000e3fc      0x168 ../lab4_software_bsp/\libhal_bsp.a(altera_avalon_timer_ts.o)
                0x0000e3fc                alt_timestamp_start
                0x0000e4a0                alt_timestamp
                0x0000e53c                alt_timestamp_freq
 .text          0x0000e564        0x0 ../lab4_software_bsp/\libhal_bsp.a(altera_avalon_timer_vars.o)
 .text          0x0000e564      0x80c ../lab4_software_bsp/\libhal_bsp.a(altera_up_avalon_audio.o)
                0x0000e564                alt_up_audio_open_dev
                0x0000e5a4                alt_up_audio_enable_read_interrupt
                0x0000e5f0                alt_up_audio_disable_read_interrupt
                0x0000e640                alt_up_audio_enable_write_interrupt
                0x0000e68c                alt_up_audio_disable_write_interrupt
                0x0000e6dc                alt_up_audio_read_interrupt_pending
                0x0000e718                alt_up_audio_write_interrupt_pending
                0x0000e754                alt_up_audio_reset_audio_core
                0x0000e7dc                alt_up_audio_read_fifo_avail
                0x0000e84c                alt_up_audio_record_r
                0x0000e8bc                alt_up_audio_record_l
                0x0000e92c                alt_up_audio_write_fifo_space
                0x0000e9a0                alt_up_audio_play_r
                0x0000ea10                alt_up_audio_play_l
                0x0000ea80                alt_up_audio_read_fifo
                0x0000eb84                alt_up_audio_write_fifo
                0x0000ecb0                alt_up_audio_read_fifo_head
                0x0000ed10                alt_up_audio_write_fifo_head
 .text          0x0000ed70      0x530 ../lab4_software_bsp/\libhal_bsp.a(altera_up_avalon_character_lcd.o)
                0x0000ed70                get_DDRAM_addr
                0x0000edec                alt_up_character_lcd_send_cmd
                0x0000ee20                alt_up_character_lcd_init
                0x0000ee54                alt_up_character_lcd_open_dev
                0x0000ee94                alt_up_character_lcd_write
                0x0000ef0c                alt_up_character_lcd_string
                0x0000ef84                alt_up_character_lcd_write_fd
                0x0000efd0                alt_up_character_lcd_set_cursor_pos
                0x0000f048                alt_up_character_lcd_shift_cursor
                0x0000f0f8                alt_up_character_lcd_shift_display
                0x0000f1a8                alt_up_character_lcd_erase_pos
                0x0000f238                alt_up_character_lcd_cursor_off
                0x0000f26c                alt_up_character_lcd_cursor_blink_on
 .text          0x0000f2a0      0x150 ../lab4_software_bsp/\libhal_bsp.a(altera_up_avalon_ethernet.o)
                0x0000f2a0                alt_up_ethernet_init
                0x0000f3b0                alt_up_ethernet_open_dev
 .text          0x0000f3f0      0x238 ../lab4_software_bsp/\libhal_bsp.a(altera_up_avalon_ethernet_low_level_driver.o)
                0x0000f3f0                alt_up_ethernet_reg_read
                0x0000f42c                alt_up_ethernet_reg_write
                0x0000f470                alt_up_ethernet_phy_reg_read
                0x0000f550                alt_up_ethernet_phy_reg_write
 .text          0x0000f628      0x394 ../lab4_software_bsp/\libhal_bsp.a(altera_up_avalon_irda.o)
                0x0000f628                alt_up_irda_enable_read_interrupt
                0x0000f67c                alt_up_irda_disable_read_interrupt
                0x0000f6d4                alt_up_irda_get_used_space_in_read_FIFO
                0x0000f710                alt_up_irda_get_available_space_in_write_FIFO
                0x0000f750                alt_up_irda_check_parity
                0x0000f7a0                alt_up_irda_write_data
                0x0000f7e8                alt_up_irda_read_data
                0x0000f85c                alt_up_irda_read_fd
                0x0000f8ec                alt_up_irda_write_fd
                0x0000f97c                alt_up_irda_open_dev
 .text          0x0000f9bc       0x40 ../lab4_software_bsp/\libhal_bsp.a(altera_up_avalon_parallel_port.o)
                0x0000f9bc                alt_up_parallel_port_open_dev
 .text          0x0000f9fc      0x700 ../lab4_software_bsp/\libhal_bsp.a(altera_up_avalon_ps2.o)
                0x0000f9fc                read_RI_bit
                0x0000fa30                read_RE_bit
                0x0000fa60                read_CE_bit
                0x0000fa94                read_num_bytes_available
                0x0000fac8                read_data_valid
                0x0000fafc                read_data_byte
                0x0000fb28                alt_up_ps2_init
                0x0000fbf4                alt_up_ps2_enable_read_interrupt
                0x0000fc48                alt_up_ps2_disable_read_interrupt
                0x0000fca0                alt_up_ps2_write_data_byte
                0x0000fd18                alt_up_ps2_wait_for_ack
                0x0000fd88                alt_up_ps2_write_data_byte_with_ack
                0x0000fdf4                alt_up_ps2_read_data_byte_timeout
                0x0000fea4                alt_up_ps2_read_data_byte
                0x0000ff20                alt_up_ps2_clear_fifo
                0x0000ff78                alt_up_ps2_read_fd
                0x00010014                alt_up_ps2_write_fd
                0x000100bc                alt_up_ps2_open_dev
 .text          0x000100fc      0x398 ../lab4_software_bsp/\libhal_bsp.a(altera_up_avalon_rs232.o)
                0x000100fc                alt_up_rs232_enable_read_interrupt
                0x00010150                alt_up_rs232_disable_read_interrupt
                0x000101a8                alt_up_rs232_get_used_space_in_read_FIFO
                0x000101e4                alt_up_rs232_get_available_space_in_write_FIFO
                0x00010224                alt_up_rs232_check_parity
                0x00010274                alt_up_rs232_write_data
                0x000102bc                alt_up_rs232_read_data
                0x00010330                alt_up_rs232_read_fd
                0x000103c0                alt_up_rs232_write_fd
                0x00010454                alt_up_rs232_open_dev
 .text          0x00010494      0x304 ../lab4_software_bsp/\libhal_bsp.a(altera_up_avalon_video_character_buffer_with_dma.o)
                0x00010494                alt_up_char_buffer_init
                0x00010518                alt_up_char_buffer_open_dev
                0x00010558                alt_up_char_buffer_draw
                0x00010628                alt_up_char_buffer_string
                0x0001073c                alt_up_char_buffer_clear
 .text          0x00010798     0x156c ../lab4_software_bsp/\libhal_bsp.a(altera_up_avalon_video_pixel_buffer_dma.o)
                0x00010798                alt_up_pixel_buffer_dma_open_dev
                0x000107d8                alt_up_pixel_buffer_dma_draw
                0x00010978                alt_up_pixel_buffer_dma_change_back_buffer_address
                0x000109d0                alt_up_pixel_buffer_dma_swap_buffers
                0x00010a28                alt_up_pixel_buffer_dma_check_swap_buffers_status
                0x00010a5c                alt_up_pixel_buffer_dma_clear_screen
                0x00010bc0                alt_up_pixel_buffer_dma_draw_box
                0x000110b4                alt_up_pixel_buffer_dma_draw_hline
                0x00011404                alt_up_pixel_buffer_dma_draw_vline
                0x000117d4                alt_up_pixel_buffer_dma_draw_rectangle
                0x00011898                helper_plot_pixel
                0x00011968                alt_up_pixel_buffer_dma_draw_line
 .text          0x00011d04      0x154 ../lab4_software_bsp/\libhal_bsp.a(alt_alarm_start.o)
                0x00011d04                alt_alarm_start
 .text          0x00011e58       0x1c ../lab4_software_bsp/\libhal_bsp.a(alt_dcache_flush_all.o)
                0x00011e58                alt_dcache_flush_all
 .text          0x00011e74      0x114 ../lab4_software_bsp/\libhal_bsp.a(alt_dev_llist_insert.o)
                0x00011e74                alt_dev_llist_insert
 .text          0x00011f88       0x64 ../lab4_software_bsp/\libhal_bsp.a(alt_do_ctors.o)
                0x00011f88                _do_ctors
 .text          0x00011fec       0x64 ../lab4_software_bsp/\libhal_bsp.a(alt_do_dtors.o)
                0x00011fec                _do_dtors
 .text          0x00012050       0x94 ../lab4_software_bsp/\libhal_bsp.a(alt_find_dev.o)
                0x00012050                alt_find_dev
 .text          0x000120e4       0x30 ../lab4_software_bsp/\libhal_bsp.a(alt_icache_flush_all.o)
                0x000120e4                alt_icache_flush_all
 .text          0x00012114      0x13c ../lab4_software_bsp/\libhal_bsp.a(alt_io_redirect.o)
                0x000121d8                alt_io_redirect
 .text          0x00012250        0x0 ../lab4_software_bsp/\libhal_bsp.a(alt_irq_entry.o)
 .text          0x00012250        0x0 ../lab4_software_bsp/\libhal_bsp.a(alt_irq_handler.o)
 .text          0x00012250      0x2c4 ../lab4_software_bsp/\libhal_bsp.a(alt_open.o)
                0x0001232c                open
 .text          0x00012514      0x1a4 ../lab4_software_bsp/\libhal_bsp.a(alt_tick.o)
                0x00012514                alt_alarm_stop
                0x000125ac                alt_tick
 .text          0x000126b8       0x30 ../lab4_software_bsp/\libhal_bsp.a(alt_usleep.o)
                0x000126b8                usleep
 .text          0x000126e8       0x20 ../lab4_software_bsp/\libhal_bsp.a(altera_nios2_qsys_irq.o)
                0x000126e8                altera_nios2_qsys_irq_init
 .text          0x00012708      0x12c ../lab4_software_bsp/\libhal_bsp.a(alt_busy_sleep.o)
                0x00012708                alt_busy_sleep
 .text          0x00012834        0x0 ../lab4_software_bsp/\libhal_bsp.a(alt_exception_entry.o)
 .text          0x00012834      0x120 ../lab4_software_bsp/\libhal_bsp.a(alt_find_file.o)
                0x00012834                alt_find_file
 .text          0x00012954       0xb8 ../lab4_software_bsp/\libhal_bsp.a(alt_get_fd.o)
                0x00012954                alt_get_fd
 .text          0x00012a0c       0x90 ../lab4_software_bsp/\libhal_bsp.a(alt_icache_flush.o)
                0x00012a0c                alt_icache_flush
 .text          0x00012a9c       0x14 d:/fpga/nios2eds/bin/gnu/h-i686-mingw32/bin/../lib/gcc/nios2-elf/4.1.2/../../../../nios2-elf/lib\libc.a(lib_a-atexit.o)
                0x00012a9c                atexit
 .text          0x00012ab0       0x38 d:/fpga/nios2eds/bin/gnu/h-i686-mingw32/bin/../lib/gcc/nios2-elf/4.1.2/../../../../nios2-elf/lib\libc.a(lib_a-exit.o)
                0x00012ab0                exit
 .text          0x00012ae8       0x74 d:/fpga/nios2eds/bin/gnu/h-i686-mingw32/bin/../lib/gcc/nios2-elf/4.1.2/../../../../nios2-elf/lib\libc.a(lib_a-memcmp.o)
                0x00012ae8                memcmp
 .text          0x00012b5c      0x1ec d:/fpga/nios2eds/bin/gnu/h-i686-mingw32/bin/../lib/gcc/nios2-elf/4.1.2/../../../../nios2-elf/lib\libc.a(lib_a-putc.o)
                0x00012b5c                putc
                0x00012c60                _putc_r
 .text          0x00012d48      0x14c d:/fpga/nios2eds/bin/gnu/h-i686-mingw32/bin/../lib/gcc/nios2-elf/4.1.2/../../../../nios2-elf/lib\libc.a(lib_a-wbuf.o)
                0x00012d48                __swbuf_r
                0x00012e78                __swbuf
 .text          0x00012e94      0x134 d:/fpga/nios2eds/bin/gnu/h-i686-mingw32/bin/../lib/gcc/nios2-elf/4.1.2/../../../../nios2-elf/lib\libc.a(lib_a-__atexit.o)
                0x00012e94                __register_exitproc
 .text          0x00012fc8      0x1b4 d:/fpga/nios2eds/bin/gnu/h-i686-mingw32/bin/../lib/gcc/nios2-elf/4.1.2/../../../../nios2-elf/lib\libc.a(lib_a-__call_atexit.o)
                0x00012fcc                __call_exitprocs
 .text          0x0001317c       0x60 ../lab4_software_bsp/\libhal_bsp.a(alt_exit.o)
                0x000131bc                _exit
 *(.gnu.warning.*)
 *(.fini)
                0x000131dc                PROVIDE (__etext, ABSOLUTE (.))
                0x000131dc                PROVIDE (_etext, ABSOLUTE (.))
                0x000131dc                PROVIDE (etext, ABSOLUTE (.))
 *(.eh_frame_hdr)
                0x000131dc                . = ALIGN (0x4)
                0x000131dc                PROVIDE (__preinit_array_start, ABSOLUTE (.))
 *(.preinit_array)
                0x000131dc                PROVIDE (__preinit_array_end, ABSOLUTE (.))
                0x000131dc                PROVIDE (__init_array_start, ABSOLUTE (.))
 *(.init_array)
                0x000131dc                PROVIDE (__init_array_end, ABSOLUTE (.))
                0x000131dc                PROVIDE (__fini_array_start, ABSOLUTE (.))
 *(.fini_array)
                0x000131dc                PROVIDE (__fini_array_end, ABSOLUTE (.))
 *(.eh_frame)
 *(.gcc_except_table)
 *(.dynamic)
                0x000131dc                PROVIDE (__CTOR_LIST__, ABSOLUTE (.))
 *(.ctors)
 *(SORT(.ctors.*))
 .ctors.65535   0x000131dc        0x4 d:/fpga/nios2eds/bin/gnu/h-i686-mingw32/bin/../lib/gcc/nios2-elf/4.1.2/../../../../nios2-elf/lib\libc.a(lib_a-__call_atexit.o)
                0x000131e0                PROVIDE (__CTOR_END__, ABSOLUTE (.))
                0x000131e0                PROVIDE (__DTOR_LIST__, ABSOLUTE (.))
 *(.dtors)
 *(SORT(.dtors.*))
                0x000131e0                PROVIDE (__DTOR_END__, ABSOLUTE (.))
 *(.jcr)
                0x000131e0                . = ALIGN (0x4)

.rodata         0x000131e0      0x89c
                0x000131e0                PROVIDE (__ram_rodata_start, ABSOLUTE (.))
                0x000131e0                . = ALIGN (0x4)
 *(.rodata .rodata.* .gnu.linkonce.r.*)
 .rodata        0x000131e0       0x1c obj/default/audio_ISR.o
 .rodata        0x000131fc      0x3c0 obj/default/media_interrupt_HAL.o
 .rodata        0x000135bc      0x100 d:/fpga/nios2eds/bin/gnu/h-i686-mingw32/bin/../lib/gcc/nios2-elf/4.1.2\libgcc.a(_clz.o)
                0x000135bc                __clz_tab
 .rodata.str1.4
                0x000136bc       0x5e d:/fpga/nios2eds/bin/gnu/h-i686-mingw32/bin/../lib/gcc/nios2-elf/4.1.2/../../../../nios2-elf/lib\libc.a(lib_a-vfprintf.o)
                                 0x60 (size before relaxing)
 .rodata        0x0001371a       0x20 d:/fpga/nios2eds/bin/gnu/h-i686-mingw32/bin/../lib/gcc/nios2-elf/4.1.2/../../../../nios2-elf/lib\libc.a(lib_a-vfprintf.o)
 *fill*         0x0001373a        0x2 00
 .rodata.str1.4
                0x0001373c       0x10 d:/fpga/nios2eds/bin/gnu/h-i686-mingw32/bin/../lib/gcc/nios2-elf/4.1.2/../../../../nios2-elf/lib\libc.a(lib_a-dtoa.o)
                                 0x14 (size before relaxing)
 .rodata.str1.4
                0x0001374c        0x2 d:/fpga/nios2eds/bin/gnu/h-i686-mingw32/bin/../lib/gcc/nios2-elf/4.1.2/../../../../nios2-elf/lib\libc.a(lib_a-impure.o)
                                  0x4 (size before relaxing)
 *fill*         0x0001374e        0x2 00
 .rodata.str1.4
                0x00013750       0x10 d:/fpga/nios2eds/bin/gnu/h-i686-mingw32/bin/../lib/gcc/nios2-elf/4.1.2/../../../../nios2-elf/lib\libc.a(lib_a-locale.o)
                                 0x18 (size before relaxing)
 .rodata        0x00013760       0x30 d:/fpga/nios2eds/bin/gnu/h-i686-mingw32/bin/../lib/gcc/nios2-elf/4.1.2/../../../../nios2-elf/lib\libc.a(lib_a-locale.o)
 .rodata        0x00013790      0x124 d:/fpga/nios2eds/bin/gnu/h-i686-mingw32/bin/../lib/gcc/nios2-elf/4.1.2/../../../../nios2-elf/lib\libc.a(lib_a-mprec.o)
                0x00013790                __mprec_tens
                0x00013858                __mprec_bigtens
                0x00013880                __mprec_tinytens
 .rodata        0x000138b4       0x14 d:/fpga/nios2eds/bin/gnu/h-i686-mingw32/bin/../lib/gcc/nios2-elf/4.1.2\libgcc.a(_thenan_df.o)
                0x000138b4                __thenan_df
 .rodata        0x000138c8        0xc ../lab4_software_bsp/\libhal_bsp.a(alt_dev.o)
 .rodata        0x000138d4       0x10 ../lab4_software_bsp/\libhal_bsp.a(alt_main.o)
 .rodata        0x000138e4      0x17c ../lab4_software_bsp/\libhal_bsp.a(alt_sys_init.o)
 .rodata        0x00013a60       0x1c ../lab4_software_bsp/\libhal_bsp.a(altera_up_avalon_video_character_buffer_with_dma.o)
 *(.rodata1)
                0x00013a7c                . = ALIGN (0x4)
                0x00013a7c                PROVIDE (__ram_rodata_end, ABSOLUTE (.))
                0x000131e0                PROVIDE (__flash_rodata_start, LOADADDR (.rodata))

.rwdata         0x00013a7c     0x1f2c load address 0x000159a8
                0x00013a7c                PROVIDE (__ram_rwdata_start, ABSOLUTE (.))
                0x00013a7c                . = ALIGN (0x4)
 *(.got.plt)
 *(.got)
 *(.data1)
 *(.data .data.* .gnu.linkonce.d.*)
 .data          0x00013a7c        0x0 ../lab4_software_bsp//obj/HAL/src/crt0.o
 .data          0x00013a7c        0x0 obj/default/PS2_ISR.o
 .data          0x00013a7c        0x0 obj/default/audio_ISR.o
 .data          0x00013a7c        0x0 obj/default/globals.o
 .data          0x00013a7c        0x0 obj/default/interval_timer_ISR.o
 .data          0x00013a7c      0x100 obj/default/media_interrupt_HAL.o
                0x00013a7c                denoise_filter_coefficients
 .data          0x00013b7c        0x0 obj/default/pushbutton_ISR.o
 .data          0x00013b7c        0x0 d:/fpga/nios2eds/bin/gnu/h-i686-mingw32/bin/../lib/gcc/nios2-elf/4.1.2\libgcc.a(_si_to_sf.o)
 .data          0x00013b7c        0x0 d:/fpga/nios2eds/bin/gnu/h-i686-mingw32/bin/../lib/gcc/nios2-elf/4.1.2\libgcc.a(_sf_to_si.o)
 .data          0x00013b7c        0x0 d:/fpga/nios2eds/bin/gnu/h-i686-mingw32/bin/../lib/gcc/nios2-elf/4.1.2\libgcc.a(_sf_to_df.o)
 .data          0x00013b7c        0x0 d:/fpga/nios2eds/bin/gnu/h-i686-mingw32/bin/../lib/gcc/nios2-elf/4.1.2\libgcc.a(_usi_to_sf.o)
 .data          0x00013b7c        0x0 d:/fpga/nios2eds/bin/gnu/h-i686-mingw32/bin/../lib/gcc/nios2-elf/4.1.2\libgcc.a(_make_df.o)
 .data          0x00013b7c        0x0 d:/fpga/nios2eds/bin/gnu/h-i686-mingw32/bin/../lib/gcc/nios2-elf/4.1.2\libgcc.a(_clzsi2.o)
 .data          0x00013b7c        0x0 d:/fpga/nios2eds/bin/gnu/h-i686-mingw32/bin/../lib/gcc/nios2-elf/4.1.2\libgcc.a(_pack_sf.o)
 .data          0x00013b7c        0x0 d:/fpga/nios2eds/bin/gnu/h-i686-mingw32/bin/../lib/gcc/nios2-elf/4.1.2\libgcc.a(_unpack_sf.o)
 .data          0x00013b7c        0x0 d:/fpga/nios2eds/bin/gnu/h-i686-mingw32/bin/../lib/gcc/nios2-elf/4.1.2\libgcc.a(_pack_df.o)
 .data          0x00013b7c        0x0 d:/fpga/nios2eds/bin/gnu/h-i686-mingw32/bin/../lib/gcc/nios2-elf/4.1.2\libgcc.a(_clz.o)
 .data          0x00013b7c        0x0 d:/fpga/nios2eds/bin/gnu/h-i686-mingw32/bin/../lib/gcc/nios2-elf/4.1.2/../../../../nios2-elf/lib\libc.a(lib_a-memcpy.o)
 .data          0x00013b7c        0x0 d:/fpga/nios2eds/bin/gnu/h-i686-mingw32/bin/../lib/gcc/nios2-elf/4.1.2/../../../../nios2-elf/lib\libc.a(lib_a-memset.o)
 .data          0x00013b7c        0x0 d:/fpga/nios2eds/bin/gnu/h-i686-mingw32/bin/../lib/gcc/nios2-elf/4.1.2/../../../../nios2-elf/lib\libc.a(lib_a-printf.o)
 .data          0x00013b7c        0x0 d:/fpga/nios2eds/bin/gnu/h-i686-mingw32/bin/../lib/gcc/nios2-elf/4.1.2/../../../../nios2-elf/lib\libc.a(lib_a-vfprintf.o)
 .data          0x00013b7c        0x0 d:/fpga/nios2eds/bin/gnu/h-i686-mingw32/bin/../lib/gcc/nios2-elf/4.1.2/../../../../nios2-elf/lib\libc.a(lib_a-wsetup.o)
 .data          0x00013b7c        0x0 d:/fpga/nios2eds/bin/gnu/h-i686-mingw32/bin/../lib/gcc/nios2-elf/4.1.2/../../../../nios2-elf/lib\libc.a(lib_a-dtoa.o)
 .data          0x00013b7c        0x0 d:/fpga/nios2eds/bin/gnu/h-i686-mingw32/bin/../lib/gcc/nios2-elf/4.1.2/../../../../nios2-elf/lib\libc.a(lib_a-fflush.o)
 .data          0x00013b7c        0x0 d:/fpga/nios2eds/bin/gnu/h-i686-mingw32/bin/../lib/gcc/nios2-elf/4.1.2/../../../../nios2-elf/lib\libc.a(lib_a-findfp.o)
 .data          0x00013b7c        0x0 d:/fpga/nios2eds/bin/gnu/h-i686-mingw32/bin/../lib/gcc/nios2-elf/4.1.2/../../../../nios2-elf/lib\libc.a(lib_a-freer.o)
 .data          0x00013b7c        0x0 d:/fpga/nios2eds/bin/gnu/h-i686-mingw32/bin/../lib/gcc/nios2-elf/4.1.2/../../../../nios2-elf/lib\libc.a(lib_a-fvwrite.o)
 .data          0x00013b7c        0x0 d:/fpga/nios2eds/bin/gnu/h-i686-mingw32/bin/../lib/gcc/nios2-elf/4.1.2/../../../../nios2-elf/lib\libc.a(lib_a-fwalk.o)
 .data          0x00013b7c      0x400 d:/fpga/nios2eds/bin/gnu/h-i686-mingw32/bin/../lib/gcc/nios2-elf/4.1.2/../../../../nios2-elf/lib\libc.a(lib_a-impure.o)
 .data          0x00013f7c        0xc d:/fpga/nios2eds/bin/gnu/h-i686-mingw32/bin/../lib/gcc/nios2-elf/4.1.2/../../../../nios2-elf/lib\libc.a(lib_a-locale.o)
                0x00013f7c                __lc_ctype
 .data          0x00013f88        0x0 d:/fpga/nios2eds/bin/gnu/h-i686-mingw32/bin/../lib/gcc/nios2-elf/4.1.2/../../../../nios2-elf/lib\libc.a(lib_a-makebuf.o)
 .data          0x00013f88      0x408 d:/fpga/nios2eds/bin/gnu/h-i686-mingw32/bin/../lib/gcc/nios2-elf/4.1.2/../../../../nios2-elf/lib\libc.a(lib_a-mallocr.o)
                0x00013f88                __malloc_av_
 .data          0x00014390        0x0 d:/fpga/nios2eds/bin/gnu/h-i686-mingw32/bin/../lib/gcc/nios2-elf/4.1.2/../../../../nios2-elf/lib\libc.a(lib_a-memchr.o)
 .data          0x00014390        0x0 d:/fpga/nios2eds/bin/gnu/h-i686-mingw32/bin/../lib/gcc/nios2-elf/4.1.2/../../../../nios2-elf/lib\libc.a(lib_a-memmove.o)
 .data          0x00014390        0x0 d:/fpga/nios2eds/bin/gnu/h-i686-mingw32/bin/../lib/gcc/nios2-elf/4.1.2/../../../../nios2-elf/lib\libc.a(lib_a-mprec.o)
 .data          0x00014390        0x0 d:/fpga/nios2eds/bin/gnu/h-i686-mingw32/bin/../lib/gcc/nios2-elf/4.1.2/../../../../nios2-elf/lib\libc.a(lib_a-reallocr.o)
 .data          0x00014390        0x0 d:/fpga/nios2eds/bin/gnu/h-i686-mingw32/bin/../lib/gcc/nios2-elf/4.1.2/../../../../nios2-elf/lib\libc.a(lib_a-s_isinfd.o)
 .data          0x00014390        0x0 d:/fpga/nios2eds/bin/gnu/h-i686-mingw32/bin/../lib/gcc/nios2-elf/4.1.2/../../../../nios2-elf/lib\libc.a(lib_a-s_isnand.o)
 .data          0x00014390        0x0 d:/fpga/nios2eds/bin/gnu/h-i686-mingw32/bin/../lib/gcc/nios2-elf/4.1.2/../../../../nios2-elf/lib\libc.a(lib_a-sbrkr.o)
 .data          0x00014390        0x0 d:/fpga/nios2eds/bin/gnu/h-i686-mingw32/bin/../lib/gcc/nios2-elf/4.1.2/../../../../nios2-elf/lib\libc.a(lib_a-stdio.o)
 .data          0x00014390        0x0 d:/fpga/nios2eds/bin/gnu/h-i686-mingw32/bin/../lib/gcc/nios2-elf/4.1.2/../../../../nios2-elf/lib\libc.a(lib_a-strcmp.o)
 .data          0x00014390        0x0 d:/fpga/nios2eds/bin/gnu/h-i686-mingw32/bin/../lib/gcc/nios2-elf/4.1.2/../../../../nios2-elf/lib\libc.a(lib_a-strlen.o)
 .data          0x00014390        0x0 d:/fpga/nios2eds/bin/gnu/h-i686-mingw32/bin/../lib/gcc/nios2-elf/4.1.2/../../../../nios2-elf/lib\libc.a(lib_a-writer.o)
 .data          0x00014390        0x0 d:/fpga/nios2eds/bin/gnu/h-i686-mingw32/bin/../lib/gcc/nios2-elf/4.1.2/../../../../nios2-elf/lib\libc.a(lib_a-callocr.o)
 .data          0x00014390        0x0 d:/fpga/nios2eds/bin/gnu/h-i686-mingw32/bin/../lib/gcc/nios2-elf/4.1.2/../../../../nios2-elf/lib\libc.a(lib_a-closer.o)
 .data          0x00014390        0x0 d:/fpga/nios2eds/bin/gnu/h-i686-mingw32/bin/../lib/gcc/nios2-elf/4.1.2/../../../../nios2-elf/lib\libc.a(lib_a-fclose.o)
 .data          0x00014390        0x0 d:/fpga/nios2eds/bin/gnu/h-i686-mingw32/bin/../lib/gcc/nios2-elf/4.1.2/../../../../nios2-elf/lib\libc.a(lib_a-fstatr.o)
 .data          0x00014390        0x0 d:/fpga/nios2eds/bin/gnu/h-i686-mingw32/bin/../lib/gcc/nios2-elf/4.1.2/../../../../nios2-elf/lib\libc.a(lib_a-int_errno.o)
 .data          0x00014390        0x0 d:/fpga/nios2eds/bin/gnu/h-i686-mingw32/bin/../lib/gcc/nios2-elf/4.1.2/../../../../nios2-elf/lib\libc.a(lib_a-isattyr.o)
 .data          0x00014390        0x0 d:/fpga/nios2eds/bin/gnu/h-i686-mingw32/bin/../lib/gcc/nios2-elf/4.1.2/../../../../nios2-elf/lib\libc.a(lib_a-lseekr.o)
 .data          0x00014390        0x0 d:/fpga/nios2eds/bin/gnu/h-i686-mingw32/bin/../lib/gcc/nios2-elf/4.1.2/../../../../nios2-elf/lib\libc.a(lib_a-readr.o)
 .data          0x00014390        0x0 d:/fpga/nios2eds/bin/gnu/h-i686-mingw32/bin/../lib/gcc/nios2-elf/4.1.2\libgcc.a(_udivdi3.o)
 .data          0x00014390        0x0 d:/fpga/nios2eds/bin/gnu/h-i686-mingw32/bin/../lib/gcc/nios2-elf/4.1.2\libgcc.a(_umoddi3.o)
 .data          0x00014390        0x0 d:/fpga/nios2eds/bin/gnu/h-i686-mingw32/bin/../lib/gcc/nios2-elf/4.1.2\libgcc.a(_addsub_df.o)
 .data          0x00014390        0x0 d:/fpga/nios2eds/bin/gnu/h-i686-mingw32/bin/../lib/gcc/nios2-elf/4.1.2\libgcc.a(_mul_df.o)
 .data          0x00014390        0x0 d:/fpga/nios2eds/bin/gnu/h-i686-mingw32/bin/../lib/gcc/nios2-elf/4.1.2\libgcc.a(_div_df.o)
 .data          0x00014390        0x0 d:/fpga/nios2eds/bin/gnu/h-i686-mingw32/bin/../lib/gcc/nios2-elf/4.1.2\libgcc.a(_eq_df.o)
 .data          0x00014390        0x0 d:/fpga/nios2eds/bin/gnu/h-i686-mingw32/bin/../lib/gcc/nios2-elf/4.1.2\libgcc.a(_ne_df.o)
 .data          0x00014390        0x0 d:/fpga/nios2eds/bin/gnu/h-i686-mingw32/bin/../lib/gcc/nios2-elf/4.1.2\libgcc.a(_gt_df.o)
 .data          0x00014390        0x0 d:/fpga/nios2eds/bin/gnu/h-i686-mingw32/bin/../lib/gcc/nios2-elf/4.1.2\libgcc.a(_ge_df.o)
 .data          0x00014390        0x0 d:/fpga/nios2eds/bin/gnu/h-i686-mingw32/bin/../lib/gcc/nios2-elf/4.1.2\libgcc.a(_lt_df.o)
 .data          0x00014390        0x0 d:/fpga/nios2eds/bin/gnu/h-i686-mingw32/bin/../lib/gcc/nios2-elf/4.1.2\libgcc.a(_si_to_df.o)
 .data          0x00014390        0x0 d:/fpga/nios2eds/bin/gnu/h-i686-mingw32/bin/../lib/gcc/nios2-elf/4.1.2\libgcc.a(_df_to_si.o)
 .data          0x00014390        0x0 d:/fpga/nios2eds/bin/gnu/h-i686-mingw32/bin/../lib/gcc/nios2-elf/4.1.2\libgcc.a(_thenan_df.o)
 .data          0x00014390        0x0 d:/fpga/nios2eds/bin/gnu/h-i686-mingw32/bin/../lib/gcc/nios2-elf/4.1.2\libgcc.a(_usi_to_df.o)
 .data          0x00014390        0x0 d:/fpga/nios2eds/bin/gnu/h-i686-mingw32/bin/../lib/gcc/nios2-elf/4.1.2\libgcc.a(lib2-divmod.o)
 .data          0x00014390        0x0 d:/fpga/nios2eds/bin/gnu/h-i686-mingw32/bin/../lib/gcc/nios2-elf/4.1.2\libgcc.a(_muldi3.o)
 .data          0x00014390        0x0 d:/fpga/nios2eds/bin/gnu/h-i686-mingw32/bin/../lib/gcc/nios2-elf/4.1.2\libgcc.a(_unpack_df.o)
 .data          0x00014390        0x0 d:/fpga/nios2eds/bin/gnu/h-i686-mingw32/bin/../lib/gcc/nios2-elf/4.1.2\libgcc.a(_fpcmp_parts_df.o)
 .data          0x00014390        0x0 ../lab4_software_bsp/\libhal_bsp.a(alt_close.o)
 .data          0x00014390      0x1a8 ../lab4_software_bsp/\libhal_bsp.a(alt_dev.o)
                0x00014390                alt_dev_null
                0x000143b8                alt_fd_list
 .data          0x00014538        0x0 ../lab4_software_bsp/\libhal_bsp.a(alt_errno.o)
 .data          0x00014538        0x0 ../lab4_software_bsp/\libhal_bsp.a(alt_fstat.o)
 .data          0x00014538        0x0 ../lab4_software_bsp/\libhal_bsp.a(alt_irq_register.o)
 .data          0x00014538        0x0 ../lab4_software_bsp/\libhal_bsp.a(alt_irq_vars.o)
 .data          0x00014538        0x0 ../lab4_software_bsp/\libhal_bsp.a(alt_isatty.o)
 .data          0x00014538        0x0 ../lab4_software_bsp/\libhal_bsp.a(alt_load.o)
 .data          0x00014538        0x0 ../lab4_software_bsp/\libhal_bsp.a(alt_lseek.o)
 .data          0x00014538        0x0 ../lab4_software_bsp/\libhal_bsp.a(alt_main.o)
 .data          0x00014538        0x0 ../lab4_software_bsp/\libhal_bsp.a(alt_malloc_lock.o)
 .data          0x00014538        0x0 ../lab4_software_bsp/\libhal_bsp.a(alt_printf.o)
 .data          0x00014538        0x0 ../lab4_software_bsp/\libhal_bsp.a(alt_putchar.o)
 .data          0x00014538        0x0 ../lab4_software_bsp/\libhal_bsp.a(alt_read.o)
 .data          0x00014538        0x0 ../lab4_software_bsp/\libhal_bsp.a(alt_release_fd.o)
 .data          0x00014538        0x0 ../lab4_software_bsp/\libhal_bsp.a(alt_sbrk.o)
 .data          0x00014538        0x0 ../lab4_software_bsp/\libhal_bsp.a(alt_write.o)
 .data          0x00014538     0x1414 ../lab4_software_bsp/\libhal_bsp.a(alt_sys_init.o)
 .data          0x0001594c        0x0 ../lab4_software_bsp/\libhal_bsp.a(altera_avalon_jtag_uart_fd.o)
 .data          0x0001594c        0x0 ../lab4_software_bsp/\libhal_bsp.a(altera_avalon_jtag_uart_init.o)
 .data          0x0001594c        0x0 ../lab4_software_bsp/\libhal_bsp.a(altera_avalon_jtag_uart_ioctl.o)
 .data          0x0001594c        0x0 ../lab4_software_bsp/\libhal_bsp.a(altera_avalon_jtag_uart_read.o)
 .data          0x0001594c        0x0 ../lab4_software_bsp/\libhal_bsp.a(altera_avalon_jtag_uart_write.o)
 .data          0x0001594c        0x0 ../lab4_software_bsp/\libhal_bsp.a(altera_avalon_timer_ts.o)
 .data          0x0001594c        0x0 ../lab4_software_bsp/\libhal_bsp.a(altera_avalon_timer_vars.o)
 .data          0x0001594c        0x0 ../lab4_software_bsp/\libhal_bsp.a(altera_up_avalon_audio.o)
 .data          0x0001594c        0x0 ../lab4_software_bsp/\libhal_bsp.a(altera_up_avalon_character_lcd.o)
 .data          0x0001594c        0x0 ../lab4_software_bsp/\libhal_bsp.a(altera_up_avalon_ethernet.o)
 .data          0x0001594c        0x0 ../lab4_software_bsp/\libhal_bsp.a(altera_up_avalon_ethernet_low_level_driver.o)
 .data          0x0001594c        0x0 ../lab4_software_bsp/\libhal_bsp.a(altera_up_avalon_irda.o)
 .data          0x0001594c        0x0 ../lab4_software_bsp/\libhal_bsp.a(altera_up_avalon_parallel_port.o)
 .data          0x0001594c        0x0 ../lab4_software_bsp/\libhal_bsp.a(altera_up_avalon_ps2.o)
 .data          0x0001594c        0x0 ../lab4_software_bsp/\libhal_bsp.a(altera_up_avalon_rs232.o)
 .data          0x0001594c        0x0 ../lab4_software_bsp/\libhal_bsp.a(altera_up_avalon_video_character_buffer_with_dma.o)
 .data          0x0001594c        0x0 ../lab4_software_bsp/\libhal_bsp.a(altera_up_avalon_video_pixel_buffer_dma.o)
 .data          0x0001594c        0x0 ../lab4_software_bsp/\libhal_bsp.a(alt_alarm_start.o)
 .data          0x0001594c        0x0 ../lab4_software_bsp/\libhal_bsp.a(alt_dcache_flush_all.o)
 .data          0x0001594c        0x0 ../lab4_software_bsp/\libhal_bsp.a(alt_dev_llist_insert.o)
 .data          0x0001594c        0x0 ../lab4_software_bsp/\libhal_bsp.a(alt_do_ctors.o)
 .data          0x0001594c        0x0 ../lab4_software_bsp/\libhal_bsp.a(alt_do_dtors.o)
 .data          0x0001594c        0x0 ../lab4_software_bsp/\libhal_bsp.a(alt_find_dev.o)
 .data          0x0001594c        0x0 ../lab4_software_bsp/\libhal_bsp.a(alt_icache_flush_all.o)
 .data          0x0001594c        0x0 ../lab4_software_bsp/\libhal_bsp.a(alt_io_redirect.o)
 .data          0x0001594c        0x0 ../lab4_software_bsp/\libhal_bsp.a(alt_irq_entry.o)
 .data          0x0001594c        0x0 ../lab4_software_bsp/\libhal_bsp.a(alt_irq_handler.o)
 .data          0x0001594c        0x0 ../lab4_software_bsp/\libhal_bsp.a(alt_open.o)
 .data          0x0001594c        0x0 ../lab4_software_bsp/\libhal_bsp.a(alt_tick.o)
 .data          0x0001594c        0x0 ../lab4_software_bsp/\libhal_bsp.a(alt_usleep.o)
 .data          0x0001594c        0x0 ../lab4_software_bsp/\libhal_bsp.a(altera_nios2_qsys_irq.o)
 .data          0x0001594c        0x0 ../lab4_software_bsp/\libhal_bsp.a(alt_busy_sleep.o)
 .data          0x0001594c        0x0 ../lab4_software_bsp/\libhal_bsp.a(alt_exception_entry.o)
 .data          0x0001594c        0x0 ../lab4_software_bsp/\libhal_bsp.a(alt_find_file.o)
 .data          0x0001594c        0x0 ../lab4_software_bsp/\libhal_bsp.a(alt_get_fd.o)
 .data          0x0001594c        0x0 ../lab4_software_bsp/\libhal_bsp.a(alt_icache_flush.o)
 .data          0x0001594c        0x0 d:/fpga/nios2eds/bin/gnu/h-i686-mingw32/bin/../lib/gcc/nios2-elf/4.1.2/../../../../nios2-elf/lib\libc.a(lib_a-atexit.o)
 .data          0x0001594c        0x0 d:/fpga/nios2eds/bin/gnu/h-i686-mingw32/bin/../lib/gcc/nios2-elf/4.1.2/../../../../nios2-elf/lib\libc.a(lib_a-exit.o)
 .data          0x0001594c        0x0 d:/fpga/nios2eds/bin/gnu/h-i686-mingw32/bin/../lib/gcc/nios2-elf/4.1.2/../../../../nios2-elf/lib\libc.a(lib_a-memcmp.o)
 .data          0x0001594c        0x0 d:/fpga/nios2eds/bin/gnu/h-i686-mingw32/bin/../lib/gcc/nios2-elf/4.1.2/../../../../nios2-elf/lib\libc.a(lib_a-putc.o)
 .data          0x0001594c        0x0 d:/fpga/nios2eds/bin/gnu/h-i686-mingw32/bin/../lib/gcc/nios2-elf/4.1.2/../../../../nios2-elf/lib\libc.a(lib_a-wbuf.o)
 .data          0x0001594c        0x0 d:/fpga/nios2eds/bin/gnu/h-i686-mingw32/bin/../lib/gcc/nios2-elf/4.1.2/../../../../nios2-elf/lib\libc.a(lib_a-__atexit.o)
 .data          0x0001594c        0x0 d:/fpga/nios2eds/bin/gnu/h-i686-mingw32/bin/../lib/gcc/nios2-elf/4.1.2/../../../../nios2-elf/lib\libc.a(lib_a-__call_atexit.o)
 .data          0x0001594c        0x0 ../lab4_software_bsp/\libhal_bsp.a(alt_exit.o)
                0x0001d94c                _gp = ABSOLUTE ((. + 0x8000))
                0x0001d94c                PROVIDE (gp, _gp)
 *(.rwdata .rwdata.*)
 *(.sdata .sdata.* .gnu.linkonce.s.*)
 .sdata         0x0001594c       0x10 obj/default/audio_ISR.o
                0x0001594c                color
                0x00015950                y_of_each_plot
                0x00015954                width_of_screen
                0x00015958                x_of_current_drawing_plot
 .sdata         0x0001595c        0xc obj/default/media_interrupt_HAL.o
                0x0001595c                Base_Addr
                0x00015960                N
                0x00015964                number_of_coefficients
 .sdata         0x00015968        0x8 d:/fpga/nios2eds/bin/gnu/h-i686-mingw32/bin/../lib/gcc/nios2-elf/4.1.2/../../../../nios2-elf/lib\libc.a(lib_a-impure.o)
                0x00015968                _impure_ptr
                0x0001596c                _global_impure_ptr
 .sdata         0x00015970        0x8 d:/fpga/nios2eds/bin/gnu/h-i686-mingw32/bin/../lib/gcc/nios2-elf/4.1.2/../../../../nios2-elf/lib\libc.a(lib_a-locale.o)
                0x00015970                __mb_cur_max
 .sdata         0x00015978        0x8 d:/fpga/nios2eds/bin/gnu/h-i686-mingw32/bin/../lib/gcc/nios2-elf/4.1.2/../../../../nios2-elf/lib\libc.a(lib_a-mallocr.o)
                0x00015978                __malloc_trim_threshold
                0x0001597c                __malloc_sbrk_base
 .sdata         0x00015980       0x14 ../lab4_software_bsp/\libhal_bsp.a(alt_dev.o)
                0x00015980                alt_fs_list
                0x00015988                alt_dev_list
                0x00015990                alt_max_fd
 .sdata         0x00015994        0x4 ../lab4_software_bsp/\libhal_bsp.a(alt_errno.o)
                0x00015994                alt_errno
 .sdata         0x00015998        0x4 ../lab4_software_bsp/\libhal_bsp.a(alt_irq_vars.o)
                0x00015998                alt_priority_mask
 .sdata         0x0001599c        0x4 ../lab4_software_bsp/\libhal_bsp.a(alt_sbrk.o)
 .sdata         0x000159a0        0x8 ../lab4_software_bsp/\libhal_bsp.a(alt_tick.o)
                0x000159a0                alt_alarm_list
 *(.sdata2 .sdata2.* .gnu.linkonce.s2.*)
                0x000159a8                . = ALIGN (0x4)
                0x000159a8                _edata = ABSOLUTE (.)
                0x000159a8                PROVIDE (edata, ABSOLUTE (.))
                0x000159a8                PROVIDE (__ram_rwdata_end, ABSOLUTE (.))
                0x000159a8                PROVIDE (__flash_rwdata_start, LOADADDR (.rwdata))

.bss            0x000178d4   0x7a1580
                0x000178d4                __bss_start = ABSOLUTE (.)
                0x000178d4                PROVIDE (__sbss_start, ABSOLUTE (.))
                0x000178d4                PROVIDE (___sbss_start, ABSOLUTE (.))
 *(.dynsbss)
 *(.sbss .sbss.* .gnu.linkonce.sb.*)
 .sbss          0x000178d4        0x4 obj/default/PS2_ISR.o
                0x000178d4                count
 .sbss          0x000178d8        0x4 obj/default/PS2_ISR.o
                0x000178d8                flag
 .sbss          0x000178dc        0x4 obj/default/audio_ISR.o
                0x000178dc                k
 .sbss          0x000178e0       0x14 obj/default/globals.o
                0x000178e0                byte2
                0x000178e1                byte3
                0x000178e2                copy_byte3
                0x000178e3                byte1
                0x000178e4                copy_byte1
                0x000178e5                copy_byte2
                0x000178e8                timeout
                0x000178ec                buf_index_play
                0x000178f0                buf_index_record
 .sbss          0x000178f4       0x4c obj/default/media_interrupt_HAL.o
                0x000178f4                flag_plot
                0x000178f8                echo
                0x000178fc                mouse_width
                0x00017900                prev_y_mouse
                0x00017904                y_mouse
                0x00017908                flag_denoise
                0x0001790c                prev_y_mouse_front
                0x00017910                prev_y_mouse_back
                0x00017914                max_y_mouse
                0x00017918                prev_x_mouse
                0x0001791c                max_x_mouse
                0x00017920                flag_play
                0x00017924                right_button_click
                0x00017928                left_button_click
                0x0001792c                prev_x_mouse_back
                0x00017930                pixel_buffer_dev
                0x00017934                x_mouse
                0x00017938                middle_button_click
                0x0001793c                prev_x_mouse_front
 .sbss          0x00017940        0xc d:/fpga/nios2eds/bin/gnu/h-i686-mingw32/bin/../lib/gcc/nios2-elf/4.1.2/../../../../nios2-elf/lib\libc.a(lib_a-locale.o)
                0x00017940                __nlocale_changed
                0x00017944                __mlocale_changed
                0x00017948                _PathLocale
 .sbss          0x0001794c        0xc d:/fpga/nios2eds/bin/gnu/h-i686-mingw32/bin/../lib/gcc/nios2-elf/4.1.2/../../../../nios2-elf/lib\libc.a(lib_a-mallocr.o)
                0x0001794c                __malloc_top_pad
                0x00017950                __malloc_max_sbrked_mem
                0x00017954                __malloc_max_total_mem
 .sbss          0x00017958        0x4 d:/fpga/nios2eds/bin/gnu/h-i686-mingw32/bin/../lib/gcc/nios2-elf/4.1.2/../../../../nios2-elf/lib\libc.a(lib_a-int_errno.o)
                0x00017958                errno
 .sbss          0x0001795c        0x4 ../lab4_software_bsp/\libhal_bsp.a(alt_irq_vars.o)
                0x0001795c                alt_irq_active
 .sbss          0x00017960        0xc ../lab4_software_bsp/\libhal_bsp.a(alt_main.o)
                0x00017960                alt_argc
                0x00017964                alt_argv
                0x00017968                alt_envp
 .sbss          0x0001796c        0x8 ../lab4_software_bsp/\libhal_bsp.a(altera_avalon_timer_vars.o)
                0x0001796c                altera_avalon_timer_ts_base
                0x00017970                altera_avalon_timer_ts_freq
 .sbss          0x00017974        0x8 ../lab4_software_bsp/\libhal_bsp.a(alt_tick.o)
                0x00017974                _alt_tick_rate
                0x00017978                _alt_nticks
 *(.sbss2 .sbss2.* .gnu.linkonce.sb2.*)
 *(.scommon)
                0x0001797c                PROVIDE (__sbss_end, ABSOLUTE (.))
                0x0001797c                PROVIDE (___sbss_end, ABSOLUTE (.))
 *(.dynbss)
 *(.bss .bss.* .gnu.linkonce.b.*)
 .bss           0x0001797c        0x0 ../lab4_software_bsp//obj/HAL/src/crt0.o
 .bss           0x0001797c        0x0 obj/default/PS2_ISR.o
 .bss           0x0001797c        0x0 obj/default/audio_ISR.o
 .bss           0x0001797c        0x0 obj/default/globals.o
 .bss           0x0001797c        0x0 obj/default/interval_timer_ISR.o
 .bss           0x0001797c        0x0 obj/default/media_interrupt_HAL.o
 .bss           0x0001797c        0x0 obj/default/pushbutton_ISR.o
 .bss           0x0001797c        0x0 d:/fpga/nios2eds/bin/gnu/h-i686-mingw32/bin/../lib/gcc/nios2-elf/4.1.2\libgcc.a(_si_to_sf.o)
 .bss           0x0001797c        0x0 d:/fpga/nios2eds/bin/gnu/h-i686-mingw32/bin/../lib/gcc/nios2-elf/4.1.2\libgcc.a(_sf_to_si.o)
 .bss           0x0001797c        0x0 d:/fpga/nios2eds/bin/gnu/h-i686-mingw32/bin/../lib/gcc/nios2-elf/4.1.2\libgcc.a(_sf_to_df.o)
 .bss           0x0001797c        0x0 d:/fpga/nios2eds/bin/gnu/h-i686-mingw32/bin/../lib/gcc/nios2-elf/4.1.2\libgcc.a(_usi_to_sf.o)
 .bss           0x0001797c        0x0 d:/fpga/nios2eds/bin/gnu/h-i686-mingw32/bin/../lib/gcc/nios2-elf/4.1.2\libgcc.a(_make_df.o)
 .bss           0x0001797c        0x0 d:/fpga/nios2eds/bin/gnu/h-i686-mingw32/bin/../lib/gcc/nios2-elf/4.1.2\libgcc.a(_clzsi2.o)
 .bss           0x0001797c        0x0 d:/fpga/nios2eds/bin/gnu/h-i686-mingw32/bin/../lib/gcc/nios2-elf/4.1.2\libgcc.a(_pack_sf.o)
 .bss           0x0001797c        0x0 d:/fpga/nios2eds/bin/gnu/h-i686-mingw32/bin/../lib/gcc/nios2-elf/4.1.2\libgcc.a(_unpack_sf.o)
 .bss           0x0001797c        0x0 d:/fpga/nios2eds/bin/gnu/h-i686-mingw32/bin/../lib/gcc/nios2-elf/4.1.2\libgcc.a(_pack_df.o)
 .bss           0x0001797c        0x0 d:/fpga/nios2eds/bin/gnu/h-i686-mingw32/bin/../lib/gcc/nios2-elf/4.1.2\libgcc.a(_clz.o)
 .bss           0x0001797c        0x0 d:/fpga/nios2eds/bin/gnu/h-i686-mingw32/bin/../lib/gcc/nios2-elf/4.1.2/../../../../nios2-elf/lib\libc.a(lib_a-memcpy.o)
 .bss           0x0001797c        0x0 d:/fpga/nios2eds/bin/gnu/h-i686-mingw32/bin/../lib/gcc/nios2-elf/4.1.2/../../../../nios2-elf/lib\libc.a(lib_a-memset.o)
 .bss           0x0001797c        0x0 d:/fpga/nios2eds/bin/gnu/h-i686-mingw32/bin/../lib/gcc/nios2-elf/4.1.2/../../../../nios2-elf/lib\libc.a(lib_a-printf.o)
 .bss           0x0001797c        0x0 d:/fpga/nios2eds/bin/gnu/h-i686-mingw32/bin/../lib/gcc/nios2-elf/4.1.2/../../../../nios2-elf/lib\libc.a(lib_a-vfprintf.o)
 .bss           0x0001797c        0x0 d:/fpga/nios2eds/bin/gnu/h-i686-mingw32/bin/../lib/gcc/nios2-elf/4.1.2/../../../../nios2-elf/lib\libc.a(lib_a-wsetup.o)
 .bss           0x0001797c        0x0 d:/fpga/nios2eds/bin/gnu/h-i686-mingw32/bin/../lib/gcc/nios2-elf/4.1.2/../../../../nios2-elf/lib\libc.a(lib_a-dtoa.o)
 .bss           0x0001797c        0x0 d:/fpga/nios2eds/bin/gnu/h-i686-mingw32/bin/../lib/gcc/nios2-elf/4.1.2/../../../../nios2-elf/lib\libc.a(lib_a-fflush.o)
 .bss           0x0001797c        0x0 d:/fpga/nios2eds/bin/gnu/h-i686-mingw32/bin/../lib/gcc/nios2-elf/4.1.2/../../../../nios2-elf/lib\libc.a(lib_a-findfp.o)
 .bss           0x0001797c        0x0 d:/fpga/nios2eds/bin/gnu/h-i686-mingw32/bin/../lib/gcc/nios2-elf/4.1.2/../../../../nios2-elf/lib\libc.a(lib_a-freer.o)
 .bss           0x0001797c        0x0 d:/fpga/nios2eds/bin/gnu/h-i686-mingw32/bin/../lib/gcc/nios2-elf/4.1.2/../../../../nios2-elf/lib\libc.a(lib_a-fvwrite.o)
 .bss           0x0001797c        0x0 d:/fpga/nios2eds/bin/gnu/h-i686-mingw32/bin/../lib/gcc/nios2-elf/4.1.2/../../../../nios2-elf/lib\libc.a(lib_a-fwalk.o)
 .bss           0x0001797c        0x0 d:/fpga/nios2eds/bin/gnu/h-i686-mingw32/bin/../lib/gcc/nios2-elf/4.1.2/../../../../nios2-elf/lib\libc.a(lib_a-impure.o)
 .bss           0x0001797c        0x0 d:/fpga/nios2eds/bin/gnu/h-i686-mingw32/bin/../lib/gcc/nios2-elf/4.1.2/../../../../nios2-elf/lib\libc.a(lib_a-locale.o)
 .bss           0x0001797c        0x0 d:/fpga/nios2eds/bin/gnu/h-i686-mingw32/bin/../lib/gcc/nios2-elf/4.1.2/../../../../nios2-elf/lib\libc.a(lib_a-makebuf.o)
 .bss           0x0001797c       0x28 d:/fpga/nios2eds/bin/gnu/h-i686-mingw32/bin/../lib/gcc/nios2-elf/4.1.2/../../../../nios2-elf/lib\libc.a(lib_a-mallocr.o)
                0x0001797c                __malloc_current_mallinfo
 .bss           0x000179a4        0x0 d:/fpga/nios2eds/bin/gnu/h-i686-mingw32/bin/../lib/gcc/nios2-elf/4.1.2/../../../../nios2-elf/lib\libc.a(lib_a-memchr.o)
 .bss           0x000179a4        0x0 d:/fpga/nios2eds/bin/gnu/h-i686-mingw32/bin/../lib/gcc/nios2-elf/4.1.2/../../../../nios2-elf/lib\libc.a(lib_a-memmove.o)
 .bss           0x000179a4        0x0 d:/fpga/nios2eds/bin/gnu/h-i686-mingw32/bin/../lib/gcc/nios2-elf/4.1.2/../../../../nios2-elf/lib\libc.a(lib_a-mprec.o)
 .bss           0x000179a4        0x0 d:/fpga/nios2eds/bin/gnu/h-i686-mingw32/bin/../lib/gcc/nios2-elf/4.1.2/../../../../nios2-elf/lib\libc.a(lib_a-reallocr.o)
 .bss           0x000179a4        0x0 d:/fpga/nios2eds/bin/gnu/h-i686-mingw32/bin/../lib/gcc/nios2-elf/4.1.2/../../../../nios2-elf/lib\libc.a(lib_a-s_isinfd.o)
 .bss           0x000179a4        0x0 d:/fpga/nios2eds/bin/gnu/h-i686-mingw32/bin/../lib/gcc/nios2-elf/4.1.2/../../../../nios2-elf/lib\libc.a(lib_a-s_isnand.o)
 .bss           0x000179a4        0x0 d:/fpga/nios2eds/bin/gnu/h-i686-mingw32/bin/../lib/gcc/nios2-elf/4.1.2/../../../../nios2-elf/lib\libc.a(lib_a-sbrkr.o)
 .bss           0x000179a4        0x0 d:/fpga/nios2eds/bin/gnu/h-i686-mingw32/bin/../lib/gcc/nios2-elf/4.1.2/../../../../nios2-elf/lib\libc.a(lib_a-stdio.o)
 .bss           0x000179a4        0x0 d:/fpga/nios2eds/bin/gnu/h-i686-mingw32/bin/../lib/gcc/nios2-elf/4.1.2/../../../../nios2-elf/lib\libc.a(lib_a-strcmp.o)
 .bss           0x000179a4        0x0 d:/fpga/nios2eds/bin/gnu/h-i686-mingw32/bin/../lib/gcc/nios2-elf/4.1.2/../../../../nios2-elf/lib\libc.a(lib_a-strlen.o)
 .bss           0x000179a4        0x0 d:/fpga/nios2eds/bin/gnu/h-i686-mingw32/bin/../lib/gcc/nios2-elf/4.1.2/../../../../nios2-elf/lib\libc.a(lib_a-writer.o)
 .bss           0x000179a4        0x0 d:/fpga/nios2eds/bin/gnu/h-i686-mingw32/bin/../lib/gcc/nios2-elf/4.1.2/../../../../nios2-elf/lib\libc.a(lib_a-callocr.o)
 .bss           0x000179a4        0x0 d:/fpga/nios2eds/bin/gnu/h-i686-mingw32/bin/../lib/gcc/nios2-elf/4.1.2/../../../../nios2-elf/lib\libc.a(lib_a-closer.o)
 .bss           0x000179a4        0x0 d:/fpga/nios2eds/bin/gnu/h-i686-mingw32/bin/../lib/gcc/nios2-elf/4.1.2/../../../../nios2-elf/lib\libc.a(lib_a-fclose.o)
 .bss           0x000179a4        0x0 d:/fpga/nios2eds/bin/gnu/h-i686-mingw32/bin/../lib/gcc/nios2-elf/4.1.2/../../../../nios2-elf/lib\libc.a(lib_a-fstatr.o)
 .bss           0x000179a4        0x0 d:/fpga/nios2eds/bin/gnu/h-i686-mingw32/bin/../lib/gcc/nios2-elf/4.1.2/../../../../nios2-elf/lib\libc.a(lib_a-int_errno.o)
 .bss           0x000179a4        0x0 d:/fpga/nios2eds/bin/gnu/h-i686-mingw32/bin/../lib/gcc/nios2-elf/4.1.2/../../../../nios2-elf/lib\libc.a(lib_a-isattyr.o)
 .bss           0x000179a4        0x0 d:/fpga/nios2eds/bin/gnu/h-i686-mingw32/bin/../lib/gcc/nios2-elf/4.1.2/../../../../nios2-elf/lib\libc.a(lib_a-lseekr.o)
 .bss           0x000179a4        0x0 d:/fpga/nios2eds/bin/gnu/h-i686-mingw32/bin/../lib/gcc/nios2-elf/4.1.2/../../../../nios2-elf/lib\libc.a(lib_a-readr.o)
 .bss           0x000179a4        0x0 d:/fpga/nios2eds/bin/gnu/h-i686-mingw32/bin/../lib/gcc/nios2-elf/4.1.2\libgcc.a(_udivdi3.o)
 .bss           0x000179a4        0x0 d:/fpga/nios2eds/bin/gnu/h-i686-mingw32/bin/../lib/gcc/nios2-elf/4.1.2\libgcc.a(_umoddi3.o)
 .bss           0x000179a4        0x0 d:/fpga/nios2eds/bin/gnu/h-i686-mingw32/bin/../lib/gcc/nios2-elf/4.1.2\libgcc.a(_addsub_df.o)
 .bss           0x000179a4        0x0 d:/fpga/nios2eds/bin/gnu/h-i686-mingw32/bin/../lib/gcc/nios2-elf/4.1.2\libgcc.a(_mul_df.o)
 .bss           0x000179a4        0x0 d:/fpga/nios2eds/bin/gnu/h-i686-mingw32/bin/../lib/gcc/nios2-elf/4.1.2\libgcc.a(_div_df.o)
 .bss           0x000179a4        0x0 d:/fpga/nios2eds/bin/gnu/h-i686-mingw32/bin/../lib/gcc/nios2-elf/4.1.2\libgcc.a(_eq_df.o)
 .bss           0x000179a4        0x0 d:/fpga/nios2eds/bin/gnu/h-i686-mingw32/bin/../lib/gcc/nios2-elf/4.1.2\libgcc.a(_ne_df.o)
 .bss           0x000179a4        0x0 d:/fpga/nios2eds/bin/gnu/h-i686-mingw32/bin/../lib/gcc/nios2-elf/4.1.2\libgcc.a(_gt_df.o)
 .bss           0x000179a4        0x0 d:/fpga/nios2eds/bin/gnu/h-i686-mingw32/bin/../lib/gcc/nios2-elf/4.1.2\libgcc.a(_ge_df.o)
 .bss           0x000179a4        0x0 d:/fpga/nios2eds/bin/gnu/h-i686-mingw32/bin/../lib/gcc/nios2-elf/4.1.2\libgcc.a(_lt_df.o)
 .bss           0x000179a4        0x0 d:/fpga/nios2eds/bin/gnu/h-i686-mingw32/bin/../lib/gcc/nios2-elf/4.1.2\libgcc.a(_si_to_df.o)
 .bss           0x000179a4        0x0 d:/fpga/nios2eds/bin/gnu/h-i686-mingw32/bin/../lib/gcc/nios2-elf/4.1.2\libgcc.a(_df_to_si.o)
 .bss           0x000179a4        0x0 d:/fpga/nios2eds/bin/gnu/h-i686-mingw32/bin/../lib/gcc/nios2-elf/4.1.2\libgcc.a(_thenan_df.o)
 .bss           0x000179a4        0x0 d:/fpga/nios2eds/bin/gnu/h-i686-mingw32/bin/../lib/gcc/nios2-elf/4.1.2\libgcc.a(_usi_to_df.o)
 .bss           0x000179a4        0x0 d:/fpga/nios2eds/bin/gnu/h-i686-mingw32/bin/../lib/gcc/nios2-elf/4.1.2\libgcc.a(lib2-divmod.o)
 .bss           0x000179a4        0x0 d:/fpga/nios2eds/bin/gnu/h-i686-mingw32/bin/../lib/gcc/nios2-elf/4.1.2\libgcc.a(_muldi3.o)
 .bss           0x000179a4        0x0 d:/fpga/nios2eds/bin/gnu/h-i686-mingw32/bin/../lib/gcc/nios2-elf/4.1.2\libgcc.a(_unpack_df.o)
 .bss           0x000179a4        0x0 d:/fpga/nios2eds/bin/gnu/h-i686-mingw32/bin/../lib/gcc/nios2-elf/4.1.2\libgcc.a(_fpcmp_parts_df.o)
 .bss           0x000179a4        0x0 ../lab4_software_bsp/\libhal_bsp.a(alt_close.o)
 .bss           0x000179a4        0x0 ../lab4_software_bsp/\libhal_bsp.a(alt_dev.o)
 .bss           0x000179a4        0x0 ../lab4_software_bsp/\libhal_bsp.a(alt_errno.o)
 .bss           0x000179a4        0x0 ../lab4_software_bsp/\libhal_bsp.a(alt_fstat.o)
 .bss           0x000179a4        0x0 ../lab4_software_bsp/\libhal_bsp.a(alt_irq_register.o)
 .bss           0x000179a4        0x0 ../lab4_software_bsp/\libhal_bsp.a(alt_irq_vars.o)
 .bss           0x000179a4        0x0 ../lab4_software_bsp/\libhal_bsp.a(alt_isatty.o)
 .bss           0x000179a4        0x0 ../lab4_software_bsp/\libhal_bsp.a(alt_load.o)
 .bss           0x000179a4        0x0 ../lab4_software_bsp/\libhal_bsp.a(alt_lseek.o)
 .bss           0x000179a4        0x0 ../lab4_software_bsp/\libhal_bsp.a(alt_main.o)
 .bss           0x000179a4        0x0 ../lab4_software_bsp/\libhal_bsp.a(alt_malloc_lock.o)
 .bss           0x000179a4        0x0 ../lab4_software_bsp/\libhal_bsp.a(alt_printf.o)
 .bss           0x000179a4        0x0 ../lab4_software_bsp/\libhal_bsp.a(alt_putchar.o)
 .bss           0x000179a4        0x0 ../lab4_software_bsp/\libhal_bsp.a(alt_read.o)
 .bss           0x000179a4        0x0 ../lab4_software_bsp/\libhal_bsp.a(alt_release_fd.o)
 .bss           0x000179a4        0x0 ../lab4_software_bsp/\libhal_bsp.a(alt_sbrk.o)
 .bss           0x000179a4        0x0 ../lab4_software_bsp/\libhal_bsp.a(alt_write.o)
 .bss           0x000179a4        0x0 ../lab4_software_bsp/\libhal_bsp.a(alt_sys_init.o)
 .bss           0x000179a4        0x0 ../lab4_software_bsp/\libhal_bsp.a(altera_avalon_jtag_uart_fd.o)
 .bss           0x000179a4        0x0 ../lab4_software_bsp/\libhal_bsp.a(altera_avalon_jtag_uart_init.o)
 .bss           0x000179a4        0x0 ../lab4_software_bsp/\libhal_bsp.a(altera_avalon_jtag_uart_ioctl.o)
 .bss           0x000179a4        0x0 ../lab4_software_bsp/\libhal_bsp.a(altera_avalon_jtag_uart_read.o)
 .bss           0x000179a4        0x0 ../lab4_software_bsp/\libhal_bsp.a(altera_avalon_jtag_uart_write.o)
 .bss           0x000179a4        0x0 ../lab4_software_bsp/\libhal_bsp.a(altera_avalon_timer_ts.o)
 .bss           0x000179a4        0x0 ../lab4_software_bsp/\libhal_bsp.a(altera_avalon_timer_vars.o)
 .bss           0x000179a4        0x0 ../lab4_software_bsp/\libhal_bsp.a(altera_up_avalon_audio.o)
 .bss           0x000179a4        0x0 ../lab4_software_bsp/\libhal_bsp.a(altera_up_avalon_character_lcd.o)
 .bss           0x000179a4        0x0 ../lab4_software_bsp/\libhal_bsp.a(altera_up_avalon_ethernet.o)
 .bss           0x000179a4        0x0 ../lab4_software_bsp/\libhal_bsp.a(altera_up_avalon_ethernet_low_level_driver.o)
 .bss           0x000179a4        0x0 ../lab4_software_bsp/\libhal_bsp.a(altera_up_avalon_irda.o)
 .bss           0x000179a4        0x0 ../lab4_software_bsp/\libhal_bsp.a(altera_up_avalon_parallel_port.o)
 .bss           0x000179a4        0x0 ../lab4_software_bsp/\libhal_bsp.a(altera_up_avalon_ps2.o)
 .bss           0x000179a4        0x0 ../lab4_software_bsp/\libhal_bsp.a(altera_up_avalon_rs232.o)
 .bss           0x000179a4        0x0 ../lab4_software_bsp/\libhal_bsp.a(altera_up_avalon_video_character_buffer_with_dma.o)
 .bss           0x000179a4        0x0 ../lab4_software_bsp/\libhal_bsp.a(altera_up_avalon_video_pixel_buffer_dma.o)
 .bss           0x000179a4        0x0 ../lab4_software_bsp/\libhal_bsp.a(alt_alarm_start.o)
 .bss           0x000179a4        0x0 ../lab4_software_bsp/\libhal_bsp.a(alt_dcache_flush_all.o)
 .bss           0x000179a4        0x0 ../lab4_software_bsp/\libhal_bsp.a(alt_dev_llist_insert.o)
 .bss           0x000179a4        0x0 ../lab4_software_bsp/\libhal_bsp.a(alt_do_ctors.o)
 .bss           0x000179a4        0x0 ../lab4_software_bsp/\libhal_bsp.a(alt_do_dtors.o)
 .bss           0x000179a4        0x0 ../lab4_software_bsp/\libhal_bsp.a(alt_find_dev.o)
 .bss           0x000179a4        0x0 ../lab4_software_bsp/\libhal_bsp.a(alt_icache_flush_all.o)
 .bss           0x000179a4        0x0 ../lab4_software_bsp/\libhal_bsp.a(alt_io_redirect.o)
 .bss           0x000179a4        0x0 ../lab4_software_bsp/\libhal_bsp.a(alt_irq_entry.o)
 .bss           0x000179a4        0x0 ../lab4_software_bsp/\libhal_bsp.a(alt_irq_handler.o)
 .bss           0x000179a4        0x0 ../lab4_software_bsp/\libhal_bsp.a(alt_open.o)
 .bss           0x000179a4        0x0 ../lab4_software_bsp/\libhal_bsp.a(alt_tick.o)
 .bss           0x000179a4        0x0 ../lab4_software_bsp/\libhal_bsp.a(alt_usleep.o)
 .bss           0x000179a4        0x0 ../lab4_software_bsp/\libhal_bsp.a(altera_nios2_qsys_irq.o)
 .bss           0x000179a4        0x0 ../lab4_software_bsp/\libhal_bsp.a(alt_busy_sleep.o)
 .bss           0x000179a4        0x0 ../lab4_software_bsp/\libhal_bsp.a(alt_exception_entry.o)
 .bss           0x000179a4        0x0 ../lab4_software_bsp/\libhal_bsp.a(alt_find_file.o)
 .bss           0x000179a4        0x0 ../lab4_software_bsp/\libhal_bsp.a(alt_get_fd.o)
 .bss           0x000179a4        0x0 ../lab4_software_bsp/\libhal_bsp.a(alt_icache_flush.o)
 .bss           0x000179a4        0x0 d:/fpga/nios2eds/bin/gnu/h-i686-mingw32/bin/../lib/gcc/nios2-elf/4.1.2/../../../../nios2-elf/lib\libc.a(lib_a-atexit.o)
 .bss           0x000179a4        0x0 d:/fpga/nios2eds/bin/gnu/h-i686-mingw32/bin/../lib/gcc/nios2-elf/4.1.2/../../../../nios2-elf/lib\libc.a(lib_a-exit.o)
 .bss           0x000179a4        0x0 d:/fpga/nios2eds/bin/gnu/h-i686-mingw32/bin/../lib/gcc/nios2-elf/4.1.2/../../../../nios2-elf/lib\libc.a(lib_a-memcmp.o)
 .bss           0x000179a4        0x0 d:/fpga/nios2eds/bin/gnu/h-i686-mingw32/bin/../lib/gcc/nios2-elf/4.1.2/../../../../nios2-elf/lib\libc.a(lib_a-putc.o)
 .bss           0x000179a4        0x0 d:/fpga/nios2eds/bin/gnu/h-i686-mingw32/bin/../lib/gcc/nios2-elf/4.1.2/../../../../nios2-elf/lib\libc.a(lib_a-wbuf.o)
 .bss           0x000179a4        0x0 d:/fpga/nios2eds/bin/gnu/h-i686-mingw32/bin/../lib/gcc/nios2-elf/4.1.2/../../../../nios2-elf/lib\libc.a(lib_a-__atexit.o)
 .bss           0x000179a4        0x0 d:/fpga/nios2eds/bin/gnu/h-i686-mingw32/bin/../lib/gcc/nios2-elf/4.1.2/../../../../nios2-elf/lib\libc.a(lib_a-__call_atexit.o)
 .bss           0x000179a4        0x0 ../lab4_software_bsp/\libhal_bsp.a(alt_exit.o)
 *(COMMON)
 COMMON         0x000179a4   0x7a1200 obj/default/audio_ISR.o
                0x000179a4                record_l_buf
                0x001ffe24                play_l_buf
                0x003e82a4                record_r_buf
                0x005d0724                play_r_buf
 COMMON         0x007b8ba4       0x20 obj/default/globals.o
                0x007b8ba4                up_dev
 COMMON         0x007b8bc4      0x100 ../lab4_software_bsp/\libhal_bsp.a(alt_irq_handler.o)
                0x007b8bc4                alt_irq
 COMMON         0x007b8cc4      0x190 d:/fpga/nios2eds/bin/gnu/h-i686-mingw32/bin/../lib/gcc/nios2-elf/4.1.2/../../../../nios2-elf/lib\libc.a(lib_a-atexit.o)
                0x007b8cc4                _atexit0
                0x007b8e54                . = ALIGN (0x4)
                0x007b8e54                __bss_end = ABSOLUTE (.)

.SDRAM          0x007b8e54        0x0
                0x007b8e54                PROVIDE (_alt_partition_SDRAM_start, ABSOLUTE (.))
 *(.SDRAM. SDRAM.*)
                0x007b8e54                . = ALIGN (0x4)
                0x007b8e54                PROVIDE (_alt_partition_SDRAM_end, ABSOLUTE (.))
                0x007b8e54                _end = ABSOLUTE (.)
                0x007b8e54                end = ABSOLUTE (.)
                0x007b8e54                __alt_stack_base = ABSOLUTE (.)
                0x007b8e54                PROVIDE (_alt_partition_SDRAM_load_addr, LOADADDR (.SDRAM))

.Flash_flash_data
                0x0c000000        0x0 load address 0x007b8e54
                0x0c000000                PROVIDE (_alt_partition_Flash_flash_data_start, ABSOLUTE (.))
 *(.Flash_flash_data. Flash_flash_data.*)
                0x0c000000                . = ALIGN (0x4)
                0x0c000000                PROVIDE (_alt_partition_Flash_flash_data_end, ABSOLUTE (.))
                0x007b8e54                PROVIDE (_alt_partition_Flash_flash_data_load_addr, LOADADDR (.Flash_flash_data))

.stab
 *(.stab)

.stabstr
 *(.stabstr)

.stab.excl
 *(.stab.excl)

.stab.exclstr
 *(.stab.exclstr)

.stab.index
 *(.stab.index)

.stab.indexstr
 *(.stab.indexstr)

.comment        0x00000000       0x26
 *(.comment)
 .comment       0x00000000       0x26 obj/default/PS2_ISR.o
                                 0x27 (size before relaxing)
 .comment       0x00000000       0x27 obj/default/audio_ISR.o
 .comment       0x00000000       0x27 obj/default/globals.o
 .comment       0x00000000       0x27 obj/default/interval_timer_ISR.o
 .comment       0x00000000       0x27 obj/default/media_interrupt_HAL.o
 .comment       0x00000000       0x27 obj/default/pushbutton_ISR.o
 .comment       0x00000000       0x27 d:/fpga/nios2eds/bin/gnu/h-i686-mingw32/bin/../lib/gcc/nios2-elf/4.1.2\libgcc.a(_si_to_sf.o)
 .comment       0x00000000       0x27 d:/fpga/nios2eds/bin/gnu/h-i686-mingw32/bin/../lib/gcc/nios2-elf/4.1.2\libgcc.a(_sf_to_si.o)
 .comment       0x00000000       0x27 d:/fpga/nios2eds/bin/gnu/h-i686-mingw32/bin/../lib/gcc/nios2-elf/4.1.2\libgcc.a(_sf_to_df.o)
 .comment       0x00000000       0x27 d:/fpga/nios2eds/bin/gnu/h-i686-mingw32/bin/../lib/gcc/nios2-elf/4.1.2\libgcc.a(_usi_to_sf.o)
 .comment       0x00000000       0x27 d:/fpga/nios2eds/bin/gnu/h-i686-mingw32/bin/../lib/gcc/nios2-elf/4.1.2\libgcc.a(_make_df.o)
 .comment       0x00000000       0x27 d:/fpga/nios2eds/bin/gnu/h-i686-mingw32/bin/../lib/gcc/nios2-elf/4.1.2\libgcc.a(_clzsi2.o)
 .comment       0x00000000       0x27 d:/fpga/nios2eds/bin/gnu/h-i686-mingw32/bin/../lib/gcc/nios2-elf/4.1.2\libgcc.a(_pack_sf.o)
 .comment       0x00000000       0x27 d:/fpga/nios2eds/bin/gnu/h-i686-mingw32/bin/../lib/gcc/nios2-elf/4.1.2\libgcc.a(_unpack_sf.o)
 .comment       0x00000000       0x27 d:/fpga/nios2eds/bin/gnu/h-i686-mingw32/bin/../lib/gcc/nios2-elf/4.1.2\libgcc.a(_pack_df.o)
 .comment       0x00000000       0x27 d:/fpga/nios2eds/bin/gnu/h-i686-mingw32/bin/../lib/gcc/nios2-elf/4.1.2\libgcc.a(_clz.o)
 .comment       0x00000000       0x27 d:/fpga/nios2eds/bin/gnu/h-i686-mingw32/bin/../lib/gcc/nios2-elf/4.1.2/../../../../nios2-elf/lib\libc.a(lib_a-memcpy.o)
 .comment       0x00000000       0x27 d:/fpga/nios2eds/bin/gnu/h-i686-mingw32/bin/../lib/gcc/nios2-elf/4.1.2/../../../../nios2-elf/lib\libc.a(lib_a-memset.o)
 .comment       0x00000000       0x27 d:/fpga/nios2eds/bin/gnu/h-i686-mingw32/bin/../lib/gcc/nios2-elf/4.1.2/../../../../nios2-elf/lib\libc.a(lib_a-printf.o)
 .comment       0x00000000       0x27 d:/fpga/nios2eds/bin/gnu/h-i686-mingw32/bin/../lib/gcc/nios2-elf/4.1.2/../../../../nios2-elf/lib\libc.a(lib_a-vfprintf.o)
 .comment       0x00000000       0x27 d:/fpga/nios2eds/bin/gnu/h-i686-mingw32/bin/../lib/gcc/nios2-elf/4.1.2/../../../../nios2-elf/lib\libc.a(lib_a-wsetup.o)
 .comment       0x00000000       0x27 d:/fpga/nios2eds/bin/gnu/h-i686-mingw32/bin/../lib/gcc/nios2-elf/4.1.2/../../../../nios2-elf/lib\libc.a(lib_a-dtoa.o)
 .comment       0x00000000       0x27 d:/fpga/nios2eds/bin/gnu/h-i686-mingw32/bin/../lib/gcc/nios2-elf/4.1.2/../../../../nios2-elf/lib\libc.a(lib_a-fflush.o)
 .comment       0x00000000       0x27 d:/fpga/nios2eds/bin/gnu/h-i686-mingw32/bin/../lib/gcc/nios2-elf/4.1.2/../../../../nios2-elf/lib\libc.a(lib_a-findfp.o)
 .comment       0x00000000       0x27 d:/fpga/nios2eds/bin/gnu/h-i686-mingw32/bin/../lib/gcc/nios2-elf/4.1.2/../../../../nios2-elf/lib\libc.a(lib_a-freer.o)
 .comment       0x00000000       0x27 d:/fpga/nios2eds/bin/gnu/h-i686-mingw32/bin/../lib/gcc/nios2-elf/4.1.2/../../../../nios2-elf/lib\libc.a(lib_a-fvwrite.o)
 .comment       0x00000000       0x27 d:/fpga/nios2eds/bin/gnu/h-i686-mingw32/bin/../lib/gcc/nios2-elf/4.1.2/../../../../nios2-elf/lib\libc.a(lib_a-fwalk.o)
 .comment       0x00000000       0x27 d:/fpga/nios2eds/bin/gnu/h-i686-mingw32/bin/../lib/gcc/nios2-elf/4.1.2/../../../../nios2-elf/lib\libc.a(lib_a-impure.o)
 .comment       0x00000000       0x27 d:/fpga/nios2eds/bin/gnu/h-i686-mingw32/bin/../lib/gcc/nios2-elf/4.1.2/../../../../nios2-elf/lib\libc.a(lib_a-locale.o)
 .comment       0x00000000       0x27 d:/fpga/nios2eds/bin/gnu/h-i686-mingw32/bin/../lib/gcc/nios2-elf/4.1.2/../../../../nios2-elf/lib\libc.a(lib_a-makebuf.o)
 .comment       0x00000000       0x27 d:/fpga/nios2eds/bin/gnu/h-i686-mingw32/bin/../lib/gcc/nios2-elf/4.1.2/../../../../nios2-elf/lib\libc.a(lib_a-mallocr.o)
 .comment       0x00000000       0x27 d:/fpga/nios2eds/bin/gnu/h-i686-mingw32/bin/../lib/gcc/nios2-elf/4.1.2/../../../../nios2-elf/lib\libc.a(lib_a-memchr.o)
 .comment       0x00000000       0x27 d:/fpga/nios2eds/bin/gnu/h-i686-mingw32/bin/../lib/gcc/nios2-elf/4.1.2/../../../../nios2-elf/lib\libc.a(lib_a-memmove.o)
 .comment       0x00000000       0x27 d:/fpga/nios2eds/bin/gnu/h-i686-mingw32/bin/../lib/gcc/nios2-elf/4.1.2/../../../../nios2-elf/lib\libc.a(lib_a-mprec.o)
 .comment       0x00000000       0x27 d:/fpga/nios2eds/bin/gnu/h-i686-mingw32/bin/../lib/gcc/nios2-elf/4.1.2/../../../../nios2-elf/lib\libc.a(lib_a-reallocr.o)
 .comment       0x00000000       0x27 d:/fpga/nios2eds/bin/gnu/h-i686-mingw32/bin/../lib/gcc/nios2-elf/4.1.2/../../../../nios2-elf/lib\libc.a(lib_a-s_isinfd.o)
 .comment       0x00000000       0x27 d:/fpga/nios2eds/bin/gnu/h-i686-mingw32/bin/../lib/gcc/nios2-elf/4.1.2/../../../../nios2-elf/lib\libc.a(lib_a-s_isnand.o)
 .comment       0x00000000       0x27 d:/fpga/nios2eds/bin/gnu/h-i686-mingw32/bin/../lib/gcc/nios2-elf/4.1.2/../../../../nios2-elf/lib\libc.a(lib_a-sbrkr.o)
 .comment       0x00000000       0x27 d:/fpga/nios2eds/bin/gnu/h-i686-mingw32/bin/../lib/gcc/nios2-elf/4.1.2/../../../../nios2-elf/lib\libc.a(lib_a-stdio.o)
 .comment       0x00000000       0x27 d:/fpga/nios2eds/bin/gnu/h-i686-mingw32/bin/../lib/gcc/nios2-elf/4.1.2/../../../../nios2-elf/lib\libc.a(lib_a-strcmp.o)
 .comment       0x00000000       0x27 d:/fpga/nios2eds/bin/gnu/h-i686-mingw32/bin/../lib/gcc/nios2-elf/4.1.2/../../../../nios2-elf/lib\libc.a(lib_a-strlen.o)
 .comment       0x00000000       0x27 d:/fpga/nios2eds/bin/gnu/h-i686-mingw32/bin/../lib/gcc/nios2-elf/4.1.2/../../../../nios2-elf/lib\libc.a(lib_a-writer.o)
 .comment       0x00000000       0x27 d:/fpga/nios2eds/bin/gnu/h-i686-mingw32/bin/../lib/gcc/nios2-elf/4.1.2/../../../../nios2-elf/lib\libc.a(lib_a-callocr.o)
 .comment       0x00000000       0x27 d:/fpga/nios2eds/bin/gnu/h-i686-mingw32/bin/../lib/gcc/nios2-elf/4.1.2/../../../../nios2-elf/lib\libc.a(lib_a-closer.o)
 .comment       0x00000000       0x27 d:/fpga/nios2eds/bin/gnu/h-i686-mingw32/bin/../lib/gcc/nios2-elf/4.1.2/../../../../nios2-elf/lib\libc.a(lib_a-fclose.o)
 .comment       0x00000000       0x27 d:/fpga/nios2eds/bin/gnu/h-i686-mingw32/bin/../lib/gcc/nios2-elf/4.1.2/../../../../nios2-elf/lib\libc.a(lib_a-fstatr.o)
 .comment       0x00000000       0x27 d:/fpga/nios2eds/bin/gnu/h-i686-mingw32/bin/../lib/gcc/nios2-elf/4.1.2/../../../../nios2-elf/lib\libc.a(lib_a-int_errno.o)
 .comment       0x00000000       0x27 d:/fpga/nios2eds/bin/gnu/h-i686-mingw32/bin/../lib/gcc/nios2-elf/4.1.2/../../../../nios2-elf/lib\libc.a(lib_a-isattyr.o)
 .comment       0x00000000       0x27 d:/fpga/nios2eds/bin/gnu/h-i686-mingw32/bin/../lib/gcc/nios2-elf/4.1.2/../../../../nios2-elf/lib\libc.a(lib_a-lseekr.o)
 .comment       0x00000000       0x27 d:/fpga/nios2eds/bin/gnu/h-i686-mingw32/bin/../lib/gcc/nios2-elf/4.1.2/../../../../nios2-elf/lib\libc.a(lib_a-readr.o)
 .comment       0x00000000       0x27 d:/fpga/nios2eds/bin/gnu/h-i686-mingw32/bin/../lib/gcc/nios2-elf/4.1.2\libgcc.a(_udivdi3.o)
 .comment       0x00000000       0x27 d:/fpga/nios2eds/bin/gnu/h-i686-mingw32/bin/../lib/gcc/nios2-elf/4.1.2\libgcc.a(_umoddi3.o)
 .comment       0x00000000       0x27 d:/fpga/nios2eds/bin/gnu/h-i686-mingw32/bin/../lib/gcc/nios2-elf/4.1.2\libgcc.a(_addsub_df.o)
 .comment       0x00000000       0x27 d:/fpga/nios2eds/bin/gnu/h-i686-mingw32/bin/../lib/gcc/nios2-elf/4.1.2\libgcc.a(_mul_df.o)
 .comment       0x00000000       0x27 d:/fpga/nios2eds/bin/gnu/h-i686-mingw32/bin/../lib/gcc/nios2-elf/4.1.2\libgcc.a(_div_df.o)
 .comment       0x00000000       0x27 d:/fpga/nios2eds/bin/gnu/h-i686-mingw32/bin/../lib/gcc/nios2-elf/4.1.2\libgcc.a(_eq_df.o)
 .comment       0x00000000       0x27 d:/fpga/nios2eds/bin/gnu/h-i686-mingw32/bin/../lib/gcc/nios2-elf/4.1.2\libgcc.a(_ne_df.o)
 .comment       0x00000000       0x27 d:/fpga/nios2eds/bin/gnu/h-i686-mingw32/bin/../lib/gcc/nios2-elf/4.1.2\libgcc.a(_gt_df.o)
 .comment       0x00000000       0x27 d:/fpga/nios2eds/bin/gnu/h-i686-mingw32/bin/../lib/gcc/nios2-elf/4.1.2\libgcc.a(_ge_df.o)
 .comment       0x00000000       0x27 d:/fpga/nios2eds/bin/gnu/h-i686-mingw32/bin/../lib/gcc/nios2-elf/4.1.2\libgcc.a(_lt_df.o)
 .comment       0x00000000       0x27 d:/fpga/nios2eds/bin/gnu/h-i686-mingw32/bin/../lib/gcc/nios2-elf/4.1.2\libgcc.a(_si_to_df.o)
 .comment       0x00000000       0x27 d:/fpga/nios2eds/bin/gnu/h-i686-mingw32/bin/../lib/gcc/nios2-elf/4.1.2\libgcc.a(_df_to_si.o)
 .comment       0x00000000       0x27 d:/fpga/nios2eds/bin/gnu/h-i686-mingw32/bin/../lib/gcc/nios2-elf/4.1.2\libgcc.a(_thenan_df.o)
 .comment       0x00000000       0x27 d:/fpga/nios2eds/bin/gnu/h-i686-mingw32/bin/../lib/gcc/nios2-elf/4.1.2\libgcc.a(_usi_to_df.o)
 .comment       0x00000000       0x27 d:/fpga/nios2eds/bin/gnu/h-i686-mingw32/bin/../lib/gcc/nios2-elf/4.1.2\libgcc.a(lib2-divmod.o)
 .comment       0x00000000       0x27 d:/fpga/nios2eds/bin/gnu/h-i686-mingw32/bin/../lib/gcc/nios2-elf/4.1.2\libgcc.a(_muldi3.o)
 .comment       0x00000000       0x27 d:/fpga/nios2eds/bin/gnu/h-i686-mingw32/bin/../lib/gcc/nios2-elf/4.1.2\libgcc.a(_unpack_df.o)
 .comment       0x00000000       0x27 d:/fpga/nios2eds/bin/gnu/h-i686-mingw32/bin/../lib/gcc/nios2-elf/4.1.2\libgcc.a(_fpcmp_parts_df.o)
 .comment       0x00000000       0x27 ../lab4_software_bsp/\libhal_bsp.a(alt_close.o)
 .comment       0x00000000       0x27 ../lab4_software_bsp/\libhal_bsp.a(alt_dev.o)
 .comment       0x00000000       0x27 ../lab4_software_bsp/\libhal_bsp.a(alt_errno.o)
 .comment       0x00000000       0x27 ../lab4_software_bsp/\libhal_bsp.a(alt_fstat.o)
 .comment       0x00000000       0x27 ../lab4_software_bsp/\libhal_bsp.a(alt_irq_register.o)
 .comment       0x00000000       0x27 ../lab4_software_bsp/\libhal_bsp.a(alt_irq_vars.o)
 .comment       0x00000000       0x27 ../lab4_software_bsp/\libhal_bsp.a(alt_isatty.o)
 .comment       0x00000000       0x27 ../lab4_software_bsp/\libhal_bsp.a(alt_load.o)
 .comment       0x00000000       0x27 ../lab4_software_bsp/\libhal_bsp.a(alt_lseek.o)
 .comment       0x00000000       0x27 ../lab4_software_bsp/\libhal_bsp.a(alt_main.o)
 .comment       0x00000000       0x27 ../lab4_software_bsp/\libhal_bsp.a(alt_malloc_lock.o)
 .comment       0x00000000       0x27 ../lab4_software_bsp/\libhal_bsp.a(alt_printf.o)
 .comment       0x00000000       0x27 ../lab4_software_bsp/\libhal_bsp.a(alt_putchar.o)
 .comment       0x00000000       0x27 ../lab4_software_bsp/\libhal_bsp.a(alt_read.o)
 .comment       0x00000000       0x27 ../lab4_software_bsp/\libhal_bsp.a(alt_release_fd.o)
 .comment       0x00000000       0x27 ../lab4_software_bsp/\libhal_bsp.a(alt_sbrk.o)
 .comment       0x00000000       0x27 ../lab4_software_bsp/\libhal_bsp.a(alt_write.o)
 .comment       0x00000000       0x27 ../lab4_software_bsp/\libhal_bsp.a(alt_sys_init.o)
 .comment       0x00000000       0x27 ../lab4_software_bsp/\libhal_bsp.a(altera_avalon_jtag_uart_fd.o)
 .comment       0x00000000       0x27 ../lab4_software_bsp/\libhal_bsp.a(altera_avalon_jtag_uart_init.o)
 .comment       0x00000000       0x27 ../lab4_software_bsp/\libhal_bsp.a(altera_avalon_jtag_uart_ioctl.o)
 .comment       0x00000000       0x27 ../lab4_software_bsp/\libhal_bsp.a(altera_avalon_jtag_uart_read.o)
 .comment       0x00000000       0x27 ../lab4_software_bsp/\libhal_bsp.a(altera_avalon_jtag_uart_write.o)
 .comment       0x00000000       0x27 ../lab4_software_bsp/\libhal_bsp.a(altera_avalon_timer_ts.o)
 .comment       0x00000000       0x27 ../lab4_software_bsp/\libhal_bsp.a(altera_avalon_timer_vars.o)
 .comment       0x00000000       0x27 ../lab4_software_bsp/\libhal_bsp.a(altera_up_avalon_audio.o)
 .comment       0x00000000       0x27 ../lab4_software_bsp/\libhal_bsp.a(altera_up_avalon_character_lcd.o)
 .comment       0x00000000       0x27 ../lab4_software_bsp/\libhal_bsp.a(altera_up_avalon_ethernet.o)
 .comment       0x00000000       0x27 ../lab4_software_bsp/\libhal_bsp.a(altera_up_avalon_ethernet_low_level_driver.o)
 .comment       0x00000000       0x27 ../lab4_software_bsp/\libhal_bsp.a(altera_up_avalon_irda.o)
 .comment       0x00000000       0x27 ../lab4_software_bsp/\libhal_bsp.a(altera_up_avalon_parallel_port.o)
 .comment       0x00000000       0x27 ../lab4_software_bsp/\libhal_bsp.a(altera_up_avalon_ps2.o)
 .comment       0x00000000       0x27 ../lab4_software_bsp/\libhal_bsp.a(altera_up_avalon_rs232.o)
 .comment       0x00000000       0x27 ../lab4_software_bsp/\libhal_bsp.a(altera_up_avalon_video_character_buffer_with_dma.o)
 .comment       0x00000000       0x27 ../lab4_software_bsp/\libhal_bsp.a(altera_up_avalon_video_pixel_buffer_dma.o)
 .comment       0x00000000       0x27 ../lab4_software_bsp/\libhal_bsp.a(alt_alarm_start.o)
 .comment       0x00000000       0x27 ../lab4_software_bsp/\libhal_bsp.a(alt_dcache_flush_all.o)
 .comment       0x00000000       0x27 ../lab4_software_bsp/\libhal_bsp.a(alt_dev_llist_insert.o)
 .comment       0x00000000       0x27 ../lab4_software_bsp/\libhal_bsp.a(alt_do_ctors.o)
 .comment       0x00000000       0x27 ../lab4_software_bsp/\libhal_bsp.a(alt_do_dtors.o)
 .comment       0x00000000       0x27 ../lab4_software_bsp/\libhal_bsp.a(alt_find_dev.o)
 .comment       0x00000000       0x27 ../lab4_software_bsp/\libhal_bsp.a(alt_icache_flush_all.o)
 .comment       0x00000000       0x27 ../lab4_software_bsp/\libhal_bsp.a(alt_io_redirect.o)
 .comment       0x00000000       0x27 ../lab4_software_bsp/\libhal_bsp.a(alt_irq_handler.o)
 .comment       0x00000000       0x27 ../lab4_software_bsp/\libhal_bsp.a(alt_open.o)
 .comment       0x00000000       0x27 ../lab4_software_bsp/\libhal_bsp.a(alt_tick.o)
 .comment       0x00000000       0x27 ../lab4_software_bsp/\libhal_bsp.a(alt_usleep.o)
 .comment       0x00000000       0x27 ../lab4_software_bsp/\libhal_bsp.a(altera_nios2_qsys_irq.o)
 .comment       0x00000000       0x27 ../lab4_software_bsp/\libhal_bsp.a(alt_busy_sleep.o)
 .comment       0x00000000       0x27 ../lab4_software_bsp/\libhal_bsp.a(alt_find_file.o)
 .comment       0x00000000       0x27 ../lab4_software_bsp/\libhal_bsp.a(alt_get_fd.o)
 .comment       0x00000000       0x27 ../lab4_software_bsp/\libhal_bsp.a(alt_icache_flush.o)
 .comment       0x00000000       0x27 d:/fpga/nios2eds/bin/gnu/h-i686-mingw32/bin/../lib/gcc/nios2-elf/4.1.2/../../../../nios2-elf/lib\libc.a(lib_a-atexit.o)
 .comment       0x00000000       0x27 d:/fpga/nios2eds/bin/gnu/h-i686-mingw32/bin/../lib/gcc/nios2-elf/4.1.2/../../../../nios2-elf/lib\libc.a(lib_a-exit.o)
 .comment       0x00000000       0x27 d:/fpga/nios2eds/bin/gnu/h-i686-mingw32/bin/../lib/gcc/nios2-elf/4.1.2/../../../../nios2-elf/lib\libc.a(lib_a-memcmp.o)
 .comment       0x00000000       0x27 d:/fpga/nios2eds/bin/gnu/h-i686-mingw32/bin/../lib/gcc/nios2-elf/4.1.2/../../../../nios2-elf/lib\libc.a(lib_a-putc.o)
 .comment       0x00000000       0x27 d:/fpga/nios2eds/bin/gnu/h-i686-mingw32/bin/../lib/gcc/nios2-elf/4.1.2/../../../../nios2-elf/lib\libc.a(lib_a-wbuf.o)
 .comment       0x00000000       0x27 d:/fpga/nios2eds/bin/gnu/h-i686-mingw32/bin/../lib/gcc/nios2-elf/4.1.2/../../../../nios2-elf/lib\libc.a(lib_a-__atexit.o)
 .comment       0x00000000       0x27 d:/fpga/nios2eds/bin/gnu/h-i686-mingw32/bin/../lib/gcc/nios2-elf/4.1.2/../../../../nios2-elf/lib\libc.a(lib_a-__call_atexit.o)
 .comment       0x00000000       0x27 ../lab4_software_bsp/\libhal_bsp.a(alt_exit.o)

.debug
 *(.debug)

.line
 *(.line)

.debug_srcinfo
 *(.debug_srcinfo)

.debug_sfnames
 *(.debug_sfnames)

.debug_aranges  0x00000000      0xf98
 *(.debug_aranges)
 .debug_aranges
                0x00000000       0x28 ../lab4_software_bsp//obj/HAL/src/crt0.o
 .debug_aranges
                0x00000028       0x20 obj/default/PS2_ISR.o
 .debug_aranges
                0x00000048       0x20 obj/default/audio_ISR.o
 .debug_aranges
                0x00000068       0x20 obj/default/interval_timer_ISR.o
 .debug_aranges
                0x00000088       0x20 obj/default/media_interrupt_HAL.o
 .debug_aranges
                0x000000a8       0x20 obj/default/pushbutton_ISR.o
 .debug_aranges
                0x000000c8       0x20 d:/fpga/nios2eds/bin/gnu/h-i686-mingw32/bin/../lib/gcc/nios2-elf/4.1.2\libgcc.a(_si_to_sf.o)
 .debug_aranges
                0x000000e8       0x20 d:/fpga/nios2eds/bin/gnu/h-i686-mingw32/bin/../lib/gcc/nios2-elf/4.1.2\libgcc.a(_sf_to_si.o)
 .debug_aranges
                0x00000108       0x20 d:/fpga/nios2eds/bin/gnu/h-i686-mingw32/bin/../lib/gcc/nios2-elf/4.1.2\libgcc.a(_sf_to_df.o)
 .debug_aranges
                0x00000128       0x20 d:/fpga/nios2eds/bin/gnu/h-i686-mingw32/bin/../lib/gcc/nios2-elf/4.1.2\libgcc.a(_usi_to_sf.o)
 .debug_aranges
                0x00000148       0x20 d:/fpga/nios2eds/bin/gnu/h-i686-mingw32/bin/../lib/gcc/nios2-elf/4.1.2\libgcc.a(_make_df.o)
 .debug_aranges
                0x00000168       0x20 d:/fpga/nios2eds/bin/gnu/h-i686-mingw32/bin/../lib/gcc/nios2-elf/4.1.2\libgcc.a(_clzsi2.o)
 .debug_aranges
                0x00000188       0x20 d:/fpga/nios2eds/bin/gnu/h-i686-mingw32/bin/../lib/gcc/nios2-elf/4.1.2\libgcc.a(_pack_sf.o)
 .debug_aranges
                0x000001a8       0x20 d:/fpga/nios2eds/bin/gnu/h-i686-mingw32/bin/../lib/gcc/nios2-elf/4.1.2\libgcc.a(_unpack_sf.o)
 .debug_aranges
                0x000001c8       0x20 d:/fpga/nios2eds/bin/gnu/h-i686-mingw32/bin/../lib/gcc/nios2-elf/4.1.2\libgcc.a(_pack_df.o)
 .debug_aranges
                0x000001e8       0x20 d:/fpga/nios2eds/bin/gnu/h-i686-mingw32/bin/../lib/gcc/nios2-elf/4.1.2/../../../../nios2-elf/lib\libc.a(lib_a-memcpy.o)
 .debug_aranges
                0x00000208       0x20 d:/fpga/nios2eds/bin/gnu/h-i686-mingw32/bin/../lib/gcc/nios2-elf/4.1.2/../../../../nios2-elf/lib\libc.a(lib_a-memset.o)
 .debug_aranges
                0x00000228       0x20 d:/fpga/nios2eds/bin/gnu/h-i686-mingw32/bin/../lib/gcc/nios2-elf/4.1.2/../../../../nios2-elf/lib\libc.a(lib_a-printf.o)
 .debug_aranges
                0x00000248       0x20 d:/fpga/nios2eds/bin/gnu/h-i686-mingw32/bin/../lib/gcc/nios2-elf/4.1.2/../../../../nios2-elf/lib\libc.a(lib_a-vfprintf.o)
 .debug_aranges
                0x00000268       0x20 d:/fpga/nios2eds/bin/gnu/h-i686-mingw32/bin/../lib/gcc/nios2-elf/4.1.2/../../../../nios2-elf/lib\libc.a(lib_a-wsetup.o)
 .debug_aranges
                0x00000288       0x20 d:/fpga/nios2eds/bin/gnu/h-i686-mingw32/bin/../lib/gcc/nios2-elf/4.1.2/../../../../nios2-elf/lib\libc.a(lib_a-dtoa.o)
 .debug_aranges
                0x000002a8       0x20 d:/fpga/nios2eds/bin/gnu/h-i686-mingw32/bin/../lib/gcc/nios2-elf/4.1.2/../../../../nios2-elf/lib\libc.a(lib_a-fflush.o)
 .debug_aranges
                0x000002c8       0x20 d:/fpga/nios2eds/bin/gnu/h-i686-mingw32/bin/../lib/gcc/nios2-elf/4.1.2/../../../../nios2-elf/lib\libc.a(lib_a-findfp.o)
 .debug_aranges
                0x000002e8       0x20 d:/fpga/nios2eds/bin/gnu/h-i686-mingw32/bin/../lib/gcc/nios2-elf/4.1.2/../../../../nios2-elf/lib\libc.a(lib_a-freer.o)
 .debug_aranges
                0x00000308       0x20 d:/fpga/nios2eds/bin/gnu/h-i686-mingw32/bin/../lib/gcc/nios2-elf/4.1.2/../../../../nios2-elf/lib\libc.a(lib_a-fvwrite.o)
 .debug_aranges
                0x00000328       0x20 d:/fpga/nios2eds/bin/gnu/h-i686-mingw32/bin/../lib/gcc/nios2-elf/4.1.2/../../../../nios2-elf/lib\libc.a(lib_a-fwalk.o)
 .debug_aranges
                0x00000348       0x20 d:/fpga/nios2eds/bin/gnu/h-i686-mingw32/bin/../lib/gcc/nios2-elf/4.1.2/../../../../nios2-elf/lib\libc.a(lib_a-locale.o)
 .debug_aranges
                0x00000368       0x20 d:/fpga/nios2eds/bin/gnu/h-i686-mingw32/bin/../lib/gcc/nios2-elf/4.1.2/../../../../nios2-elf/lib\libc.a(lib_a-makebuf.o)
 .debug_aranges
                0x00000388       0x20 d:/fpga/nios2eds/bin/gnu/h-i686-mingw32/bin/../lib/gcc/nios2-elf/4.1.2/../../../../nios2-elf/lib\libc.a(lib_a-mallocr.o)
 .debug_aranges
                0x000003a8       0x20 d:/fpga/nios2eds/bin/gnu/h-i686-mingw32/bin/../lib/gcc/nios2-elf/4.1.2/../../../../nios2-elf/lib\libc.a(lib_a-memchr.o)
 .debug_aranges
                0x000003c8       0x20 d:/fpga/nios2eds/bin/gnu/h-i686-mingw32/bin/../lib/gcc/nios2-elf/4.1.2/../../../../nios2-elf/lib\libc.a(lib_a-memmove.o)
 .debug_aranges
                0x000003e8       0x20 d:/fpga/nios2eds/bin/gnu/h-i686-mingw32/bin/../lib/gcc/nios2-elf/4.1.2/../../../../nios2-elf/lib\libc.a(lib_a-mprec.o)
 .debug_aranges
                0x00000408       0x20 d:/fpga/nios2eds/bin/gnu/h-i686-mingw32/bin/../lib/gcc/nios2-elf/4.1.2/../../../../nios2-elf/lib\libc.a(lib_a-reallocr.o)
 .debug_aranges
                0x00000428       0x20 d:/fpga/nios2eds/bin/gnu/h-i686-mingw32/bin/../lib/gcc/nios2-elf/4.1.2/../../../../nios2-elf/lib\libc.a(lib_a-s_isinfd.o)
 .debug_aranges
                0x00000448       0x20 d:/fpga/nios2eds/bin/gnu/h-i686-mingw32/bin/../lib/gcc/nios2-elf/4.1.2/../../../../nios2-elf/lib\libc.a(lib_a-s_isnand.o)
 .debug_aranges
                0x00000468       0x20 d:/fpga/nios2eds/bin/gnu/h-i686-mingw32/bin/../lib/gcc/nios2-elf/4.1.2/../../../../nios2-elf/lib\libc.a(lib_a-sbrkr.o)
 .debug_aranges
                0x00000488       0x20 d:/fpga/nios2eds/bin/gnu/h-i686-mingw32/bin/../lib/gcc/nios2-elf/4.1.2/../../../../nios2-elf/lib\libc.a(lib_a-stdio.o)
 .debug_aranges
                0x000004a8       0x20 d:/fpga/nios2eds/bin/gnu/h-i686-mingw32/bin/../lib/gcc/nios2-elf/4.1.2/../../../../nios2-elf/lib\libc.a(lib_a-strcmp.o)
 .debug_aranges
                0x000004c8       0x20 d:/fpga/nios2eds/bin/gnu/h-i686-mingw32/bin/../lib/gcc/nios2-elf/4.1.2/../../../../nios2-elf/lib\libc.a(lib_a-strlen.o)
 .debug_aranges
                0x000004e8       0x20 d:/fpga/nios2eds/bin/gnu/h-i686-mingw32/bin/../lib/gcc/nios2-elf/4.1.2/../../../../nios2-elf/lib\libc.a(lib_a-writer.o)
 .debug_aranges
                0x00000508       0x20 d:/fpga/nios2eds/bin/gnu/h-i686-mingw32/bin/../lib/gcc/nios2-elf/4.1.2/../../../../nios2-elf/lib\libc.a(lib_a-callocr.o)
 .debug_aranges
                0x00000528       0x20 d:/fpga/nios2eds/bin/gnu/h-i686-mingw32/bin/../lib/gcc/nios2-elf/4.1.2/../../../../nios2-elf/lib\libc.a(lib_a-closer.o)
 .debug_aranges
                0x00000548       0x20 d:/fpga/nios2eds/bin/gnu/h-i686-mingw32/bin/../lib/gcc/nios2-elf/4.1.2/../../../../nios2-elf/lib\libc.a(lib_a-fclose.o)
 .debug_aranges
                0x00000568       0x20 d:/fpga/nios2eds/bin/gnu/h-i686-mingw32/bin/../lib/gcc/nios2-elf/4.1.2/../../../../nios2-elf/lib\libc.a(lib_a-fstatr.o)
 .debug_aranges
                0x00000588       0x20 d:/fpga/nios2eds/bin/gnu/h-i686-mingw32/bin/../lib/gcc/nios2-elf/4.1.2/../../../../nios2-elf/lib\libc.a(lib_a-isattyr.o)
 .debug_aranges
                0x000005a8       0x20 d:/fpga/nios2eds/bin/gnu/h-i686-mingw32/bin/../lib/gcc/nios2-elf/4.1.2/../../../../nios2-elf/lib\libc.a(lib_a-lseekr.o)
 .debug_aranges
                0x000005c8       0x20 d:/fpga/nios2eds/bin/gnu/h-i686-mingw32/bin/../lib/gcc/nios2-elf/4.1.2/../../../../nios2-elf/lib\libc.a(lib_a-readr.o)
 .debug_aranges
                0x000005e8       0x20 d:/fpga/nios2eds/bin/gnu/h-i686-mingw32/bin/../lib/gcc/nios2-elf/4.1.2\libgcc.a(_udivdi3.o)
 .debug_aranges
                0x00000608       0x20 d:/fpga/nios2eds/bin/gnu/h-i686-mingw32/bin/../lib/gcc/nios2-elf/4.1.2\libgcc.a(_umoddi3.o)
 .debug_aranges
                0x00000628       0x20 d:/fpga/nios2eds/bin/gnu/h-i686-mingw32/bin/../lib/gcc/nios2-elf/4.1.2\libgcc.a(_addsub_df.o)
 .debug_aranges
                0x00000648       0x20 d:/fpga/nios2eds/bin/gnu/h-i686-mingw32/bin/../lib/gcc/nios2-elf/4.1.2\libgcc.a(_mul_df.o)
 .debug_aranges
                0x00000668       0x20 d:/fpga/nios2eds/bin/gnu/h-i686-mingw32/bin/../lib/gcc/nios2-elf/4.1.2\libgcc.a(_div_df.o)
 .debug_aranges
                0x00000688       0x20 d:/fpga/nios2eds/bin/gnu/h-i686-mingw32/bin/../lib/gcc/nios2-elf/4.1.2\libgcc.a(_eq_df.o)
 .debug_aranges
                0x000006a8       0x20 d:/fpga/nios2eds/bin/gnu/h-i686-mingw32/bin/../lib/gcc/nios2-elf/4.1.2\libgcc.a(_ne_df.o)
 .debug_aranges
                0x000006c8       0x20 d:/fpga/nios2eds/bin/gnu/h-i686-mingw32/bin/../lib/gcc/nios2-elf/4.1.2\libgcc.a(_gt_df.o)
 .debug_aranges
                0x000006e8       0x20 d:/fpga/nios2eds/bin/gnu/h-i686-mingw32/bin/../lib/gcc/nios2-elf/4.1.2\libgcc.a(_ge_df.o)
 .debug_aranges
                0x00000708       0x20 d:/fpga/nios2eds/bin/gnu/h-i686-mingw32/bin/../lib/gcc/nios2-elf/4.1.2\libgcc.a(_lt_df.o)
 .debug_aranges
                0x00000728       0x20 d:/fpga/nios2eds/bin/gnu/h-i686-mingw32/bin/../lib/gcc/nios2-elf/4.1.2\libgcc.a(_si_to_df.o)
 .debug_aranges
                0x00000748       0x20 d:/fpga/nios2eds/bin/gnu/h-i686-mingw32/bin/../lib/gcc/nios2-elf/4.1.2\libgcc.a(_df_to_si.o)
 .debug_aranges
                0x00000768       0x20 d:/fpga/nios2eds/bin/gnu/h-i686-mingw32/bin/../lib/gcc/nios2-elf/4.1.2\libgcc.a(_usi_to_df.o)
 .debug_aranges
                0x00000788       0x20 d:/fpga/nios2eds/bin/gnu/h-i686-mingw32/bin/../lib/gcc/nios2-elf/4.1.2\libgcc.a(lib2-divmod.o)
 .debug_aranges
                0x000007a8       0x20 d:/fpga/nios2eds/bin/gnu/h-i686-mingw32/bin/../lib/gcc/nios2-elf/4.1.2\libgcc.a(_muldi3.o)
 .debug_aranges
                0x000007c8       0x20 d:/fpga/nios2eds/bin/gnu/h-i686-mingw32/bin/../lib/gcc/nios2-elf/4.1.2\libgcc.a(_unpack_df.o)
 .debug_aranges
                0x000007e8       0x20 d:/fpga/nios2eds/bin/gnu/h-i686-mingw32/bin/../lib/gcc/nios2-elf/4.1.2\libgcc.a(_fpcmp_parts_df.o)
 .debug_aranges
                0x00000808       0x20 ../lab4_software_bsp/\libhal_bsp.a(alt_close.o)
 .debug_aranges
                0x00000828       0x20 ../lab4_software_bsp/\libhal_bsp.a(alt_dev.o)
 .debug_aranges
                0x00000848       0x20 ../lab4_software_bsp/\libhal_bsp.a(alt_fstat.o)
 .debug_aranges
                0x00000868       0x20 ../lab4_software_bsp/\libhal_bsp.a(alt_irq_register.o)
 .debug_aranges
                0x00000888       0x20 ../lab4_software_bsp/\libhal_bsp.a(alt_isatty.o)
 .debug_aranges
                0x000008a8       0x20 ../lab4_software_bsp/\libhal_bsp.a(alt_load.o)
 .debug_aranges
                0x000008c8       0x20 ../lab4_software_bsp/\libhal_bsp.a(alt_lseek.o)
 .debug_aranges
                0x000008e8       0x20 ../lab4_software_bsp/\libhal_bsp.a(alt_main.o)
 .debug_aranges
                0x00000908       0x20 ../lab4_software_bsp/\libhal_bsp.a(alt_malloc_lock.o)
 .debug_aranges
                0x00000928       0x20 ../lab4_software_bsp/\libhal_bsp.a(alt_printf.o)
 .debug_aranges
                0x00000948       0x20 ../lab4_software_bsp/\libhal_bsp.a(alt_putchar.o)
 .debug_aranges
                0x00000968       0x20 ../lab4_software_bsp/\libhal_bsp.a(alt_read.o)
 .debug_aranges
                0x00000988       0x20 ../lab4_software_bsp/\libhal_bsp.a(alt_release_fd.o)
 .debug_aranges
                0x000009a8       0x20 ../lab4_software_bsp/\libhal_bsp.a(alt_sbrk.o)
 .debug_aranges
                0x000009c8       0x20 ../lab4_software_bsp/\libhal_bsp.a(alt_write.o)
 .debug_aranges
                0x000009e8       0x20 ../lab4_software_bsp/\libhal_bsp.a(alt_sys_init.o)
 .debug_aranges
                0x00000a08       0x20 ../lab4_software_bsp/\libhal_bsp.a(altera_avalon_jtag_uart_fd.o)
 .debug_aranges
                0x00000a28       0x20 ../lab4_software_bsp/\libhal_bsp.a(altera_avalon_jtag_uart_init.o)
 .debug_aranges
                0x00000a48       0x20 ../lab4_software_bsp/\libhal_bsp.a(altera_avalon_jtag_uart_ioctl.o)
 .debug_aranges
                0x00000a68       0x20 ../lab4_software_bsp/\libhal_bsp.a(altera_avalon_jtag_uart_read.o)
 .debug_aranges
                0x00000a88       0x20 ../lab4_software_bsp/\libhal_bsp.a(altera_avalon_jtag_uart_write.o)
 .debug_aranges
                0x00000aa8       0x20 ../lab4_software_bsp/\libhal_bsp.a(altera_avalon_timer_ts.o)
 .debug_aranges
                0x00000ac8       0x20 ../lab4_software_bsp/\libhal_bsp.a(altera_up_avalon_audio.o)
 .debug_aranges
                0x00000ae8       0x20 ../lab4_software_bsp/\libhal_bsp.a(altera_up_avalon_character_lcd.o)
 .debug_aranges
                0x00000b08       0x20 ../lab4_software_bsp/\libhal_bsp.a(altera_up_avalon_ethernet.o)
 .debug_aranges
                0x00000b28       0x20 ../lab4_software_bsp/\libhal_bsp.a(altera_up_avalon_ethernet_low_level_driver.o)
 .debug_aranges
                0x00000b48       0x20 ../lab4_software_bsp/\libhal_bsp.a(altera_up_avalon_irda.o)
 .debug_aranges
                0x00000b68       0x20 ../lab4_software_bsp/\libhal_bsp.a(altera_up_avalon_parallel_port.o)
 .debug_aranges
                0x00000b88       0x20 ../lab4_software_bsp/\libhal_bsp.a(altera_up_avalon_ps2.o)
 .debug_aranges
                0x00000ba8       0x20 ../lab4_software_bsp/\libhal_bsp.a(altera_up_avalon_rs232.o)
 .debug_aranges
                0x00000bc8       0x20 ../lab4_software_bsp/\libhal_bsp.a(altera_up_avalon_video_character_buffer_with_dma.o)
 .debug_aranges
                0x00000be8       0x20 ../lab4_software_bsp/\libhal_bsp.a(altera_up_avalon_video_pixel_buffer_dma.o)
 .debug_aranges
                0x00000c08       0x20 ../lab4_software_bsp/\libhal_bsp.a(alt_alarm_start.o)
 .debug_aranges
                0x00000c28       0x20 ../lab4_software_bsp/\libhal_bsp.a(alt_dcache_flush_all.o)
 .debug_aranges
                0x00000c48       0x20 ../lab4_software_bsp/\libhal_bsp.a(alt_dev_llist_insert.o)
 .debug_aranges
                0x00000c68       0x20 ../lab4_software_bsp/\libhal_bsp.a(alt_do_ctors.o)
 .debug_aranges
                0x00000c88       0x20 ../lab4_software_bsp/\libhal_bsp.a(alt_do_dtors.o)
 .debug_aranges
                0x00000ca8       0x20 ../lab4_software_bsp/\libhal_bsp.a(alt_find_dev.o)
 .debug_aranges
                0x00000cc8       0x20 ../lab4_software_bsp/\libhal_bsp.a(alt_icache_flush_all.o)
 .debug_aranges
                0x00000ce8       0x20 ../lab4_software_bsp/\libhal_bsp.a(alt_io_redirect.o)
 .debug_aranges
                0x00000d08       0x30 ../lab4_software_bsp/\libhal_bsp.a(alt_irq_entry.o)
 .debug_aranges
                0x00000d38       0x28 ../lab4_software_bsp/\libhal_bsp.a(alt_irq_handler.o)
 .debug_aranges
                0x00000d60       0x20 ../lab4_software_bsp/\libhal_bsp.a(alt_open.o)
 .debug_aranges
                0x00000d80       0x20 ../lab4_software_bsp/\libhal_bsp.a(alt_tick.o)
 .debug_aranges
                0x00000da0       0x20 ../lab4_software_bsp/\libhal_bsp.a(alt_usleep.o)
 .debug_aranges
                0x00000dc0       0x20 ../lab4_software_bsp/\libhal_bsp.a(altera_nios2_qsys_irq.o)
 .debug_aranges
                0x00000de0       0x20 ../lab4_software_bsp/\libhal_bsp.a(alt_busy_sleep.o)
 .debug_aranges
                0x00000e00       0x38 ../lab4_software_bsp/\libhal_bsp.a(alt_exception_entry.o)
 .debug_aranges
                0x00000e38       0x20 ../lab4_software_bsp/\libhal_bsp.a(alt_find_file.o)
 .debug_aranges
                0x00000e58       0x20 ../lab4_software_bsp/\libhal_bsp.a(alt_get_fd.o)
 .debug_aranges
                0x00000e78       0x20 ../lab4_software_bsp/\libhal_bsp.a(alt_icache_flush.o)
 .debug_aranges
                0x00000e98       0x20 d:/fpga/nios2eds/bin/gnu/h-i686-mingw32/bin/../lib/gcc/nios2-elf/4.1.2/../../../../nios2-elf/lib\libc.a(lib_a-atexit.o)
 .debug_aranges
                0x00000eb8       0x20 d:/fpga/nios2eds/bin/gnu/h-i686-mingw32/bin/../lib/gcc/nios2-elf/4.1.2/../../../../nios2-elf/lib\libc.a(lib_a-exit.o)
 .debug_aranges
                0x00000ed8       0x20 d:/fpga/nios2eds/bin/gnu/h-i686-mingw32/bin/../lib/gcc/nios2-elf/4.1.2/../../../../nios2-elf/lib\libc.a(lib_a-memcmp.o)
 .debug_aranges
                0x00000ef8       0x20 d:/fpga/nios2eds/bin/gnu/h-i686-mingw32/bin/../lib/gcc/nios2-elf/4.1.2/../../../../nios2-elf/lib\libc.a(lib_a-putc.o)
 .debug_aranges
                0x00000f18       0x20 d:/fpga/nios2eds/bin/gnu/h-i686-mingw32/bin/../lib/gcc/nios2-elf/4.1.2/../../../../nios2-elf/lib\libc.a(lib_a-wbuf.o)
 .debug_aranges
                0x00000f38       0x20 d:/fpga/nios2eds/bin/gnu/h-i686-mingw32/bin/../lib/gcc/nios2-elf/4.1.2/../../../../nios2-elf/lib\libc.a(lib_a-__atexit.o)
 .debug_aranges
                0x00000f58       0x20 d:/fpga/nios2eds/bin/gnu/h-i686-mingw32/bin/../lib/gcc/nios2-elf/4.1.2/../../../../nios2-elf/lib\libc.a(lib_a-__call_atexit.o)
 .debug_aranges
                0x00000f78       0x20 ../lab4_software_bsp/\libhal_bsp.a(alt_exit.o)

.debug_pubnames
                0x00000000     0x26e8
 *(.debug_pubnames)
 .debug_pubnames
                0x00000000       0x31 obj/default/PS2_ISR.o
 .debug_pubnames
                0x00000031       0xb5 obj/default/audio_ISR.o
 .debug_pubnames
                0x000000e6       0x9c obj/default/globals.o
 .debug_pubnames
                0x00000182       0x29 obj/default/interval_timer_ISR.o
 .debug_pubnames
                0x000001ab      0x3f3 obj/default/media_interrupt_HAL.o
 .debug_pubnames
                0x0000059e       0x25 obj/default/pushbutton_ISR.o
 .debug_pubnames
                0x000005c3       0x22 d:/fpga/nios2eds/bin/gnu/h-i686-mingw32/bin/../lib/gcc/nios2-elf/4.1.2\libgcc.a(_si_to_sf.o)
 .debug_pubnames
                0x000005e5       0x20 d:/fpga/nios2eds/bin/gnu/h-i686-mingw32/bin/../lib/gcc/nios2-elf/4.1.2\libgcc.a(_sf_to_si.o)
 .debug_pubnames
                0x00000605       0x24 d:/fpga/nios2eds/bin/gnu/h-i686-mingw32/bin/../lib/gcc/nios2-elf/4.1.2\libgcc.a(_sf_to_df.o)
 .debug_pubnames
                0x00000629       0x24 d:/fpga/nios2eds/bin/gnu/h-i686-mingw32/bin/../lib/gcc/nios2-elf/4.1.2\libgcc.a(_usi_to_sf.o)
 .debug_pubnames
                0x0000064d       0x20 d:/fpga/nios2eds/bin/gnu/h-i686-mingw32/bin/../lib/gcc/nios2-elf/4.1.2\libgcc.a(_make_df.o)
 .debug_pubnames
                0x0000066d       0x1f d:/fpga/nios2eds/bin/gnu/h-i686-mingw32/bin/../lib/gcc/nios2-elf/4.1.2\libgcc.a(_clzsi2.o)
 .debug_pubnames
                0x0000068c       0x1f d:/fpga/nios2eds/bin/gnu/h-i686-mingw32/bin/../lib/gcc/nios2-elf/4.1.2\libgcc.a(_pack_sf.o)
 .debug_pubnames
                0x000006ab       0x21 d:/fpga/nios2eds/bin/gnu/h-i686-mingw32/bin/../lib/gcc/nios2-elf/4.1.2\libgcc.a(_unpack_sf.o)
 .debug_pubnames
                0x000006cc       0x1f d:/fpga/nios2eds/bin/gnu/h-i686-mingw32/bin/../lib/gcc/nios2-elf/4.1.2\libgcc.a(_pack_df.o)
 .debug_pubnames
                0x000006eb       0x20 d:/fpga/nios2eds/bin/gnu/h-i686-mingw32/bin/../lib/gcc/nios2-elf/4.1.2\libgcc.a(_clz.o)
 .debug_pubnames
                0x0000070b       0x1d d:/fpga/nios2eds/bin/gnu/h-i686-mingw32/bin/../lib/gcc/nios2-elf/4.1.2/../../../../nios2-elf/lib\libc.a(lib_a-memcpy.o)
 .debug_pubnames
                0x00000728       0x1d d:/fpga/nios2eds/bin/gnu/h-i686-mingw32/bin/../lib/gcc/nios2-elf/4.1.2/../../../../nios2-elf/lib\libc.a(lib_a-memset.o)
 .debug_pubnames
                0x00000745       0x2b d:/fpga/nios2eds/bin/gnu/h-i686-mingw32/bin/../lib/gcc/nios2-elf/4.1.2/../../../../nios2-elf/lib\libc.a(lib_a-printf.o)
 .debug_pubnames
                0x00000770       0x45 d:/fpga/nios2eds/bin/gnu/h-i686-mingw32/bin/../lib/gcc/nios2-elf/4.1.2/../../../../nios2-elf/lib\libc.a(lib_a-vfprintf.o)
 .debug_pubnames
                0x000007b5       0x22 d:/fpga/nios2eds/bin/gnu/h-i686-mingw32/bin/../lib/gcc/nios2-elf/4.1.2/../../../../nios2-elf/lib\libc.a(lib_a-wsetup.o)
 .debug_pubnames
                0x000007d7       0x1e d:/fpga/nios2eds/bin/gnu/h-i686-mingw32/bin/../lib/gcc/nios2-elf/4.1.2/../../../../nios2-elf/lib\libc.a(lib_a-dtoa.o)
 .debug_pubnames
                0x000007f5       0x2b d:/fpga/nios2eds/bin/gnu/h-i686-mingw32/bin/../lib/gcc/nios2-elf/4.1.2/../../../../nios2-elf/lib\libc.a(lib_a-fflush.o)
 .debug_pubnames
                0x00000820       0xdb d:/fpga/nios2eds/bin/gnu/h-i686-mingw32/bin/../lib/gcc/nios2-elf/4.1.2/../../../../nios2-elf/lib\libc.a(lib_a-findfp.o)
 .debug_pubnames
                0x000008fb       0x31 d:/fpga/nios2eds/bin/gnu/h-i686-mingw32/bin/../lib/gcc/nios2-elf/4.1.2/../../../../nios2-elf/lib\libc.a(lib_a-freer.o)
 .debug_pubnames
                0x0000092c       0x23 d:/fpga/nios2eds/bin/gnu/h-i686-mingw32/bin/../lib/gcc/nios2-elf/4.1.2/../../../../nios2-elf/lib\libc.a(lib_a-fvwrite.o)
 .debug_pubnames
                0x0000094f       0x2e d:/fpga/nios2eds/bin/gnu/h-i686-mingw32/bin/../lib/gcc/nios2-elf/4.1.2/../../../../nios2-elf/lib\libc.a(lib_a-fwalk.o)
 .debug_pubnames
                0x0000097d       0x39 d:/fpga/nios2eds/bin/gnu/h-i686-mingw32/bin/../lib/gcc/nios2-elf/4.1.2/../../../../nios2-elf/lib\libc.a(lib_a-impure.o)
 .debug_pubnames
                0x000009b6       0xc3 d:/fpga/nios2eds/bin/gnu/h-i686-mingw32/bin/../lib/gcc/nios2-elf/4.1.2/../../../../nios2-elf/lib\libc.a(lib_a-locale.o)
 .debug_pubnames
                0x00000a79       0x23 d:/fpga/nios2eds/bin/gnu/h-i686-mingw32/bin/../lib/gcc/nios2-elf/4.1.2/../../../../nios2-elf/lib\libc.a(lib_a-makebuf.o)
 .debug_pubnames
                0x00000a9c       0xce d:/fpga/nios2eds/bin/gnu/h-i686-mingw32/bin/../lib/gcc/nios2-elf/4.1.2/../../../../nios2-elf/lib\libc.a(lib_a-mallocr.o)
 .debug_pubnames
                0x00000b6a       0x1d d:/fpga/nios2eds/bin/gnu/h-i686-mingw32/bin/../lib/gcc/nios2-elf/4.1.2/../../../../nios2-elf/lib\libc.a(lib_a-memchr.o)
 .debug_pubnames
                0x00000b87       0x1e d:/fpga/nios2eds/bin/gnu/h-i686-mingw32/bin/../lib/gcc/nios2-elf/4.1.2/../../../../nios2-elf/lib\libc.a(lib_a-memmove.o)
 .debug_pubnames
                0x00000ba5      0x13a d:/fpga/nios2eds/bin/gnu/h-i686-mingw32/bin/../lib/gcc/nios2-elf/4.1.2/../../../../nios2-elf/lib\libc.a(lib_a-mprec.o)
 .debug_pubnames
                0x00000cdf       0x21 d:/fpga/nios2eds/bin/gnu/h-i686-mingw32/bin/../lib/gcc/nios2-elf/4.1.2/../../../../nios2-elf/lib\libc.a(lib_a-reallocr.o)
 .debug_pubnames
                0x00000d00       0x1f d:/fpga/nios2eds/bin/gnu/h-i686-mingw32/bin/../lib/gcc/nios2-elf/4.1.2/../../../../nios2-elf/lib\libc.a(lib_a-s_isinfd.o)
 .debug_pubnames
                0x00000d1f       0x1f d:/fpga/nios2eds/bin/gnu/h-i686-mingw32/bin/../lib/gcc/nios2-elf/4.1.2/../../../../nios2-elf/lib\libc.a(lib_a-s_isnand.o)
 .debug_pubnames
                0x00000d3e       0x1e d:/fpga/nios2eds/bin/gnu/h-i686-mingw32/bin/../lib/gcc/nios2-elf/4.1.2/../../../../nios2-elf/lib\libc.a(lib_a-sbrkr.o)
 .debug_pubnames
                0x00000d5c       0x44 d:/fpga/nios2eds/bin/gnu/h-i686-mingw32/bin/../lib/gcc/nios2-elf/4.1.2/../../../../nios2-elf/lib\libc.a(lib_a-stdio.o)
 .debug_pubnames
                0x00000da0       0x1d d:/fpga/nios2eds/bin/gnu/h-i686-mingw32/bin/../lib/gcc/nios2-elf/4.1.2/../../../../nios2-elf/lib\libc.a(lib_a-strcmp.o)
 .debug_pubnames
                0x00000dbd       0x1d d:/fpga/nios2eds/bin/gnu/h-i686-mingw32/bin/../lib/gcc/nios2-elf/4.1.2/../../../../nios2-elf/lib\libc.a(lib_a-strlen.o)
 .debug_pubnames
                0x00000dda       0x1f d:/fpga/nios2eds/bin/gnu/h-i686-mingw32/bin/../lib/gcc/nios2-elf/4.1.2/../../../../nios2-elf/lib\libc.a(lib_a-writer.o)
 .debug_pubnames
                0x00000df9       0x20 d:/fpga/nios2eds/bin/gnu/h-i686-mingw32/bin/../lib/gcc/nios2-elf/4.1.2/../../../../nios2-elf/lib\libc.a(lib_a-callocr.o)
 .debug_pubnames
                0x00000e19       0x1f d:/fpga/nios2eds/bin/gnu/h-i686-mingw32/bin/../lib/gcc/nios2-elf/4.1.2/../../../../nios2-elf/lib\libc.a(lib_a-closer.o)
 .debug_pubnames
                0x00000e38       0x2b d:/fpga/nios2eds/bin/gnu/h-i686-mingw32/bin/../lib/gcc/nios2-elf/4.1.2/../../../../nios2-elf/lib\libc.a(lib_a-fclose.o)
 .debug_pubnames
                0x00000e63       0x1f d:/fpga/nios2eds/bin/gnu/h-i686-mingw32/bin/../lib/gcc/nios2-elf/4.1.2/../../../../nios2-elf/lib\libc.a(lib_a-fstatr.o)
 .debug_pubnames
                0x00000e82       0x1c d:/fpga/nios2eds/bin/gnu/h-i686-mingw32/bin/../lib/gcc/nios2-elf/4.1.2/../../../../nios2-elf/lib\libc.a(lib_a-int_errno.o)
 .debug_pubnames
                0x00000e9e       0x20 d:/fpga/nios2eds/bin/gnu/h-i686-mingw32/bin/../lib/gcc/nios2-elf/4.1.2/../../../../nios2-elf/lib\libc.a(lib_a-isattyr.o)
 .debug_pubnames
                0x00000ebe       0x1f d:/fpga/nios2eds/bin/gnu/h-i686-mingw32/bin/../lib/gcc/nios2-elf/4.1.2/../../../../nios2-elf/lib\libc.a(lib_a-lseekr.o)
 .debug_pubnames
                0x00000edd       0x1e d:/fpga/nios2eds/bin/gnu/h-i686-mingw32/bin/../lib/gcc/nios2-elf/4.1.2/../../../../nios2-elf/lib\libc.a(lib_a-readr.o)
 .debug_pubnames
                0x00000efb       0x20 d:/fpga/nios2eds/bin/gnu/h-i686-mingw32/bin/../lib/gcc/nios2-elf/4.1.2\libgcc.a(_udivdi3.o)
 .debug_pubnames
                0x00000f1b       0x20 d:/fpga/nios2eds/bin/gnu/h-i686-mingw32/bin/../lib/gcc/nios2-elf/4.1.2\libgcc.a(_umoddi3.o)
 .debug_pubnames
                0x00000f3b       0x2c d:/fpga/nios2eds/bin/gnu/h-i686-mingw32/bin/../lib/gcc/nios2-elf/4.1.2\libgcc.a(_addsub_df.o)
 .debug_pubnames
                0x00000f67       0x1f d:/fpga/nios2eds/bin/gnu/h-i686-mingw32/bin/../lib/gcc/nios2-elf/4.1.2\libgcc.a(_mul_df.o)
 .debug_pubnames
                0x00000f86       0x1f d:/fpga/nios2eds/bin/gnu/h-i686-mingw32/bin/../lib/gcc/nios2-elf/4.1.2\libgcc.a(_div_df.o)
 .debug_pubnames
                0x00000fa5       0x1e d:/fpga/nios2eds/bin/gnu/h-i686-mingw32/bin/../lib/gcc/nios2-elf/4.1.2\libgcc.a(_eq_df.o)
 .debug_pubnames
                0x00000fc3       0x1e d:/fpga/nios2eds/bin/gnu/h-i686-mingw32/bin/../lib/gcc/nios2-elf/4.1.2\libgcc.a(_ne_df.o)
 .debug_pubnames
                0x00000fe1       0x1e d:/fpga/nios2eds/bin/gnu/h-i686-mingw32/bin/../lib/gcc/nios2-elf/4.1.2\libgcc.a(_gt_df.o)
 .debug_pubnames
                0x00000fff       0x1e d:/fpga/nios2eds/bin/gnu/h-i686-mingw32/bin/../lib/gcc/nios2-elf/4.1.2\libgcc.a(_ge_df.o)
 .debug_pubnames
                0x0000101d       0x1e d:/fpga/nios2eds/bin/gnu/h-i686-mingw32/bin/../lib/gcc/nios2-elf/4.1.2\libgcc.a(_lt_df.o)
 .debug_pubnames
                0x0000103b       0x22 d:/fpga/nios2eds/bin/gnu/h-i686-mingw32/bin/../lib/gcc/nios2-elf/4.1.2\libgcc.a(_si_to_df.o)
 .debug_pubnames
                0x0000105d       0x20 d:/fpga/nios2eds/bin/gnu/h-i686-mingw32/bin/../lib/gcc/nios2-elf/4.1.2\libgcc.a(_df_to_si.o)
 .debug_pubnames
                0x0000107d       0x22 d:/fpga/nios2eds/bin/gnu/h-i686-mingw32/bin/../lib/gcc/nios2-elf/4.1.2\libgcc.a(_thenan_df.o)
 .debug_pubnames
                0x0000109f       0x24 d:/fpga/nios2eds/bin/gnu/h-i686-mingw32/bin/../lib/gcc/nios2-elf/4.1.2\libgcc.a(_usi_to_df.o)
 .debug_pubnames
                0x000010c3       0x48 d:/fpga/nios2eds/bin/gnu/h-i686-mingw32/bin/../lib/gcc/nios2-elf/4.1.2\libgcc.a(lib2-divmod.o)
 .debug_pubnames
                0x0000110b       0x1f d:/fpga/nios2eds/bin/gnu/h-i686-mingw32/bin/../lib/gcc/nios2-elf/4.1.2\libgcc.a(_muldi3.o)
 .debug_pubnames
                0x0000112a       0x21 d:/fpga/nios2eds/bin/gnu/h-i686-mingw32/bin/../lib/gcc/nios2-elf/4.1.2\libgcc.a(_unpack_df.o)
 .debug_pubnames
                0x0000114b       0x26 d:/fpga/nios2eds/bin/gnu/h-i686-mingw32/bin/../lib/gcc/nios2-elf/4.1.2\libgcc.a(_fpcmp_parts_df.o)
 .debug_pubnames
                0x00001171       0x1c ../lab4_software_bsp/\libhal_bsp.a(alt_close.o)
 .debug_pubnames
                0x0000118d       0x63 ../lab4_software_bsp/\libhal_bsp.a(alt_dev.o)
 .debug_pubnames
                0x000011f0       0x20 ../lab4_software_bsp/\libhal_bsp.a(alt_errno.o)
 .debug_pubnames
                0x00001210       0x1c ../lab4_software_bsp/\libhal_bsp.a(alt_fstat.o)
 .debug_pubnames
                0x0000122c       0x27 ../lab4_software_bsp/\libhal_bsp.a(alt_irq_register.o)
 .debug_pubnames
                0x00001253       0x3b ../lab4_software_bsp/\libhal_bsp.a(alt_irq_vars.o)
 .debug_pubnames
                0x0000128e       0x1d ../lab4_software_bsp/\libhal_bsp.a(alt_isatty.o)
 .debug_pubnames
                0x000012ab       0x1f ../lab4_software_bsp/\libhal_bsp.a(alt_load.o)
 .debug_pubnames
                0x000012ca       0x1c ../lab4_software_bsp/\libhal_bsp.a(alt_lseek.o)
 .debug_pubnames
                0x000012e6       0x46 ../lab4_software_bsp/\libhal_bsp.a(alt_main.o)
 .debug_pubnames
                0x0000132c       0x38 ../lab4_software_bsp/\libhal_bsp.a(alt_malloc_lock.o)
 .debug_pubnames
                0x00001364       0x21 ../lab4_software_bsp/\libhal_bsp.a(alt_printf.o)
 .debug_pubnames
                0x00001385       0x22 ../lab4_software_bsp/\libhal_bsp.a(alt_putchar.o)
 .debug_pubnames
                0x000013a7       0x1b ../lab4_software_bsp/\libhal_bsp.a(alt_read.o)
 .debug_pubnames
                0x000013c2       0x25 ../lab4_software_bsp/\libhal_bsp.a(alt_release_fd.o)
 .debug_pubnames
                0x000013e7       0x1b ../lab4_software_bsp/\libhal_bsp.a(alt_sbrk.o)
 .debug_pubnames
                0x00001402       0x1c ../lab4_software_bsp/\libhal_bsp.a(alt_write.o)
 .debug_pubnames
                0x0000141e       0x34 ../lab4_software_bsp/\libhal_bsp.a(alt_sys_init.o)
 .debug_pubnames
                0x00001452       0xa5 ../lab4_software_bsp/\libhal_bsp.a(altera_avalon_jtag_uart_fd.o)
 .debug_pubnames
                0x000014f7       0x55 ../lab4_software_bsp/\libhal_bsp.a(altera_avalon_jtag_uart_init.o)
 .debug_pubnames
                0x0000154c       0x34 ../lab4_software_bsp/\libhal_bsp.a(altera_avalon_jtag_uart_ioctl.o)
 .debug_pubnames
                0x00001580       0x33 ../lab4_software_bsp/\libhal_bsp.a(altera_avalon_jtag_uart_read.o)
 .debug_pubnames
                0x000015b3       0x34 ../lab4_software_bsp/\libhal_bsp.a(altera_avalon_jtag_uart_write.o)
 .debug_pubnames
                0x000015e7       0x53 ../lab4_software_bsp/\libhal_bsp.a(altera_avalon_timer_ts.o)
 .debug_pubnames
                0x0000163a       0x52 ../lab4_software_bsp/\libhal_bsp.a(altera_avalon_timer_vars.o)
 .debug_pubnames
                0x0000168c      0x25e ../lab4_software_bsp/\libhal_bsp.a(altera_up_avalon_audio.o)
 .debug_pubnames
                0x000018ea      0x1cd ../lab4_software_bsp/\libhal_bsp.a(altera_up_avalon_character_lcd.o)
 .debug_pubnames
                0x00001ab7       0x48 ../lab4_software_bsp/\libhal_bsp.a(altera_up_avalon_ethernet.o)
 .debug_pubnames
                0x00001aff       0x90 ../lab4_software_bsp/\libhal_bsp.a(altera_up_avalon_ethernet_low_level_driver.o)
 .debug_pubnames
                0x00001b8f      0x159 ../lab4_software_bsp/\libhal_bsp.a(altera_up_avalon_irda.o)
 .debug_pubnames
                0x00001ce8       0x34 ../lab4_software_bsp/\libhal_bsp.a(altera_up_avalon_parallel_port.o)
 .debug_pubnames
                0x00001d1c      0x1ed ../lab4_software_bsp/\libhal_bsp.a(altera_up_avalon_ps2.o)
 .debug_pubnames
                0x00001f09      0x163 ../lab4_software_bsp/\libhal_bsp.a(altera_up_avalon_rs232.o)
 .debug_pubnames
                0x0000206c       0xa5 ../lab4_software_bsp/\libhal_bsp.a(altera_up_avalon_video_character_buffer_with_dma.o)
 .debug_pubnames
                0x00002111      0x1f1 ../lab4_software_bsp/\libhal_bsp.a(altera_up_avalon_video_pixel_buffer_dma.o)
 .debug_pubnames
                0x00002302       0x26 ../lab4_software_bsp/\libhal_bsp.a(alt_alarm_start.o)
 .debug_pubnames
                0x00002328       0x2b ../lab4_software_bsp/\libhal_bsp.a(alt_dcache_flush_all.o)
 .debug_pubnames
                0x00002353       0x2b ../lab4_software_bsp/\libhal_bsp.a(alt_dev_llist_insert.o)
 .debug_pubnames
                0x0000237e       0x20 ../lab4_software_bsp/\libhal_bsp.a(alt_do_ctors.o)
 .debug_pubnames
                0x0000239e       0x20 ../lab4_software_bsp/\libhal_bsp.a(alt_do_dtors.o)
 .debug_pubnames
                0x000023be       0x23 ../lab4_software_bsp/\libhal_bsp.a(alt_find_dev.o)
 .debug_pubnames
                0x000023e1       0x2b ../lab4_software_bsp/\libhal_bsp.a(alt_icache_flush_all.o)
 .debug_pubnames
                0x0000240c       0x26 ../lab4_software_bsp/\libhal_bsp.a(alt_io_redirect.o)
 .debug_pubnames
                0x00002432       0x32 ../lab4_software_bsp/\libhal_bsp.a(alt_irq_handler.o)
 .debug_pubnames
                0x00002464       0x1b ../lab4_software_bsp/\libhal_bsp.a(alt_open.o)
 .debug_pubnames
                0x0000247f       0x68 ../lab4_software_bsp/\libhal_bsp.a(alt_tick.o)
 .debug_pubnames
                0x000024e7       0x1d ../lab4_software_bsp/\libhal_bsp.a(alt_usleep.o)
 .debug_pubnames
                0x00002504       0x31 ../lab4_software_bsp/\libhal_bsp.a(altera_nios2_qsys_irq.o)
 .debug_pubnames
                0x00002535       0x25 ../lab4_software_bsp/\libhal_bsp.a(alt_busy_sleep.o)
 .debug_pubnames
                0x0000255a       0x24 ../lab4_software_bsp/\libhal_bsp.a(alt_find_file.o)
 .debug_pubnames
                0x0000257e       0x21 ../lab4_software_bsp/\libhal_bsp.a(alt_get_fd.o)
 .debug_pubnames
                0x0000259f       0x27 ../lab4_software_bsp/\libhal_bsp.a(alt_icache_flush.o)
 .debug_pubnames
                0x000025c6       0x2a d:/fpga/nios2eds/bin/gnu/h-i686-mingw32/bin/../lib/gcc/nios2-elf/4.1.2/../../../../nios2-elf/lib\libc.a(lib_a-atexit.o)
 .debug_pubnames
                0x000025f0       0x1b d:/fpga/nios2eds/bin/gnu/h-i686-mingw32/bin/../lib/gcc/nios2-elf/4.1.2/../../../../nios2-elf/lib\libc.a(lib_a-exit.o)
 .debug_pubnames
                0x0000260b       0x1d d:/fpga/nios2eds/bin/gnu/h-i686-mingw32/bin/../lib/gcc/nios2-elf/4.1.2/../../../../nios2-elf/lib\libc.a(lib_a-memcmp.o)
 .debug_pubnames
                0x00002628       0x27 d:/fpga/nios2eds/bin/gnu/h-i686-mingw32/bin/../lib/gcc/nios2-elf/4.1.2/../../../../nios2-elf/lib\libc.a(lib_a-putc.o)
 .debug_pubnames
                0x0000264f       0x2c d:/fpga/nios2eds/bin/gnu/h-i686-mingw32/bin/../lib/gcc/nios2-elf/4.1.2/../../../../nios2-elf/lib\libc.a(lib_a-wbuf.o)
 .debug_pubnames
                0x0000267b       0x2a d:/fpga/nios2eds/bin/gnu/h-i686-mingw32/bin/../lib/gcc/nios2-elf/4.1.2/../../../../nios2-elf/lib\libc.a(lib_a-__atexit.o)
 .debug_pubnames
                0x000026a5       0x27 d:/fpga/nios2eds/bin/gnu/h-i686-mingw32/bin/../lib/gcc/nios2-elf/4.1.2/../../../../nios2-elf/lib\libc.a(lib_a-__call_atexit.o)
 .debug_pubnames
                0x000026cc       0x1c ../lab4_software_bsp/\libhal_bsp.a(alt_exit.o)

.debug_info     0x00000000    0x2fc65
 *(.debug_info .gnu.linkonce.wi.*)
 .debug_info    0x00000000       0x9e ../lab4_software_bsp//obj/HAL/src/crt0.o
 .debug_info    0x0000009e      0x904 obj/default/PS2_ISR.o
 .debug_info    0x000009a2      0xa66 obj/default/audio_ISR.o
 .debug_info    0x00001408      0x912 obj/default/globals.o
 .debug_info    0x00001d1a      0x8ab obj/default/interval_timer_ISR.o
 .debug_info    0x000025c5     0x1a5d obj/default/media_interrupt_HAL.o
 .debug_info    0x00004022      0x8bd obj/default/pushbutton_ISR.o
 .debug_info    0x000048df      0x214 d:/fpga/nios2eds/bin/gnu/h-i686-mingw32/bin/../lib/gcc/nios2-elf/4.1.2\libgcc.a(_si_to_sf.o)
 .debug_info    0x00004af3      0x2c1 d:/fpga/nios2eds/bin/gnu/h-i686-mingw32/bin/../lib/gcc/nios2-elf/4.1.2\libgcc.a(_sf_to_si.o)
 .debug_info    0x00004db4      0x245 d:/fpga/nios2eds/bin/gnu/h-i686-mingw32/bin/../lib/gcc/nios2-elf/4.1.2\libgcc.a(_sf_to_df.o)
 .debug_info    0x00004ff9      0x213 d:/fpga/nios2eds/bin/gnu/h-i686-mingw32/bin/../lib/gcc/nios2-elf/4.1.2\libgcc.a(_usi_to_sf.o)
 .debug_info    0x0000520c      0x1d6 d:/fpga/nios2eds/bin/gnu/h-i686-mingw32/bin/../lib/gcc/nios2-elf/4.1.2\libgcc.a(_make_df.o)
 .debug_info    0x000053e2      0x130 d:/fpga/nios2eds/bin/gnu/h-i686-mingw32/bin/../lib/gcc/nios2-elf/4.1.2\libgcc.a(_clzsi2.o)
 .debug_info    0x00005512      0x2f2 d:/fpga/nios2eds/bin/gnu/h-i686-mingw32/bin/../lib/gcc/nios2-elf/4.1.2\libgcc.a(_pack_sf.o)
 .debug_info    0x00005804      0x25a d:/fpga/nios2eds/bin/gnu/h-i686-mingw32/bin/../lib/gcc/nios2-elf/4.1.2\libgcc.a(_unpack_sf.o)
 .debug_info    0x00005a5e      0x2fc d:/fpga/nios2eds/bin/gnu/h-i686-mingw32/bin/../lib/gcc/nios2-elf/4.1.2\libgcc.a(_pack_df.o)
 .debug_info    0x00005d5a       0xc9 d:/fpga/nios2eds/bin/gnu/h-i686-mingw32/bin/../lib/gcc/nios2-elf/4.1.2\libgcc.a(_clz.o)
 .debug_info    0x00005e23      0x106 d:/fpga/nios2eds/bin/gnu/h-i686-mingw32/bin/../lib/gcc/nios2-elf/4.1.2/../../../../nios2-elf/lib\libc.a(lib_a-memcpy.o)
 .debug_info    0x00005f29      0x113 d:/fpga/nios2eds/bin/gnu/h-i686-mingw32/bin/../lib/gcc/nios2-elf/4.1.2/../../../../nios2-elf/lib\libc.a(lib_a-memset.o)
 .debug_info    0x0000603c      0x9d1 d:/fpga/nios2eds/bin/gnu/h-i686-mingw32/bin/../lib/gcc/nios2-elf/4.1.2/../../../../nios2-elf/lib\libc.a(lib_a-printf.o)
 .debug_info    0x00006a0d     0x10d5 d:/fpga/nios2eds/bin/gnu/h-i686-mingw32/bin/../lib/gcc/nios2-elf/4.1.2/../../../../nios2-elf/lib\libc.a(lib_a-vfprintf.o)
 .debug_info    0x00007ae2      0x95d d:/fpga/nios2eds/bin/gnu/h-i686-mingw32/bin/../lib/gcc/nios2-elf/4.1.2/../../../../nios2-elf/lib\libc.a(lib_a-wsetup.o)
 .debug_info    0x0000843f      0xd6f d:/fpga/nios2eds/bin/gnu/h-i686-mingw32/bin/../lib/gcc/nios2-elf/4.1.2/../../../../nios2-elf/lib\libc.a(lib_a-dtoa.o)
 .debug_info    0x000091ae      0x9fe d:/fpga/nios2eds/bin/gnu/h-i686-mingw32/bin/../lib/gcc/nios2-elf/4.1.2/../../../../nios2-elf/lib\libc.a(lib_a-fflush.o)
 .debug_info    0x00009bac      0xb72 d:/fpga/nios2eds/bin/gnu/h-i686-mingw32/bin/../lib/gcc/nios2-elf/4.1.2/../../../../nios2-elf/lib\libc.a(lib_a-findfp.o)
 .debug_info    0x0000a71e      0xbc9 d:/fpga/nios2eds/bin/gnu/h-i686-mingw32/bin/../lib/gcc/nios2-elf/4.1.2/../../../../nios2-elf/lib\libc.a(lib_a-freer.o)
 .debug_info    0x0000b2e7      0xa88 d:/fpga/nios2eds/bin/gnu/h-i686-mingw32/bin/../lib/gcc/nios2-elf/4.1.2/../../../../nios2-elf/lib\libc.a(lib_a-fvwrite.o)
 .debug_info    0x0000bd6f      0xaed d:/fpga/nios2eds/bin/gnu/h-i686-mingw32/bin/../lib/gcc/nios2-elf/4.1.2/../../../../nios2-elf/lib\libc.a(lib_a-fwalk.o)
 .debug_info    0x0000c85c      0x93d d:/fpga/nios2eds/bin/gnu/h-i686-mingw32/bin/../lib/gcc/nios2-elf/4.1.2/../../../../nios2-elf/lib\libc.a(lib_a-impure.o)
 .debug_info    0x0000d199      0xb97 d:/fpga/nios2eds/bin/gnu/h-i686-mingw32/bin/../lib/gcc/nios2-elf/4.1.2/../../../../nios2-elf/lib\libc.a(lib_a-locale.o)
 .debug_info    0x0000dd30      0xb1a d:/fpga/nios2eds/bin/gnu/h-i686-mingw32/bin/../lib/gcc/nios2-elf/4.1.2/../../../../nios2-elf/lib\libc.a(lib_a-makebuf.o)
 .debug_info    0x0000e84a      0xcd0 d:/fpga/nios2eds/bin/gnu/h-i686-mingw32/bin/../lib/gcc/nios2-elf/4.1.2/../../../../nios2-elf/lib\libc.a(lib_a-mallocr.o)
 .debug_info    0x0000f51a      0x138 d:/fpga/nios2eds/bin/gnu/h-i686-mingw32/bin/../lib/gcc/nios2-elf/4.1.2/../../../../nios2-elf/lib\libc.a(lib_a-memchr.o)
 .debug_info    0x0000f652      0x13e d:/fpga/nios2eds/bin/gnu/h-i686-mingw32/bin/../lib/gcc/nios2-elf/4.1.2/../../../../nios2-elf/lib\libc.a(lib_a-memmove.o)
 .debug_info    0x0000f790     0x1437 d:/fpga/nios2eds/bin/gnu/h-i686-mingw32/bin/../lib/gcc/nios2-elf/4.1.2/../../../../nios2-elf/lib\libc.a(lib_a-mprec.o)
 .debug_info    0x00010bc7      0xbd7 d:/fpga/nios2eds/bin/gnu/h-i686-mingw32/bin/../lib/gcc/nios2-elf/4.1.2/../../../../nios2-elf/lib\libc.a(lib_a-reallocr.o)
 .debug_info    0x0001179e       0xd7 d:/fpga/nios2eds/bin/gnu/h-i686-mingw32/bin/../lib/gcc/nios2-elf/4.1.2/../../../../nios2-elf/lib\libc.a(lib_a-s_isinfd.o)
 .debug_info    0x00011875       0xd5 d:/fpga/nios2eds/bin/gnu/h-i686-mingw32/bin/../lib/gcc/nios2-elf/4.1.2/../../../../nios2-elf/lib\libc.a(lib_a-s_isnand.o)
 .debug_info    0x0001194a      0x962 d:/fpga/nios2eds/bin/gnu/h-i686-mingw32/bin/../lib/gcc/nios2-elf/4.1.2/../../../../nios2-elf/lib\libc.a(lib_a-sbrkr.o)
 .debug_info    0x000122ac      0xaac d:/fpga/nios2eds/bin/gnu/h-i686-mingw32/bin/../lib/gcc/nios2-elf/4.1.2/../../../../nios2-elf/lib\libc.a(lib_a-stdio.o)
 .debug_info    0x00012d58       0xdd d:/fpga/nios2eds/bin/gnu/h-i686-mingw32/bin/../lib/gcc/nios2-elf/4.1.2/../../../../nios2-elf/lib\libc.a(lib_a-strcmp.o)
 .debug_info    0x00012e35       0xdb d:/fpga/nios2eds/bin/gnu/h-i686-mingw32/bin/../lib/gcc/nios2-elf/4.1.2/../../../../nios2-elf/lib\libc.a(lib_a-strlen.o)
 .debug_info    0x00012f10      0x993 d:/fpga/nios2eds/bin/gnu/h-i686-mingw32/bin/../lib/gcc/nios2-elf/4.1.2/../../../../nios2-elf/lib\libc.a(lib_a-writer.o)
 .debug_info    0x000138a3      0xa1b d:/fpga/nios2eds/bin/gnu/h-i686-mingw32/bin/../lib/gcc/nios2-elf/4.1.2/../../../../nios2-elf/lib\libc.a(lib_a-callocr.o)
 .debug_info    0x000142be      0x958 d:/fpga/nios2eds/bin/gnu/h-i686-mingw32/bin/../lib/gcc/nios2-elf/4.1.2/../../../../nios2-elf/lib\libc.a(lib_a-closer.o)
 .debug_info    0x00014c16      0x994 d:/fpga/nios2eds/bin/gnu/h-i686-mingw32/bin/../lib/gcc/nios2-elf/4.1.2/../../../../nios2-elf/lib\libc.a(lib_a-fclose.o)
 .debug_info    0x000155aa      0xafc d:/fpga/nios2eds/bin/gnu/h-i686-mingw32/bin/../lib/gcc/nios2-elf/4.1.2/../../../../nios2-elf/lib\libc.a(lib_a-fstatr.o)
 .debug_info    0x000160a6       0x8c d:/fpga/nios2eds/bin/gnu/h-i686-mingw32/bin/../lib/gcc/nios2-elf/4.1.2/../../../../nios2-elf/lib\libc.a(lib_a-int_errno.o)
 .debug_info    0x00016132      0x958 d:/fpga/nios2eds/bin/gnu/h-i686-mingw32/bin/../lib/gcc/nios2-elf/4.1.2/../../../../nios2-elf/lib\libc.a(lib_a-isattyr.o)
 .debug_info    0x00016a8a      0x981 d:/fpga/nios2eds/bin/gnu/h-i686-mingw32/bin/../lib/gcc/nios2-elf/4.1.2/../../../../nios2-elf/lib\libc.a(lib_a-lseekr.o)
 .debug_info    0x0001740b      0x98c d:/fpga/nios2eds/bin/gnu/h-i686-mingw32/bin/../lib/gcc/nios2-elf/4.1.2/../../../../nios2-elf/lib\libc.a(lib_a-readr.o)
 .debug_info    0x00017d97      0x724 d:/fpga/nios2eds/bin/gnu/h-i686-mingw32/bin/../lib/gcc/nios2-elf/4.1.2\libgcc.a(_udivdi3.o)
 .debug_info    0x000184bb      0x751 d:/fpga/nios2eds/bin/gnu/h-i686-mingw32/bin/../lib/gcc/nios2-elf/4.1.2\libgcc.a(_umoddi3.o)
 .debug_info    0x00018c0c      0x493 d:/fpga/nios2eds/bin/gnu/h-i686-mingw32/bin/../lib/gcc/nios2-elf/4.1.2\libgcc.a(_addsub_df.o)
 .debug_info    0x0001909f      0x488 d:/fpga/nios2eds/bin/gnu/h-i686-mingw32/bin/../lib/gcc/nios2-elf/4.1.2\libgcc.a(_mul_df.o)
 .debug_info    0x00019527      0x39b d:/fpga/nios2eds/bin/gnu/h-i686-mingw32/bin/../lib/gcc/nios2-elf/4.1.2\libgcc.a(_div_df.o)
 .debug_info    0x000198c2      0x29d d:/fpga/nios2eds/bin/gnu/h-i686-mingw32/bin/../lib/gcc/nios2-elf/4.1.2\libgcc.a(_eq_df.o)
 .debug_info    0x00019b5f      0x29d d:/fpga/nios2eds/bin/gnu/h-i686-mingw32/bin/../lib/gcc/nios2-elf/4.1.2\libgcc.a(_ne_df.o)
 .debug_info    0x00019dfc      0x29d d:/fpga/nios2eds/bin/gnu/h-i686-mingw32/bin/../lib/gcc/nios2-elf/4.1.2\libgcc.a(_gt_df.o)
 .debug_info    0x0001a099      0x29d d:/fpga/nios2eds/bin/gnu/h-i686-mingw32/bin/../lib/gcc/nios2-elf/4.1.2\libgcc.a(_ge_df.o)
 .debug_info    0x0001a336      0x29d d:/fpga/nios2eds/bin/gnu/h-i686-mingw32/bin/../lib/gcc/nios2-elf/4.1.2\libgcc.a(_lt_df.o)
 .debug_info    0x0001a5d3      0x218 d:/fpga/nios2eds/bin/gnu/h-i686-mingw32/bin/../lib/gcc/nios2-elf/4.1.2\libgcc.a(_si_to_df.o)
 .debug_info    0x0001a7eb      0x2cd d:/fpga/nios2eds/bin/gnu/h-i686-mingw32/bin/../lib/gcc/nios2-elf/4.1.2\libgcc.a(_df_to_si.o)
 .debug_info    0x0001aab8      0x164 d:/fpga/nios2eds/bin/gnu/h-i686-mingw32/bin/../lib/gcc/nios2-elf/4.1.2\libgcc.a(_thenan_df.o)
 .debug_info    0x0001ac1c      0x213 d:/fpga/nios2eds/bin/gnu/h-i686-mingw32/bin/../lib/gcc/nios2-elf/4.1.2\libgcc.a(_usi_to_df.o)
 .debug_info    0x0001ae2f      0x21c d:/fpga/nios2eds/bin/gnu/h-i686-mingw32/bin/../lib/gcc/nios2-elf/4.1.2\libgcc.a(lib2-divmod.o)
 .debug_info    0x0001b04b      0x215 d:/fpga/nios2eds/bin/gnu/h-i686-mingw32/bin/../lib/gcc/nios2-elf/4.1.2\libgcc.a(_muldi3.o)
 .debug_info    0x0001b260      0x268 d:/fpga/nios2eds/bin/gnu/h-i686-mingw32/bin/../lib/gcc/nios2-elf/4.1.2\libgcc.a(_unpack_df.o)
 .debug_info    0x0001b4c8      0x21b d:/fpga/nios2eds/bin/gnu/h-i686-mingw32/bin/../lib/gcc/nios2-elf/4.1.2\libgcc.a(_fpcmp_parts_df.o)
 .debug_info    0x0001b6e3      0x48a ../lab4_software_bsp/\libhal_bsp.a(alt_close.o)
 .debug_info    0x0001bb6d      0x6a2 ../lab4_software_bsp/\libhal_bsp.a(alt_dev.o)
 .debug_info    0x0001c20f      0x187 ../lab4_software_bsp/\libhal_bsp.a(alt_errno.o)
 .debug_info    0x0001c396      0x683 ../lab4_software_bsp/\libhal_bsp.a(alt_fstat.o)
 .debug_info    0x0001ca19      0x452 ../lab4_software_bsp/\libhal_bsp.a(alt_irq_register.o)
 .debug_info    0x0001ce6b      0x18a ../lab4_software_bsp/\libhal_bsp.a(alt_irq_vars.o)
 .debug_info    0x0001cff5      0x689 ../lab4_software_bsp/\libhal_bsp.a(alt_isatty.o)
 .debug_info    0x0001d67e      0x2b0 ../lab4_software_bsp/\libhal_bsp.a(alt_load.o)
 .debug_info    0x0001d92e      0x4bd ../lab4_software_bsp/\libhal_bsp.a(alt_lseek.o)
 .debug_info    0x0001ddeb      0x28f ../lab4_software_bsp/\libhal_bsp.a(alt_main.o)
 .debug_info    0x0001e07a      0xc3b ../lab4_software_bsp/\libhal_bsp.a(alt_malloc_lock.o)
 .debug_info    0x0001ecb5      0x1cb ../lab4_software_bsp/\libhal_bsp.a(alt_printf.o)
 .debug_info    0x0001ee80      0xc1f ../lab4_software_bsp/\libhal_bsp.a(alt_putchar.o)
 .debug_info    0x0001fa9f      0x6ad ../lab4_software_bsp/\libhal_bsp.a(alt_read.o)
 .debug_info    0x0002014c      0x415 ../lab4_software_bsp/\libhal_bsp.a(alt_release_fd.o)
 .debug_info    0x00020561      0x321 ../lab4_software_bsp/\libhal_bsp.a(alt_sbrk.o)
 .debug_info    0x00020882      0x6b6 ../lab4_software_bsp/\libhal_bsp.a(alt_write.o)
 .debug_info    0x00020f38      0xf06 ../lab4_software_bsp/\libhal_bsp.a(alt_sys_init.o)
 .debug_info    0x00021e3e      0x7fc ../lab4_software_bsp/\libhal_bsp.a(altera_avalon_jtag_uart_fd.o)
 .debug_info    0x0002263a      0x664 ../lab4_software_bsp/\libhal_bsp.a(altera_avalon_jtag_uart_init.o)
 .debug_info    0x00022c9e      0x466 ../lab4_software_bsp/\libhal_bsp.a(altera_avalon_jtag_uart_ioctl.o)
 .debug_info    0x00023104      0x59c ../lab4_software_bsp/\libhal_bsp.a(altera_avalon_jtag_uart_read.o)
 .debug_info    0x000236a0      0x594 ../lab4_software_bsp/\libhal_bsp.a(altera_avalon_jtag_uart_write.o)
 .debug_info    0x00023c34      0x2e4 ../lab4_software_bsp/\libhal_bsp.a(altera_avalon_timer_ts.o)
 .debug_info    0x00023f18      0x22a ../lab4_software_bsp/\libhal_bsp.a(altera_avalon_timer_vars.o)
 .debug_info    0x00024142      0xaf7 ../lab4_software_bsp/\libhal_bsp.a(altera_up_avalon_audio.o)
 .debug_info    0x00024c39      0x90c ../lab4_software_bsp/\libhal_bsp.a(altera_up_avalon_character_lcd.o)
 .debug_info    0x00025545      0x512 ../lab4_software_bsp/\libhal_bsp.a(altera_up_avalon_ethernet.o)
 .debug_info    0x00025a57      0x304 ../lab4_software_bsp/\libhal_bsp.a(altera_up_avalon_ethernet_low_level_driver.o)
 .debug_info    0x00025d5b      0x7f7 ../lab4_software_bsp/\libhal_bsp.a(altera_up_avalon_irda.o)
 .debug_info    0x00026552      0x4b1 ../lab4_software_bsp/\libhal_bsp.a(altera_up_avalon_parallel_port.o)
 .debug_info    0x00026a03      0xb10 ../lab4_software_bsp/\libhal_bsp.a(altera_up_avalon_ps2.o)
 .debug_info    0x00027513      0x802 ../lab4_software_bsp/\libhal_bsp.a(altera_up_avalon_rs232.o)
 .debug_info    0x00027d15      0x6b5 ../lab4_software_bsp/\libhal_bsp.a(altera_up_avalon_video_character_buffer_with_dma.o)
 .debug_info    0x000283ca      0xea1 ../lab4_software_bsp/\libhal_bsp.a(altera_up_avalon_video_pixel_buffer_dma.o)
 .debug_info    0x0002926b      0x498 ../lab4_software_bsp/\libhal_bsp.a(alt_alarm_start.o)
 .debug_info    0x00029703      0x17f ../lab4_software_bsp/\libhal_bsp.a(alt_dcache_flush_all.o)
 .debug_info    0x00029882      0x2da ../lab4_software_bsp/\libhal_bsp.a(alt_dev_llist_insert.o)
 .debug_info    0x00029b5c      0x132 ../lab4_software_bsp/\libhal_bsp.a(alt_do_ctors.o)
 .debug_info    0x00029c8e      0x131 ../lab4_software_bsp/\libhal_bsp.a(alt_do_dtors.o)
 .debug_info    0x00029dbf      0x43b ../lab4_software_bsp/\libhal_bsp.a(alt_find_dev.o)
 .debug_info    0x0002a1fa      0x17f ../lab4_software_bsp/\libhal_bsp.a(alt_icache_flush_all.o)
 .debug_info    0x0002a379      0x6b8 ../lab4_software_bsp/\libhal_bsp.a(alt_io_redirect.o)
 .debug_info    0x0002aa31       0xa7 ../lab4_software_bsp/\libhal_bsp.a(alt_irq_entry.o)
 .debug_info    0x0002aad8      0x2d5 ../lab4_software_bsp/\libhal_bsp.a(alt_irq_handler.o)
 .debug_info    0x0002adad      0x548 ../lab4_software_bsp/\libhal_bsp.a(alt_open.o)
 .debug_info    0x0002b2f5      0x454 ../lab4_software_bsp/\libhal_bsp.a(alt_tick.o)
 .debug_info    0x0002b749      0x18b ../lab4_software_bsp/\libhal_bsp.a(alt_usleep.o)
 .debug_info    0x0002b8d4      0x1cd ../lab4_software_bsp/\libhal_bsp.a(altera_nios2_qsys_irq.o)
 .debug_info    0x0002baa1      0x1ce ../lab4_software_bsp/\libhal_bsp.a(alt_busy_sleep.o)
 .debug_info    0x0002bc6f       0xad ../lab4_software_bsp/\libhal_bsp.a(alt_exception_entry.o)
 .debug_info    0x0002bd1c      0x442 ../lab4_software_bsp/\libhal_bsp.a(alt_find_file.o)
 .debug_info    0x0002c15e      0x483 ../lab4_software_bsp/\libhal_bsp.a(alt_get_fd.o)
 .debug_info    0x0002c5e1      0x1c7 ../lab4_software_bsp/\libhal_bsp.a(alt_icache_flush.o)
 .debug_info    0x0002c7a8      0x181 d:/fpga/nios2eds/bin/gnu/h-i686-mingw32/bin/../lib/gcc/nios2-elf/4.1.2/../../../../nios2-elf/lib\libc.a(lib_a-atexit.o)
 .debug_info    0x0002c929      0x93f d:/fpga/nios2eds/bin/gnu/h-i686-mingw32/bin/../lib/gcc/nios2-elf/4.1.2/../../../../nios2-elf/lib\libc.a(lib_a-exit.o)
 .debug_info    0x0002d268      0x115 d:/fpga/nios2eds/bin/gnu/h-i686-mingw32/bin/../lib/gcc/nios2-elf/4.1.2/../../../../nios2-elf/lib\libc.a(lib_a-memcmp.o)
 .debug_info    0x0002d37d      0x9c1 d:/fpga/nios2eds/bin/gnu/h-i686-mingw32/bin/../lib/gcc/nios2-elf/4.1.2/../../../../nios2-elf/lib\libc.a(lib_a-putc.o)
 .debug_info    0x0002dd3e      0x9ae d:/fpga/nios2eds/bin/gnu/h-i686-mingw32/bin/../lib/gcc/nios2-elf/4.1.2/../../../../nios2-elf/lib\libc.a(lib_a-wbuf.o)
 .debug_info    0x0002e6ec      0x99c d:/fpga/nios2eds/bin/gnu/h-i686-mingw32/bin/../lib/gcc/nios2-elf/4.1.2/../../../../nios2-elf/lib\libc.a(lib_a-__atexit.o)
 .debug_info    0x0002f088      0x9e2 d:/fpga/nios2eds/bin/gnu/h-i686-mingw32/bin/../lib/gcc/nios2-elf/4.1.2/../../../../nios2-elf/lib\libc.a(lib_a-__call_atexit.o)
 .debug_info    0x0002fa6a      0x1fb ../lab4_software_bsp/\libhal_bsp.a(alt_exit.o)

.debug_abbrev   0x00000000     0x98df
 *(.debug_abbrev)
 .debug_abbrev  0x00000000       0x12 ../lab4_software_bsp//obj/HAL/src/crt0.o
 .debug_abbrev  0x00000012      0x126 obj/default/PS2_ISR.o
 .debug_abbrev  0x00000138      0x152 obj/default/audio_ISR.o
 .debug_abbrev  0x0000028a       0xf1 obj/default/globals.o
 .debug_abbrev  0x0000037b      0x115 obj/default/interval_timer_ISR.o
 .debug_abbrev  0x00000490      0x20d obj/default/media_interrupt_HAL.o
 .debug_abbrev  0x0000069d      0x124 obj/default/pushbutton_ISR.o
 .debug_abbrev  0x000007c1      0x13d d:/fpga/nios2eds/bin/gnu/h-i686-mingw32/bin/../lib/gcc/nios2-elf/4.1.2\libgcc.a(_si_to_sf.o)
 .debug_abbrev  0x000008fe      0x176 d:/fpga/nios2eds/bin/gnu/h-i686-mingw32/bin/../lib/gcc/nios2-elf/4.1.2\libgcc.a(_sf_to_si.o)
 .debug_abbrev  0x00000a74      0x128 d:/fpga/nios2eds/bin/gnu/h-i686-mingw32/bin/../lib/gcc/nios2-elf/4.1.2\libgcc.a(_sf_to_df.o)
 .debug_abbrev  0x00000b9c      0x155 d:/fpga/nios2eds/bin/gnu/h-i686-mingw32/bin/../lib/gcc/nios2-elf/4.1.2\libgcc.a(_usi_to_sf.o)
 .debug_abbrev  0x00000cf1      0x10f d:/fpga/nios2eds/bin/gnu/h-i686-mingw32/bin/../lib/gcc/nios2-elf/4.1.2\libgcc.a(_make_df.o)
 .debug_abbrev  0x00000e00       0xb9 d:/fpga/nios2eds/bin/gnu/h-i686-mingw32/bin/../lib/gcc/nios2-elf/4.1.2\libgcc.a(_clzsi2.o)
 .debug_abbrev  0x00000eb9      0x1aa d:/fpga/nios2eds/bin/gnu/h-i686-mingw32/bin/../lib/gcc/nios2-elf/4.1.2\libgcc.a(_pack_sf.o)
 .debug_abbrev  0x00001063      0x158 d:/fpga/nios2eds/bin/gnu/h-i686-mingw32/bin/../lib/gcc/nios2-elf/4.1.2\libgcc.a(_unpack_sf.o)
 .debug_abbrev  0x000011bb      0x1b1 d:/fpga/nios2eds/bin/gnu/h-i686-mingw32/bin/../lib/gcc/nios2-elf/4.1.2\libgcc.a(_pack_df.o)
 .debug_abbrev  0x0000136c       0x61 d:/fpga/nios2eds/bin/gnu/h-i686-mingw32/bin/../lib/gcc/nios2-elf/4.1.2\libgcc.a(_clz.o)
 .debug_abbrev  0x000013cd       0xb5 d:/fpga/nios2eds/bin/gnu/h-i686-mingw32/bin/../lib/gcc/nios2-elf/4.1.2/../../../../nios2-elf/lib\libc.a(lib_a-memcpy.o)
 .debug_abbrev  0x00001482       0xb8 d:/fpga/nios2eds/bin/gnu/h-i686-mingw32/bin/../lib/gcc/nios2-elf/4.1.2/../../../../nios2-elf/lib\libc.a(lib_a-memset.o)
 .debug_abbrev  0x0000153a      0x191 d:/fpga/nios2eds/bin/gnu/h-i686-mingw32/bin/../lib/gcc/nios2-elf/4.1.2/../../../../nios2-elf/lib\libc.a(lib_a-printf.o)
 .debug_abbrev  0x000016cb      0x30a d:/fpga/nios2eds/bin/gnu/h-i686-mingw32/bin/../lib/gcc/nios2-elf/4.1.2/../../../../nios2-elf/lib\libc.a(lib_a-vfprintf.o)
 .debug_abbrev  0x000019d5      0x170 d:/fpga/nios2eds/bin/gnu/h-i686-mingw32/bin/../lib/gcc/nios2-elf/4.1.2/../../../../nios2-elf/lib\libc.a(lib_a-wsetup.o)
 .debug_abbrev  0x00001b45      0x232 d:/fpga/nios2eds/bin/gnu/h-i686-mingw32/bin/../lib/gcc/nios2-elf/4.1.2/../../../../nios2-elf/lib\libc.a(lib_a-dtoa.o)
 .debug_abbrev  0x00001d77      0x1c6 d:/fpga/nios2eds/bin/gnu/h-i686-mingw32/bin/../lib/gcc/nios2-elf/4.1.2/../../../../nios2-elf/lib\libc.a(lib_a-fflush.o)
 .debug_abbrev  0x00001f3d      0x24c d:/fpga/nios2eds/bin/gnu/h-i686-mingw32/bin/../lib/gcc/nios2-elf/4.1.2/../../../../nios2-elf/lib\libc.a(lib_a-findfp.o)
 .debug_abbrev  0x00002189      0x1d9 d:/fpga/nios2eds/bin/gnu/h-i686-mingw32/bin/../lib/gcc/nios2-elf/4.1.2/../../../../nios2-elf/lib\libc.a(lib_a-freer.o)
 .debug_abbrev  0x00002362      0x1a3 d:/fpga/nios2eds/bin/gnu/h-i686-mingw32/bin/../lib/gcc/nios2-elf/4.1.2/../../../../nios2-elf/lib\libc.a(lib_a-fvwrite.o)
 .debug_abbrev  0x00002505      0x1e3 d:/fpga/nios2eds/bin/gnu/h-i686-mingw32/bin/../lib/gcc/nios2-elf/4.1.2/../../../../nios2-elf/lib\libc.a(lib_a-fwalk.o)
 .debug_abbrev  0x000026e8      0x157 d:/fpga/nios2eds/bin/gnu/h-i686-mingw32/bin/../lib/gcc/nios2-elf/4.1.2/../../../../nios2-elf/lib\libc.a(lib_a-impure.o)
 .debug_abbrev  0x0000283f      0x1ed d:/fpga/nios2eds/bin/gnu/h-i686-mingw32/bin/../lib/gcc/nios2-elf/4.1.2/../../../../nios2-elf/lib\libc.a(lib_a-locale.o)
 .debug_abbrev  0x00002a2c      0x197 d:/fpga/nios2eds/bin/gnu/h-i686-mingw32/bin/../lib/gcc/nios2-elf/4.1.2/../../../../nios2-elf/lib\libc.a(lib_a-makebuf.o)
 .debug_abbrev  0x00002bc3      0x216 d:/fpga/nios2eds/bin/gnu/h-i686-mingw32/bin/../lib/gcc/nios2-elf/4.1.2/../../../../nios2-elf/lib\libc.a(lib_a-mallocr.o)
 .debug_abbrev  0x00002dd9       0xb5 d:/fpga/nios2eds/bin/gnu/h-i686-mingw32/bin/../lib/gcc/nios2-elf/4.1.2/../../../../nios2-elf/lib\libc.a(lib_a-memchr.o)
 .debug_abbrev  0x00002e8e       0xb5 d:/fpga/nios2eds/bin/gnu/h-i686-mingw32/bin/../lib/gcc/nios2-elf/4.1.2/../../../../nios2-elf/lib\libc.a(lib_a-memmove.o)
 .debug_abbrev  0x00002f43      0x297 d:/fpga/nios2eds/bin/gnu/h-i686-mingw32/bin/../lib/gcc/nios2-elf/4.1.2/../../../../nios2-elf/lib\libc.a(lib_a-mprec.o)
 .debug_abbrev  0x000031da      0x1c3 d:/fpga/nios2eds/bin/gnu/h-i686-mingw32/bin/../lib/gcc/nios2-elf/4.1.2/../../../../nios2-elf/lib\libc.a(lib_a-reallocr.o)
 .debug_abbrev  0x0000339d       0x79 d:/fpga/nios2eds/bin/gnu/h-i686-mingw32/bin/../lib/gcc/nios2-elf/4.1.2/../../../../nios2-elf/lib\libc.a(lib_a-s_isinfd.o)
 .debug_abbrev  0x00003416       0x79 d:/fpga/nios2eds/bin/gnu/h-i686-mingw32/bin/../lib/gcc/nios2-elf/4.1.2/../../../../nios2-elf/lib\libc.a(lib_a-s_isnand.o)
 .debug_abbrev  0x0000348f      0x18c d:/fpga/nios2eds/bin/gnu/h-i686-mingw32/bin/../lib/gcc/nios2-elf/4.1.2/../../../../nios2-elf/lib\libc.a(lib_a-sbrkr.o)
 .debug_abbrev  0x0000361b      0x1c9 d:/fpga/nios2eds/bin/gnu/h-i686-mingw32/bin/../lib/gcc/nios2-elf/4.1.2/../../../../nios2-elf/lib\libc.a(lib_a-stdio.o)
 .debug_abbrev  0x000037e4       0x80 d:/fpga/nios2eds/bin/gnu/h-i686-mingw32/bin/../lib/gcc/nios2-elf/4.1.2/../../../../nios2-elf/lib\libc.a(lib_a-strcmp.o)
 .debug_abbrev  0x00003864       0x8b d:/fpga/nios2eds/bin/gnu/h-i686-mingw32/bin/../lib/gcc/nios2-elf/4.1.2/../../../../nios2-elf/lib\libc.a(lib_a-strlen.o)
 .debug_abbrev  0x000038ef      0x184 d:/fpga/nios2eds/bin/gnu/h-i686-mingw32/bin/../lib/gcc/nios2-elf/4.1.2/../../../../nios2-elf/lib\libc.a(lib_a-writer.o)
 .debug_abbrev  0x00003a73      0x1b8 d:/fpga/nios2eds/bin/gnu/h-i686-mingw32/bin/../lib/gcc/nios2-elf/4.1.2/../../../../nios2-elf/lib\libc.a(lib_a-callocr.o)
 .debug_abbrev  0x00003c2b      0x17f d:/fpga/nios2eds/bin/gnu/h-i686-mingw32/bin/../lib/gcc/nios2-elf/4.1.2/../../../../nios2-elf/lib\libc.a(lib_a-closer.o)
 .debug_abbrev  0x00003daa      0x1a7 d:/fpga/nios2eds/bin/gnu/h-i686-mingw32/bin/../lib/gcc/nios2-elf/4.1.2/../../../../nios2-elf/lib\libc.a(lib_a-fclose.o)
 .debug_abbrev  0x00003f51      0x18e d:/fpga/nios2eds/bin/gnu/h-i686-mingw32/bin/../lib/gcc/nios2-elf/4.1.2/../../../../nios2-elf/lib\libc.a(lib_a-fstatr.o)
 .debug_abbrev  0x000040df       0x3b d:/fpga/nios2eds/bin/gnu/h-i686-mingw32/bin/../lib/gcc/nios2-elf/4.1.2/../../../../nios2-elf/lib\libc.a(lib_a-int_errno.o)
 .debug_abbrev  0x0000411a      0x17f d:/fpga/nios2eds/bin/gnu/h-i686-mingw32/bin/../lib/gcc/nios2-elf/4.1.2/../../../../nios2-elf/lib\libc.a(lib_a-isattyr.o)
 .debug_abbrev  0x00004299      0x18e d:/fpga/nios2eds/bin/gnu/h-i686-mingw32/bin/../lib/gcc/nios2-elf/4.1.2/../../../../nios2-elf/lib\libc.a(lib_a-lseekr.o)
 .debug_abbrev  0x00004427      0x17f d:/fpga/nios2eds/bin/gnu/h-i686-mingw32/bin/../lib/gcc/nios2-elf/4.1.2/../../../../nios2-elf/lib\libc.a(lib_a-readr.o)
 .debug_abbrev  0x000045a6      0x16b d:/fpga/nios2eds/bin/gnu/h-i686-mingw32/bin/../lib/gcc/nios2-elf/4.1.2\libgcc.a(_udivdi3.o)
 .debug_abbrev  0x00004711      0x18e d:/fpga/nios2eds/bin/gnu/h-i686-mingw32/bin/../lib/gcc/nios2-elf/4.1.2\libgcc.a(_umoddi3.o)
 .debug_abbrev  0x0000489f      0x1d2 d:/fpga/nios2eds/bin/gnu/h-i686-mingw32/bin/../lib/gcc/nios2-elf/4.1.2\libgcc.a(_addsub_df.o)
 .debug_abbrev  0x00004a71      0x204 d:/fpga/nios2eds/bin/gnu/h-i686-mingw32/bin/../lib/gcc/nios2-elf/4.1.2\libgcc.a(_mul_df.o)
 .debug_abbrev  0x00004c75      0x1e3 d:/fpga/nios2eds/bin/gnu/h-i686-mingw32/bin/../lib/gcc/nios2-elf/4.1.2\libgcc.a(_div_df.o)
 .debug_abbrev  0x00004e58      0x151 d:/fpga/nios2eds/bin/gnu/h-i686-mingw32/bin/../lib/gcc/nios2-elf/4.1.2\libgcc.a(_eq_df.o)
 .debug_abbrev  0x00004fa9      0x151 d:/fpga/nios2eds/bin/gnu/h-i686-mingw32/bin/../lib/gcc/nios2-elf/4.1.2\libgcc.a(_ne_df.o)
 .debug_abbrev  0x000050fa      0x151 d:/fpga/nios2eds/bin/gnu/h-i686-mingw32/bin/../lib/gcc/nios2-elf/4.1.2\libgcc.a(_gt_df.o)
 .debug_abbrev  0x0000524b      0x151 d:/fpga/nios2eds/bin/gnu/h-i686-mingw32/bin/../lib/gcc/nios2-elf/4.1.2\libgcc.a(_ge_df.o)
 .debug_abbrev  0x0000539c      0x151 d:/fpga/nios2eds/bin/gnu/h-i686-mingw32/bin/../lib/gcc/nios2-elf/4.1.2\libgcc.a(_lt_df.o)
 .debug_abbrev  0x000054ed      0x13f d:/fpga/nios2eds/bin/gnu/h-i686-mingw32/bin/../lib/gcc/nios2-elf/4.1.2\libgcc.a(_si_to_df.o)
 .debug_abbrev  0x0000562c      0x176 d:/fpga/nios2eds/bin/gnu/h-i686-mingw32/bin/../lib/gcc/nios2-elf/4.1.2\libgcc.a(_df_to_si.o)
 .debug_abbrev  0x000057a2       0xba d:/fpga/nios2eds/bin/gnu/h-i686-mingw32/bin/../lib/gcc/nios2-elf/4.1.2\libgcc.a(_thenan_df.o)
 .debug_abbrev  0x0000585c      0x155 d:/fpga/nios2eds/bin/gnu/h-i686-mingw32/bin/../lib/gcc/nios2-elf/4.1.2\libgcc.a(_usi_to_df.o)
 .debug_abbrev  0x000059b1       0xe0 d:/fpga/nios2eds/bin/gnu/h-i686-mingw32/bin/../lib/gcc/nios2-elf/4.1.2\libgcc.a(lib2-divmod.o)
 .debug_abbrev  0x00005a91       0xee d:/fpga/nios2eds/bin/gnu/h-i686-mingw32/bin/../lib/gcc/nios2-elf/4.1.2\libgcc.a(_muldi3.o)
 .debug_abbrev  0x00005b7f      0x149 d:/fpga/nios2eds/bin/gnu/h-i686-mingw32/bin/../lib/gcc/nios2-elf/4.1.2\libgcc.a(_unpack_df.o)
 .debug_abbrev  0x00005cc8      0x132 d:/fpga/nios2eds/bin/gnu/h-i686-mingw32/bin/../lib/gcc/nios2-elf/4.1.2\libgcc.a(_fpcmp_parts_df.o)
 .debug_abbrev  0x00005dfa       0xfb ../lab4_software_bsp/\libhal_bsp.a(alt_close.o)
 .debug_abbrev  0x00005ef5       0xc7 ../lab4_software_bsp/\libhal_bsp.a(alt_dev.o)
 .debug_abbrev  0x00005fbc       0x5e ../lab4_software_bsp/\libhal_bsp.a(alt_errno.o)
 .debug_abbrev  0x0000601a       0xfb ../lab4_software_bsp/\libhal_bsp.a(alt_fstat.o)
 .debug_abbrev  0x00006115      0x180 ../lab4_software_bsp/\libhal_bsp.a(alt_irq_register.o)
 .debug_abbrev  0x00006295       0x44 ../lab4_software_bsp/\libhal_bsp.a(alt_irq_vars.o)
 .debug_abbrev  0x000062d9       0xfb ../lab4_software_bsp/\libhal_bsp.a(alt_isatty.o)
 .debug_abbrev  0x000063d4       0x88 ../lab4_software_bsp/\libhal_bsp.a(alt_load.o)
 .debug_abbrev  0x0000645c       0xfb ../lab4_software_bsp/\libhal_bsp.a(alt_lseek.o)
 .debug_abbrev  0x00006557       0xbe ../lab4_software_bsp/\libhal_bsp.a(alt_main.o)
 .debug_abbrev  0x00006615      0x181 ../lab4_software_bsp/\libhal_bsp.a(alt_malloc_lock.o)
 .debug_abbrev  0x00006796       0x91 ../lab4_software_bsp/\libhal_bsp.a(alt_printf.o)
 .debug_abbrev  0x00006827      0x17f ../lab4_software_bsp/\libhal_bsp.a(alt_putchar.o)
 .debug_abbrev  0x000069a6       0xfb ../lab4_software_bsp/\libhal_bsp.a(alt_read.o)
 .debug_abbrev  0x00006aa1       0xc1 ../lab4_software_bsp/\libhal_bsp.a(alt_release_fd.o)
 .debug_abbrev  0x00006b62      0x11c ../lab4_software_bsp/\libhal_bsp.a(alt_sbrk.o)
 .debug_abbrev  0x00006c7e      0x100 ../lab4_software_bsp/\libhal_bsp.a(alt_write.o)
 .debug_abbrev  0x00006d7e      0x18f ../lab4_software_bsp/\libhal_bsp.a(alt_sys_init.o)
 .debug_abbrev  0x00006f0d       0xf7 ../lab4_software_bsp/\libhal_bsp.a(altera_avalon_jtag_uart_fd.o)
 .debug_abbrev  0x00007004      0x17c ../lab4_software_bsp/\libhal_bsp.a(altera_avalon_jtag_uart_init.o)
 .debug_abbrev  0x00007180       0xf0 ../lab4_software_bsp/\libhal_bsp.a(altera_avalon_jtag_uart_ioctl.o)
 .debug_abbrev  0x00007270      0x191 ../lab4_software_bsp/\libhal_bsp.a(altera_avalon_jtag_uart_read.o)
 .debug_abbrev  0x00007401      0x18d ../lab4_software_bsp/\libhal_bsp.a(altera_avalon_jtag_uart_write.o)
 .debug_abbrev  0x0000758e       0xbe ../lab4_software_bsp/\libhal_bsp.a(altera_avalon_timer_ts.o)
 .debug_abbrev  0x0000764c       0x87 ../lab4_software_bsp/\libhal_bsp.a(altera_avalon_timer_vars.o)
 .debug_abbrev  0x000076d3      0x164 ../lab4_software_bsp/\libhal_bsp.a(altera_up_avalon_audio.o)
 .debug_abbrev  0x00007837      0x127 ../lab4_software_bsp/\libhal_bsp.a(altera_up_avalon_character_lcd.o)
 .debug_abbrev  0x0000795e      0x114 ../lab4_software_bsp/\libhal_bsp.a(altera_up_avalon_ethernet.o)
 .debug_abbrev  0x00007a72       0x8d ../lab4_software_bsp/\libhal_bsp.a(altera_up_avalon_ethernet_low_level_driver.o)
 .debug_abbrev  0x00007aff      0x120 ../lab4_software_bsp/\libhal_bsp.a(altera_up_avalon_irda.o)
 .debug_abbrev  0x00007c1f       0xf2 ../lab4_software_bsp/\libhal_bsp.a(altera_up_avalon_parallel_port.o)
 .debug_abbrev  0x00007d11      0x16d ../lab4_software_bsp/\libhal_bsp.a(altera_up_avalon_ps2.o)
 .debug_abbrev  0x00007e7e      0x120 ../lab4_software_bsp/\libhal_bsp.a(altera_up_avalon_rs232.o)
 .debug_abbrev  0x00007f9e      0x111 ../lab4_software_bsp/\libhal_bsp.a(altera_up_avalon_video_character_buffer_with_dma.o)
 .debug_abbrev  0x000080af      0x196 ../lab4_software_bsp/\libhal_bsp.a(altera_up_avalon_video_pixel_buffer_dma.o)
 .debug_abbrev  0x00008245      0x172 ../lab4_software_bsp/\libhal_bsp.a(alt_alarm_start.o)
 .debug_abbrev  0x000083b7       0x3f ../lab4_software_bsp/\libhal_bsp.a(alt_dcache_flush_all.o)
 .debug_abbrev  0x000083f6       0xf6 ../lab4_software_bsp/\libhal_bsp.a(alt_dev_llist_insert.o)
 .debug_abbrev  0x000084ec       0x76 ../lab4_software_bsp/\libhal_bsp.a(alt_do_ctors.o)
 .debug_abbrev  0x00008562       0x76 ../lab4_software_bsp/\libhal_bsp.a(alt_do_dtors.o)
 .debug_abbrev  0x000085d8       0xcf ../lab4_software_bsp/\libhal_bsp.a(alt_find_dev.o)
 .debug_abbrev  0x000086a7       0x3f ../lab4_software_bsp/\libhal_bsp.a(alt_icache_flush_all.o)
 .debug_abbrev  0x000086e6       0xf0 ../lab4_software_bsp/\libhal_bsp.a(alt_io_redirect.o)
 .debug_abbrev  0x000087d6       0x12 ../lab4_software_bsp/\libhal_bsp.a(alt_irq_entry.o)
 .debug_abbrev  0x000087e8      0x124 ../lab4_software_bsp/\libhal_bsp.a(alt_irq_handler.o)
 .debug_abbrev  0x0000890c      0x112 ../lab4_software_bsp/\libhal_bsp.a(alt_open.o)
 .debug_abbrev  0x00008a1e      0x161 ../lab4_software_bsp/\libhal_bsp.a(alt_tick.o)
 .debug_abbrev  0x00008b7f       0x5d ../lab4_software_bsp/\libhal_bsp.a(alt_usleep.o)
 .debug_abbrev  0x00008bdc       0x64 ../lab4_software_bsp/\libhal_bsp.a(altera_nios2_qsys_irq.o)
 .debug_abbrev  0x00008c40       0x6c ../lab4_software_bsp/\libhal_bsp.a(alt_busy_sleep.o)
 .debug_abbrev  0x00008cac       0x12 ../lab4_software_bsp/\libhal_bsp.a(alt_exception_entry.o)
 .debug_abbrev  0x00008cbe       0xcf ../lab4_software_bsp/\libhal_bsp.a(alt_find_file.o)
 .debug_abbrev  0x00008d8d       0xfb ../lab4_software_bsp/\libhal_bsp.a(alt_get_fd.o)
 .debug_abbrev  0x00008e88       0x7a ../lab4_software_bsp/\libhal_bsp.a(alt_icache_flush.o)
 .debug_abbrev  0x00008f02       0xb7 d:/fpga/nios2eds/bin/gnu/h-i686-mingw32/bin/../lib/gcc/nios2-elf/4.1.2/../../../../nios2-elf/lib\libc.a(lib_a-atexit.o)
 .debug_abbrev  0x00008fb9      0x16e d:/fpga/nios2eds/bin/gnu/h-i686-mingw32/bin/../lib/gcc/nios2-elf/4.1.2/../../../../nios2-elf/lib\libc.a(lib_a-exit.o)
 .debug_abbrev  0x00009127       0x7c d:/fpga/nios2eds/bin/gnu/h-i686-mingw32/bin/../lib/gcc/nios2-elf/4.1.2/../../../../nios2-elf/lib\libc.a(lib_a-memcmp.o)
 .debug_abbrev  0x000091a3      0x17f d:/fpga/nios2eds/bin/gnu/h-i686-mingw32/bin/../lib/gcc/nios2-elf/4.1.2/../../../../nios2-elf/lib\libc.a(lib_a-putc.o)
 .debug_abbrev  0x00009322      0x198 d:/fpga/nios2eds/bin/gnu/h-i686-mingw32/bin/../lib/gcc/nios2-elf/4.1.2/../../../../nios2-elf/lib\libc.a(lib_a-wbuf.o)
 .debug_abbrev  0x000094ba      0x1ae d:/fpga/nios2eds/bin/gnu/h-i686-mingw32/bin/../lib/gcc/nios2-elf/4.1.2/../../../../nios2-elf/lib\libc.a(lib_a-__atexit.o)
 .debug_abbrev  0x00009668      0x1de d:/fpga/nios2eds/bin/gnu/h-i686-mingw32/bin/../lib/gcc/nios2-elf/4.1.2/../../../../nios2-elf/lib\libc.a(lib_a-__call_atexit.o)
 .debug_abbrev  0x00009846       0x99 ../lab4_software_bsp/\libhal_bsp.a(alt_exit.o)

.debug_line     0x00000000    0x1959c
 *(.debug_line)
 .debug_line    0x00000000       0x6c ../lab4_software_bsp//obj/HAL/src/crt0.o
 .debug_line    0x0000006c      0x3c2 obj/default/PS2_ISR.o
 .debug_line    0x0000042e      0x4bc obj/default/audio_ISR.o
 .debug_line    0x000008ea      0x338 obj/default/globals.o
 .debug_line    0x00000c22      0x375 obj/default/interval_timer_ISR.o
 .debug_line    0x00000f97      0xd1e obj/default/media_interrupt_HAL.o
 .debug_line    0x00001cb5      0x3a9 obj/default/pushbutton_ISR.o
 .debug_line    0x0000205e      0x187 d:/fpga/nios2eds/bin/gnu/h-i686-mingw32/bin/../lib/gcc/nios2-elf/4.1.2\libgcc.a(_si_to_sf.o)
 .debug_line    0x000021e5      0x141 d:/fpga/nios2eds/bin/gnu/h-i686-mingw32/bin/../lib/gcc/nios2-elf/4.1.2\libgcc.a(_sf_to_si.o)
 .debug_line    0x00002326       0xd1 d:/fpga/nios2eds/bin/gnu/h-i686-mingw32/bin/../lib/gcc/nios2-elf/4.1.2\libgcc.a(_sf_to_df.o)
 .debug_line    0x000023f7      0x183 d:/fpga/nios2eds/bin/gnu/h-i686-mingw32/bin/../lib/gcc/nios2-elf/4.1.2\libgcc.a(_usi_to_sf.o)
 .debug_line    0x0000257a       0xe9 d:/fpga/nios2eds/bin/gnu/h-i686-mingw32/bin/../lib/gcc/nios2-elf/4.1.2\libgcc.a(_make_df.o)
 .debug_line    0x00002663      0x105 d:/fpga/nios2eds/bin/gnu/h-i686-mingw32/bin/../lib/gcc/nios2-elf/4.1.2\libgcc.a(_clzsi2.o)
 .debug_line    0x00002768      0x1ca d:/fpga/nios2eds/bin/gnu/h-i686-mingw32/bin/../lib/gcc/nios2-elf/4.1.2\libgcc.a(_pack_sf.o)
 .debug_line    0x00002932      0x197 d:/fpga/nios2eds/bin/gnu/h-i686-mingw32/bin/../lib/gcc/nios2-elf/4.1.2\libgcc.a(_unpack_sf.o)
 .debug_line    0x00002ac9      0x222 d:/fpga/nios2eds/bin/gnu/h-i686-mingw32/bin/../lib/gcc/nios2-elf/4.1.2\libgcc.a(_pack_df.o)
 .debug_line    0x00002ceb       0xaa d:/fpga/nios2eds/bin/gnu/h-i686-mingw32/bin/../lib/gcc/nios2-elf/4.1.2\libgcc.a(_clz.o)
 .debug_line    0x00002d95      0x1ac d:/fpga/nios2eds/bin/gnu/h-i686-mingw32/bin/../lib/gcc/nios2-elf/4.1.2/../../../../nios2-elf/lib\libc.a(lib_a-memcpy.o)
 .debug_line    0x00002f41      0x301 d:/fpga/nios2eds/bin/gnu/h-i686-mingw32/bin/../lib/gcc/nios2-elf/4.1.2/../../../../nios2-elf/lib\libc.a(lib_a-memset.o)
 .debug_line    0x00003242      0x29b d:/fpga/nios2eds/bin/gnu/h-i686-mingw32/bin/../lib/gcc/nios2-elf/4.1.2/../../../../nios2-elf/lib\libc.a(lib_a-printf.o)
 .debug_line    0x000034dd     0x110c d:/fpga/nios2eds/bin/gnu/h-i686-mingw32/bin/../lib/gcc/nios2-elf/4.1.2/../../../../nios2-elf/lib\libc.a(lib_a-vfprintf.o)
 .debug_line    0x000045e9      0x2f0 d:/fpga/nios2eds/bin/gnu/h-i686-mingw32/bin/../lib/gcc/nios2-elf/4.1.2/../../../../nios2-elf/lib\libc.a(lib_a-wsetup.o)
 .debug_line    0x000048d9     0x12c6 d:/fpga/nios2eds/bin/gnu/h-i686-mingw32/bin/../lib/gcc/nios2-elf/4.1.2/../../../../nios2-elf/lib\libc.a(lib_a-dtoa.o)
 .debug_line    0x00005b9f      0x40d d:/fpga/nios2eds/bin/gnu/h-i686-mingw32/bin/../lib/gcc/nios2-elf/4.1.2/../../../../nios2-elf/lib\libc.a(lib_a-fflush.o)
 .debug_line    0x00005fac      0x601 d:/fpga/nios2eds/bin/gnu/h-i686-mingw32/bin/../lib/gcc/nios2-elf/4.1.2/../../../../nios2-elf/lib\libc.a(lib_a-findfp.o)
 .debug_line    0x000065ad      0x5eb d:/fpga/nios2eds/bin/gnu/h-i686-mingw32/bin/../lib/gcc/nios2-elf/4.1.2/../../../../nios2-elf/lib\libc.a(lib_a-freer.o)
 .debug_line    0x00006b98      0x641 d:/fpga/nios2eds/bin/gnu/h-i686-mingw32/bin/../lib/gcc/nios2-elf/4.1.2/../../../../nios2-elf/lib\libc.a(lib_a-fvwrite.o)
 .debug_line    0x000071d9      0x34a d:/fpga/nios2eds/bin/gnu/h-i686-mingw32/bin/../lib/gcc/nios2-elf/4.1.2/../../../../nios2-elf/lib\libc.a(lib_a-fwalk.o)
 .debug_line    0x00007523      0x22d d:/fpga/nios2eds/bin/gnu/h-i686-mingw32/bin/../lib/gcc/nios2-elf/4.1.2/../../../../nios2-elf/lib\libc.a(lib_a-impure.o)
 .debug_line    0x00007750      0x2c8 d:/fpga/nios2eds/bin/gnu/h-i686-mingw32/bin/../lib/gcc/nios2-elf/4.1.2/../../../../nios2-elf/lib\libc.a(lib_a-locale.o)
 .debug_line    0x00007a18      0x3c3 d:/fpga/nios2eds/bin/gnu/h-i686-mingw32/bin/../lib/gcc/nios2-elf/4.1.2/../../../../nios2-elf/lib\libc.a(lib_a-makebuf.o)
 .debug_line    0x00007ddb      0x80a d:/fpga/nios2eds/bin/gnu/h-i686-mingw32/bin/../lib/gcc/nios2-elf/4.1.2/../../../../nios2-elf/lib\libc.a(lib_a-mallocr.o)
 .debug_line    0x000085e5      0x303 d:/fpga/nios2eds/bin/gnu/h-i686-mingw32/bin/../lib/gcc/nios2-elf/4.1.2/../../../../nios2-elf/lib\libc.a(lib_a-memchr.o)
 .debug_line    0x000088e8      0x30a d:/fpga/nios2eds/bin/gnu/h-i686-mingw32/bin/../lib/gcc/nios2-elf/4.1.2/../../../../nios2-elf/lib\libc.a(lib_a-memmove.o)
 .debug_line    0x00008bf2     0x1243 d:/fpga/nios2eds/bin/gnu/h-i686-mingw32/bin/../lib/gcc/nios2-elf/4.1.2/../../../../nios2-elf/lib\libc.a(lib_a-mprec.o)
 .debug_line    0x00009e35      0x58a d:/fpga/nios2eds/bin/gnu/h-i686-mingw32/bin/../lib/gcc/nios2-elf/4.1.2/../../../../nios2-elf/lib\libc.a(lib_a-reallocr.o)
 .debug_line    0x0000a3bf      0x222 d:/fpga/nios2eds/bin/gnu/h-i686-mingw32/bin/../lib/gcc/nios2-elf/4.1.2/../../../../nios2-elf/lib\libc.a(lib_a-s_isinfd.o)
 .debug_line    0x0000a5e1      0x21a d:/fpga/nios2eds/bin/gnu/h-i686-mingw32/bin/../lib/gcc/nios2-elf/4.1.2/../../../../nios2-elf/lib\libc.a(lib_a-s_isnand.o)
 .debug_line    0x0000a7fb      0x299 d:/fpga/nios2eds/bin/gnu/h-i686-mingw32/bin/../lib/gcc/nios2-elf/4.1.2/../../../../nios2-elf/lib\libc.a(lib_a-sbrkr.o)
 .debug_line    0x0000aa94      0x38c d:/fpga/nios2eds/bin/gnu/h-i686-mingw32/bin/../lib/gcc/nios2-elf/4.1.2/../../../../nios2-elf/lib\libc.a(lib_a-stdio.o)
 .debug_line    0x0000ae20      0x2d5 d:/fpga/nios2eds/bin/gnu/h-i686-mingw32/bin/../lib/gcc/nios2-elf/4.1.2/../../../../nios2-elf/lib\libc.a(lib_a-strcmp.o)
 .debug_line    0x0000b0f5      0x26d d:/fpga/nios2eds/bin/gnu/h-i686-mingw32/bin/../lib/gcc/nios2-elf/4.1.2/../../../../nios2-elf/lib\libc.a(lib_a-strlen.o)
 .debug_line    0x0000b362      0x29a d:/fpga/nios2eds/bin/gnu/h-i686-mingw32/bin/../lib/gcc/nios2-elf/4.1.2/../../../../nios2-elf/lib\libc.a(lib_a-writer.o)
 .debug_line    0x0000b5fc      0x25c d:/fpga/nios2eds/bin/gnu/h-i686-mingw32/bin/../lib/gcc/nios2-elf/4.1.2/../../../../nios2-elf/lib\libc.a(lib_a-callocr.o)
 .debug_line    0x0000b858      0x29a d:/fpga/nios2eds/bin/gnu/h-i686-mingw32/bin/../lib/gcc/nios2-elf/4.1.2/../../../../nios2-elf/lib\libc.a(lib_a-closer.o)
 .debug_line    0x0000baf2      0x2e8 d:/fpga/nios2eds/bin/gnu/h-i686-mingw32/bin/../lib/gcc/nios2-elf/4.1.2/../../../../nios2-elf/lib\libc.a(lib_a-fclose.o)
 .debug_line    0x0000bdda      0x264 d:/fpga/nios2eds/bin/gnu/h-i686-mingw32/bin/../lib/gcc/nios2-elf/4.1.2/../../../../nios2-elf/lib\libc.a(lib_a-fstatr.o)
 .debug_line    0x0000c03e      0x1df d:/fpga/nios2eds/bin/gnu/h-i686-mingw32/bin/../lib/gcc/nios2-elf/4.1.2/../../../../nios2-elf/lib\libc.a(lib_a-int_errno.o)
 .debug_line    0x0000c21d      0x29b d:/fpga/nios2eds/bin/gnu/h-i686-mingw32/bin/../lib/gcc/nios2-elf/4.1.2/../../../../nios2-elf/lib\libc.a(lib_a-isattyr.o)
 .debug_line    0x0000c4b8      0x29a d:/fpga/nios2eds/bin/gnu/h-i686-mingw32/bin/../lib/gcc/nios2-elf/4.1.2/../../../../nios2-elf/lib\libc.a(lib_a-lseekr.o)
 .debug_line    0x0000c752      0x299 d:/fpga/nios2eds/bin/gnu/h-i686-mingw32/bin/../lib/gcc/nios2-elf/4.1.2/../../../../nios2-elf/lib\libc.a(lib_a-readr.o)
 .debug_line    0x0000c9eb      0x2f2 d:/fpga/nios2eds/bin/gnu/h-i686-mingw32/bin/../lib/gcc/nios2-elf/4.1.2\libgcc.a(_udivdi3.o)
 .debug_line    0x0000ccdd      0x37d d:/fpga/nios2eds/bin/gnu/h-i686-mingw32/bin/../lib/gcc/nios2-elf/4.1.2\libgcc.a(_umoddi3.o)
 .debug_line    0x0000d05a      0x430 d:/fpga/nios2eds/bin/gnu/h-i686-mingw32/bin/../lib/gcc/nios2-elf/4.1.2\libgcc.a(_addsub_df.o)
 .debug_line    0x0000d48a      0x3e5 d:/fpga/nios2eds/bin/gnu/h-i686-mingw32/bin/../lib/gcc/nios2-elf/4.1.2\libgcc.a(_mul_df.o)
 .debug_line    0x0000d86f      0x301 d:/fpga/nios2eds/bin/gnu/h-i686-mingw32/bin/../lib/gcc/nios2-elf/4.1.2\libgcc.a(_div_df.o)
 .debug_line    0x0000db70      0x129 d:/fpga/nios2eds/bin/gnu/h-i686-mingw32/bin/../lib/gcc/nios2-elf/4.1.2\libgcc.a(_eq_df.o)
 .debug_line    0x0000dc99      0x129 d:/fpga/nios2eds/bin/gnu/h-i686-mingw32/bin/../lib/gcc/nios2-elf/4.1.2\libgcc.a(_ne_df.o)
 .debug_line    0x0000ddc2      0x129 d:/fpga/nios2eds/bin/gnu/h-i686-mingw32/bin/../lib/gcc/nios2-elf/4.1.2\libgcc.a(_gt_df.o)
 .debug_line    0x0000deeb      0x129 d:/fpga/nios2eds/bin/gnu/h-i686-mingw32/bin/../lib/gcc/nios2-elf/4.1.2\libgcc.a(_ge_df.o)
 .debug_line    0x0000e014      0x129 d:/fpga/nios2eds/bin/gnu/h-i686-mingw32/bin/../lib/gcc/nios2-elf/4.1.2\libgcc.a(_lt_df.o)
 .debug_line    0x0000e13d      0x175 d:/fpga/nios2eds/bin/gnu/h-i686-mingw32/bin/../lib/gcc/nios2-elf/4.1.2\libgcc.a(_si_to_df.o)
 .debug_line    0x0000e2b2      0x149 d:/fpga/nios2eds/bin/gnu/h-i686-mingw32/bin/../lib/gcc/nios2-elf/4.1.2\libgcc.a(_df_to_si.o)
 .debug_line    0x0000e3fb       0x94 d:/fpga/nios2eds/bin/gnu/h-i686-mingw32/bin/../lib/gcc/nios2-elf/4.1.2\libgcc.a(_thenan_df.o)
 .debug_line    0x0000e48f      0x189 d:/fpga/nios2eds/bin/gnu/h-i686-mingw32/bin/../lib/gcc/nios2-elf/4.1.2\libgcc.a(_usi_to_df.o)
 .debug_line    0x0000e618      0x24f d:/fpga/nios2eds/bin/gnu/h-i686-mingw32/bin/../lib/gcc/nios2-elf/4.1.2\libgcc.a(lib2-divmod.o)
 .debug_line    0x0000e867      0x11f d:/fpga/nios2eds/bin/gnu/h-i686-mingw32/bin/../lib/gcc/nios2-elf/4.1.2\libgcc.a(_muldi3.o)
 .debug_line    0x0000e986      0x1e4 d:/fpga/nios2eds/bin/gnu/h-i686-mingw32/bin/../lib/gcc/nios2-elf/4.1.2\libgcc.a(_unpack_df.o)
 .debug_line    0x0000eb6a      0x187 d:/fpga/nios2eds/bin/gnu/h-i686-mingw32/bin/../lib/gcc/nios2-elf/4.1.2\libgcc.a(_fpcmp_parts_df.o)
 .debug_line    0x0000ecf1      0x285 ../lab4_software_bsp/\libhal_bsp.a(alt_close.o)
 .debug_line    0x0000ef76      0x240 ../lab4_software_bsp/\libhal_bsp.a(alt_dev.o)
 .debug_line    0x0000f1b6      0x196 ../lab4_software_bsp/\libhal_bsp.a(alt_errno.o)
 .debug_line    0x0000f34c      0x28d ../lab4_software_bsp/\libhal_bsp.a(alt_fstat.o)
 .debug_line    0x0000f5d9      0x2ef ../lab4_software_bsp/\libhal_bsp.a(alt_irq_register.o)
 .debug_line    0x0000f8c8       0x72 ../lab4_software_bsp/\libhal_bsp.a(alt_irq_vars.o)
 .debug_line    0x0000f93a      0x28e ../lab4_software_bsp/\libhal_bsp.a(alt_isatty.o)
 .debug_line    0x0000fbc8      0x203 ../lab4_software_bsp/\libhal_bsp.a(alt_load.o)
 .debug_line    0x0000fdcb      0x28d ../lab4_software_bsp/\libhal_bsp.a(alt_lseek.o)
 .debug_line    0x00010058      0x2ca ../lab4_software_bsp/\libhal_bsp.a(alt_main.o)
 .debug_line    0x00010322      0x1f1 ../lab4_software_bsp/\libhal_bsp.a(alt_malloc_lock.o)
 .debug_line    0x00010513      0x1d0 ../lab4_software_bsp/\libhal_bsp.a(alt_printf.o)
 .debug_line    0x000106e3      0x1b6 ../lab4_software_bsp/\libhal_bsp.a(alt_putchar.o)
 .debug_line    0x00010899      0x2b4 ../lab4_software_bsp/\libhal_bsp.a(alt_read.o)
 .debug_line    0x00010b4d       0xed ../lab4_software_bsp/\libhal_bsp.a(alt_release_fd.o)
 .debug_line    0x00010c3a      0x266 ../lab4_software_bsp/\libhal_bsp.a(alt_sbrk.o)
 .debug_line    0x00010ea0      0x2b5 ../lab4_software_bsp/\libhal_bsp.a(alt_write.o)
 .debug_line    0x00011155      0x542 ../lab4_software_bsp/\libhal_bsp.a(alt_sys_init.o)
 .debug_line    0x00011697      0x20d ../lab4_software_bsp/\libhal_bsp.a(altera_avalon_jtag_uart_fd.o)
 .debug_line    0x000118a4      0x4ab ../lab4_software_bsp/\libhal_bsp.a(altera_avalon_jtag_uart_init.o)
 .debug_line    0x00011d4f      0x303 ../lab4_software_bsp/\libhal_bsp.a(altera_avalon_jtag_uart_ioctl.o)
 .debug_line    0x00012052      0x3f7 ../lab4_software_bsp/\libhal_bsp.a(altera_avalon_jtag_uart_read.o)
 .debug_line    0x00012449      0x405 ../lab4_software_bsp/\libhal_bsp.a(altera_avalon_jtag_uart_write.o)
 .debug_line    0x0001284e      0x2f9 ../lab4_software_bsp/\libhal_bsp.a(altera_avalon_timer_ts.o)
 .debug_line    0x00012b47      0x224 ../lab4_software_bsp/\libhal_bsp.a(altera_avalon_timer_vars.o)
 .debug_line    0x00012d6b      0x561 ../lab4_software_bsp/\libhal_bsp.a(altera_up_avalon_audio.o)
 .debug_line    0x000132cc      0x472 ../lab4_software_bsp/\libhal_bsp.a(altera_up_avalon_character_lcd.o)
 .debug_line    0x0001373e      0x2d5 ../lab4_software_bsp/\libhal_bsp.a(altera_up_avalon_ethernet.o)
 .debug_line    0x00013a13      0x2dc ../lab4_software_bsp/\libhal_bsp.a(altera_up_avalon_ethernet_low_level_driver.o)
 .debug_line    0x00013cef      0x3cb ../lab4_software_bsp/\libhal_bsp.a(altera_up_avalon_irda.o)
 .debug_line    0x000140ba      0x262 ../lab4_software_bsp/\libhal_bsp.a(altera_up_avalon_parallel_port.o)
 .debug_line    0x0001431c      0x5e1 ../lab4_software_bsp/\libhal_bsp.a(altera_up_avalon_ps2.o)
 .debug_line    0x000148fd      0x3d5 ../lab4_software_bsp/\libhal_bsp.a(altera_up_avalon_rs232.o)
 .debug_line    0x00014cd2      0x381 ../lab4_software_bsp/\libhal_bsp.a(altera_up_avalon_video_character_buffer_with_dma.o)
 .debug_line    0x00015053      0xb77 ../lab4_software_bsp/\libhal_bsp.a(altera_up_avalon_video_pixel_buffer_dma.o)
 .debug_line    0x00015bca      0x2e1 ../lab4_software_bsp/\libhal_bsp.a(alt_alarm_start.o)
 .debug_line    0x00015eab      0x1a1 ../lab4_software_bsp/\libhal_bsp.a(alt_dcache_flush_all.o)
 .debug_line    0x0001604c      0x246 ../lab4_software_bsp/\libhal_bsp.a(alt_dev_llist_insert.o)
 .debug_line    0x00016292       0x83 ../lab4_software_bsp/\libhal_bsp.a(alt_do_ctors.o)
 .debug_line    0x00016315       0x83 ../lab4_software_bsp/\libhal_bsp.a(alt_do_dtors.o)
 .debug_line    0x00016398      0x257 ../lab4_software_bsp/\libhal_bsp.a(alt_find_dev.o)
 .debug_line    0x000165ef      0x1a9 ../lab4_software_bsp/\libhal_bsp.a(alt_icache_flush_all.o)
 .debug_line    0x00016798      0x2a0 ../lab4_software_bsp/\libhal_bsp.a(alt_io_redirect.o)
 .debug_line    0x00016a38       0x6b ../lab4_software_bsp/\libhal_bsp.a(alt_irq_entry.o)
 .debug_line    0x00016aa3      0x24d ../lab4_software_bsp/\libhal_bsp.a(alt_irq_handler.o)
 .debug_line    0x00016cf0      0x2eb ../lab4_software_bsp/\libhal_bsp.a(alt_open.o)
 .debug_line    0x00016fdb      0x2e1 ../lab4_software_bsp/\libhal_bsp.a(alt_tick.o)
 .debug_line    0x000172bc      0x1e4 ../lab4_software_bsp/\libhal_bsp.a(alt_usleep.o)
 .debug_line    0x000174a0      0x1d3 ../lab4_software_bsp/\libhal_bsp.a(altera_nios2_qsys_irq.o)
 .debug_line    0x00017673      0x23e ../lab4_software_bsp/\libhal_bsp.a(alt_busy_sleep.o)
 .debug_line    0x000178b1       0xab ../lab4_software_bsp/\libhal_bsp.a(alt_exception_entry.o)
 .debug_line    0x0001795c      0x268 ../lab4_software_bsp/\libhal_bsp.a(alt_find_file.o)
 .debug_line    0x00017bc4      0x283 ../lab4_software_bsp/\libhal_bsp.a(alt_get_fd.o)
 .debug_line    0x00017e47      0x1e5 ../lab4_software_bsp/\libhal_bsp.a(alt_icache_flush.o)
 .debug_line    0x0001802c      0x200 d:/fpga/nios2eds/bin/gnu/h-i686-mingw32/bin/../lib/gcc/nios2-elf/4.1.2/../../../../nios2-elf/lib\libc.a(lib_a-atexit.o)
 .debug_line    0x0001822c      0x238 d:/fpga/nios2eds/bin/gnu/h-i686-mingw32/bin/../lib/gcc/nios2-elf/4.1.2/../../../../nios2-elf/lib\libc.a(lib_a-exit.o)
 .debug_line    0x00018464      0x29f d:/fpga/nios2eds/bin/gnu/h-i686-mingw32/bin/../lib/gcc/nios2-elf/4.1.2/../../../../nios2-elf/lib\libc.a(lib_a-memcmp.o)
 .debug_line    0x00018703      0x2c4 d:/fpga/nios2eds/bin/gnu/h-i686-mingw32/bin/../lib/gcc/nios2-elf/4.1.2/../../../../nios2-elf/lib\libc.a(lib_a-putc.o)
 .debug_line    0x000189c7      0x350 d:/fpga/nios2eds/bin/gnu/h-i686-mingw32/bin/../lib/gcc/nios2-elf/4.1.2/../../../../nios2-elf/lib\libc.a(lib_a-wbuf.o)
 .debug_line    0x00018d17      0x313 d:/fpga/nios2eds/bin/gnu/h-i686-mingw32/bin/../lib/gcc/nios2-elf/4.1.2/../../../../nios2-elf/lib\libc.a(lib_a-__atexit.o)
 .debug_line    0x0001902a      0x367 d:/fpga/nios2eds/bin/gnu/h-i686-mingw32/bin/../lib/gcc/nios2-elf/4.1.2/../../../../nios2-elf/lib\libc.a(lib_a-__call_atexit.o)
 .debug_line    0x00019391      0x20b ../lab4_software_bsp/\libhal_bsp.a(alt_exit.o)

.debug_frame    0x00000000     0x27a0
 *(.debug_frame)
 .debug_frame   0x00000000       0x2c obj/default/PS2_ISR.o
 .debug_frame   0x0000002c       0x2c obj/default/audio_ISR.o
 .debug_frame   0x00000058       0x2c obj/default/interval_timer_ISR.o
 .debug_frame   0x00000084      0x2a4 obj/default/media_interrupt_HAL.o
 .debug_frame   0x00000328       0x2c obj/default/pushbutton_ISR.o
 .debug_frame   0x00000354       0x28 d:/fpga/nios2eds/bin/gnu/h-i686-mingw32/bin/../lib/gcc/nios2-elf/4.1.2\libgcc.a(_si_to_sf.o)
 .debug_frame   0x0000037c       0x28 d:/fpga/nios2eds/bin/gnu/h-i686-mingw32/bin/../lib/gcc/nios2-elf/4.1.2\libgcc.a(_sf_to_si.o)
 .debug_frame   0x000003a4       0x28 d:/fpga/nios2eds/bin/gnu/h-i686-mingw32/bin/../lib/gcc/nios2-elf/4.1.2\libgcc.a(_sf_to_df.o)
 .debug_frame   0x000003cc       0x2c d:/fpga/nios2eds/bin/gnu/h-i686-mingw32/bin/../lib/gcc/nios2-elf/4.1.2\libgcc.a(_usi_to_sf.o)
 .debug_frame   0x000003f8       0x28 d:/fpga/nios2eds/bin/gnu/h-i686-mingw32/bin/../lib/gcc/nios2-elf/4.1.2\libgcc.a(_make_df.o)
 .debug_frame   0x00000420       0x20 d:/fpga/nios2eds/bin/gnu/h-i686-mingw32/bin/../lib/gcc/nios2-elf/4.1.2\libgcc.a(_clzsi2.o)
 .debug_frame   0x00000440       0x20 d:/fpga/nios2eds/bin/gnu/h-i686-mingw32/bin/../lib/gcc/nios2-elf/4.1.2\libgcc.a(_pack_sf.o)
 .debug_frame   0x00000460       0x20 d:/fpga/nios2eds/bin/gnu/h-i686-mingw32/bin/../lib/gcc/nios2-elf/4.1.2\libgcc.a(_unpack_sf.o)
 .debug_frame   0x00000480       0x2c d:/fpga/nios2eds/bin/gnu/h-i686-mingw32/bin/../lib/gcc/nios2-elf/4.1.2\libgcc.a(_pack_df.o)
 .debug_frame   0x000004ac       0x20 d:/fpga/nios2eds/bin/gnu/h-i686-mingw32/bin/../lib/gcc/nios2-elf/4.1.2/../../../../nios2-elf/lib\libc.a(lib_a-memcpy.o)
 .debug_frame   0x000004cc       0x20 d:/fpga/nios2eds/bin/gnu/h-i686-mingw32/bin/../lib/gcc/nios2-elf/4.1.2/../../../../nios2-elf/lib\libc.a(lib_a-memset.o)
 .debug_frame   0x000004ec       0x40 d:/fpga/nios2eds/bin/gnu/h-i686-mingw32/bin/../lib/gcc/nios2-elf/4.1.2/../../../../nios2-elf/lib\libc.a(lib_a-printf.o)
 .debug_frame   0x0000052c       0x64 d:/fpga/nios2eds/bin/gnu/h-i686-mingw32/bin/../lib/gcc/nios2-elf/4.1.2/../../../../nios2-elf/lib\libc.a(lib_a-vfprintf.o)
 .debug_frame   0x00000590       0x2c d:/fpga/nios2eds/bin/gnu/h-i686-mingw32/bin/../lib/gcc/nios2-elf/4.1.2/../../../../nios2-elf/lib\libc.a(lib_a-wsetup.o)
 .debug_frame   0x000005bc       0x64 d:/fpga/nios2eds/bin/gnu/h-i686-mingw32/bin/../lib/gcc/nios2-elf/4.1.2/../../../../nios2-elf/lib\libc.a(lib_a-dtoa.o)
 .debug_frame   0x00000620       0x40 d:/fpga/nios2eds/bin/gnu/h-i686-mingw32/bin/../lib/gcc/nios2-elf/4.1.2/../../../../nios2-elf/lib\libc.a(lib_a-fflush.o)
 .debug_frame   0x00000660      0x118 d:/fpga/nios2eds/bin/gnu/h-i686-mingw32/bin/../lib/gcc/nios2-elf/4.1.2/../../../../nios2-elf/lib\libc.a(lib_a-findfp.o)
 .debug_frame   0x00000778       0x4c d:/fpga/nios2eds/bin/gnu/h-i686-mingw32/bin/../lib/gcc/nios2-elf/4.1.2/../../../../nios2-elf/lib\libc.a(lib_a-freer.o)
 .debug_frame   0x000007c4       0x38 d:/fpga/nios2eds/bin/gnu/h-i686-mingw32/bin/../lib/gcc/nios2-elf/4.1.2/../../../../nios2-elf/lib\libc.a(lib_a-fvwrite.o)
 .debug_frame   0x000007fc       0x60 d:/fpga/nios2eds/bin/gnu/h-i686-mingw32/bin/../lib/gcc/nios2-elf/4.1.2/../../../../nios2-elf/lib\libc.a(lib_a-fwalk.o)
 .debug_frame   0x0000085c       0x70 d:/fpga/nios2eds/bin/gnu/h-i686-mingw32/bin/../lib/gcc/nios2-elf/4.1.2/../../../../nios2-elf/lib\libc.a(lib_a-locale.o)
 .debug_frame   0x000008cc       0x2c d:/fpga/nios2eds/bin/gnu/h-i686-mingw32/bin/../lib/gcc/nios2-elf/4.1.2/../../../../nios2-elf/lib\libc.a(lib_a-makebuf.o)
 .debug_frame   0x000008f8       0x38 d:/fpga/nios2eds/bin/gnu/h-i686-mingw32/bin/../lib/gcc/nios2-elf/4.1.2/../../../../nios2-elf/lib\libc.a(lib_a-mallocr.o)
 .debug_frame   0x00000930       0x20 d:/fpga/nios2eds/bin/gnu/h-i686-mingw32/bin/../lib/gcc/nios2-elf/4.1.2/../../../../nios2-elf/lib\libc.a(lib_a-memchr.o)
 .debug_frame   0x00000950       0x20 d:/fpga/nios2eds/bin/gnu/h-i686-mingw32/bin/../lib/gcc/nios2-elf/4.1.2/../../../../nios2-elf/lib\libc.a(lib_a-memmove.o)
 .debug_frame   0x00000970      0x218 d:/fpga/nios2eds/bin/gnu/h-i686-mingw32/bin/../lib/gcc/nios2-elf/4.1.2/../../../../nios2-elf/lib\libc.a(lib_a-mprec.o)
 .debug_frame   0x00000b88       0x38 d:/fpga/nios2eds/bin/gnu/h-i686-mingw32/bin/../lib/gcc/nios2-elf/4.1.2/../../../../nios2-elf/lib\libc.a(lib_a-reallocr.o)
 .debug_frame   0x00000bc0       0x20 d:/fpga/nios2eds/bin/gnu/h-i686-mingw32/bin/../lib/gcc/nios2-elf/4.1.2/../../../../nios2-elf/lib\libc.a(lib_a-s_isinfd.o)
 .debug_frame   0x00000be0       0x20 d:/fpga/nios2eds/bin/gnu/h-i686-mingw32/bin/../lib/gcc/nios2-elf/4.1.2/../../../../nios2-elf/lib\libc.a(lib_a-s_isnand.o)
 .debug_frame   0x00000c00       0x2c d:/fpga/nios2eds/bin/gnu/h-i686-mingw32/bin/../lib/gcc/nios2-elf/4.1.2/../../../../nios2-elf/lib\libc.a(lib_a-sbrkr.o)
 .debug_frame   0x00000c2c       0x78 d:/fpga/nios2eds/bin/gnu/h-i686-mingw32/bin/../lib/gcc/nios2-elf/4.1.2/../../../../nios2-elf/lib\libc.a(lib_a-stdio.o)
 .debug_frame   0x00000ca4       0x20 d:/fpga/nios2eds/bin/gnu/h-i686-mingw32/bin/../lib/gcc/nios2-elf/4.1.2/../../../../nios2-elf/lib\libc.a(lib_a-strcmp.o)
 .debug_frame   0x00000cc4       0x20 d:/fpga/nios2eds/bin/gnu/h-i686-mingw32/bin/../lib/gcc/nios2-elf/4.1.2/../../../../nios2-elf/lib\libc.a(lib_a-strlen.o)
 .debug_frame   0x00000ce4       0x2c d:/fpga/nios2eds/bin/gnu/h-i686-mingw32/bin/../lib/gcc/nios2-elf/4.1.2/../../../../nios2-elf/lib\libc.a(lib_a-writer.o)
 .debug_frame   0x00000d10       0x28 d:/fpga/nios2eds/bin/gnu/h-i686-mingw32/bin/../lib/gcc/nios2-elf/4.1.2/../../../../nios2-elf/lib\libc.a(lib_a-callocr.o)
 .debug_frame   0x00000d38       0x2c d:/fpga/nios2eds/bin/gnu/h-i686-mingw32/bin/../lib/gcc/nios2-elf/4.1.2/../../../../nios2-elf/lib\libc.a(lib_a-closer.o)
 .debug_frame   0x00000d64       0x3c d:/fpga/nios2eds/bin/gnu/h-i686-mingw32/bin/../lib/gcc/nios2-elf/4.1.2/../../../../nios2-elf/lib\libc.a(lib_a-fclose.o)
 .debug_frame   0x00000da0       0x2c d:/fpga/nios2eds/bin/gnu/h-i686-mingw32/bin/../lib/gcc/nios2-elf/4.1.2/../../../../nios2-elf/lib\libc.a(lib_a-fstatr.o)
 .debug_frame   0x00000dcc       0x2c d:/fpga/nios2eds/bin/gnu/h-i686-mingw32/bin/../lib/gcc/nios2-elf/4.1.2/../../../../nios2-elf/lib\libc.a(lib_a-isattyr.o)
 .debug_frame   0x00000df8       0x2c d:/fpga/nios2eds/bin/gnu/h-i686-mingw32/bin/../lib/gcc/nios2-elf/4.1.2/../../../../nios2-elf/lib\libc.a(lib_a-lseekr.o)
 .debug_frame   0x00000e24       0x2c d:/fpga/nios2eds/bin/gnu/h-i686-mingw32/bin/../lib/gcc/nios2-elf/4.1.2/../../../../nios2-elf/lib\libc.a(lib_a-readr.o)
 .debug_frame   0x00000e50       0x38 d:/fpga/nios2eds/bin/gnu/h-i686-mingw32/bin/../lib/gcc/nios2-elf/4.1.2\libgcc.a(_udivdi3.o)
 .debug_frame   0x00000e88       0x38 d:/fpga/nios2eds/bin/gnu/h-i686-mingw32/bin/../lib/gcc/nios2-elf/4.1.2\libgcc.a(_umoddi3.o)
 .debug_frame   0x00000ec0       0x70 d:/fpga/nios2eds/bin/gnu/h-i686-mingw32/bin/../lib/gcc/nios2-elf/4.1.2\libgcc.a(_addsub_df.o)
 .debug_frame   0x00000f30       0x3c d:/fpga/nios2eds/bin/gnu/h-i686-mingw32/bin/../lib/gcc/nios2-elf/4.1.2\libgcc.a(_mul_df.o)
 .debug_frame   0x00000f6c       0x30 d:/fpga/nios2eds/bin/gnu/h-i686-mingw32/bin/../lib/gcc/nios2-elf/4.1.2\libgcc.a(_div_df.o)
 .debug_frame   0x00000f9c       0x2c d:/fpga/nios2eds/bin/gnu/h-i686-mingw32/bin/../lib/gcc/nios2-elf/4.1.2\libgcc.a(_eq_df.o)
 .debug_frame   0x00000fc8       0x2c d:/fpga/nios2eds/bin/gnu/h-i686-mingw32/bin/../lib/gcc/nios2-elf/4.1.2\libgcc.a(_ne_df.o)
 .debug_frame   0x00000ff4       0x2c d:/fpga/nios2eds/bin/gnu/h-i686-mingw32/bin/../lib/gcc/nios2-elf/4.1.2\libgcc.a(_gt_df.o)
 .debug_frame   0x00001020       0x2c d:/fpga/nios2eds/bin/gnu/h-i686-mingw32/bin/../lib/gcc/nios2-elf/4.1.2\libgcc.a(_ge_df.o)
 .debug_frame   0x0000104c       0x2c d:/fpga/nios2eds/bin/gnu/h-i686-mingw32/bin/../lib/gcc/nios2-elf/4.1.2\libgcc.a(_lt_df.o)
 .debug_frame   0x00001078       0x30 d:/fpga/nios2eds/bin/gnu/h-i686-mingw32/bin/../lib/gcc/nios2-elf/4.1.2\libgcc.a(_si_to_df.o)
 .debug_frame   0x000010a8       0x28 d:/fpga/nios2eds/bin/gnu/h-i686-mingw32/bin/../lib/gcc/nios2-elf/4.1.2\libgcc.a(_df_to_si.o)
 .debug_frame   0x000010d0       0x38 d:/fpga/nios2eds/bin/gnu/h-i686-mingw32/bin/../lib/gcc/nios2-elf/4.1.2\libgcc.a(_usi_to_df.o)
 .debug_frame   0x00001108       0x70 d:/fpga/nios2eds/bin/gnu/h-i686-mingw32/bin/../lib/gcc/nios2-elf/4.1.2\libgcc.a(lib2-divmod.o)
 .debug_frame   0x00001178       0x2c d:/fpga/nios2eds/bin/gnu/h-i686-mingw32/bin/../lib/gcc/nios2-elf/4.1.2\libgcc.a(_muldi3.o)
 .debug_frame   0x000011a4       0x20 d:/fpga/nios2eds/bin/gnu/h-i686-mingw32/bin/../lib/gcc/nios2-elf/4.1.2\libgcc.a(_unpack_df.o)
 .debug_frame   0x000011c4       0x20 d:/fpga/nios2eds/bin/gnu/h-i686-mingw32/bin/../lib/gcc/nios2-elf/4.1.2\libgcc.a(_fpcmp_parts_df.o)
 .debug_frame   0x000011e4       0x48 ../lab4_software_bsp/\libhal_bsp.a(alt_close.o)
 .debug_frame   0x0000122c       0x2c ../lab4_software_bsp/\libhal_bsp.a(alt_dev.o)
 .debug_frame   0x00001258       0x48 ../lab4_software_bsp/\libhal_bsp.a(alt_fstat.o)
 .debug_frame   0x000012a0       0x2c ../lab4_software_bsp/\libhal_bsp.a(alt_irq_register.o)
 .debug_frame   0x000012cc       0x48 ../lab4_software_bsp/\libhal_bsp.a(alt_isatty.o)
 .debug_frame   0x00001314       0x48 ../lab4_software_bsp/\libhal_bsp.a(alt_load.o)
 .debug_frame   0x0000135c       0x48 ../lab4_software_bsp/\libhal_bsp.a(alt_lseek.o)
 .debug_frame   0x000013a4       0x2c ../lab4_software_bsp/\libhal_bsp.a(alt_main.o)
 .debug_frame   0x000013d0       0x48 ../lab4_software_bsp/\libhal_bsp.a(alt_malloc_lock.o)
 .debug_frame   0x00001418       0x2c ../lab4_software_bsp/\libhal_bsp.a(alt_printf.o)
 .debug_frame   0x00001444       0x2c ../lab4_software_bsp/\libhal_bsp.a(alt_putchar.o)
 .debug_frame   0x00001470       0x48 ../lab4_software_bsp/\libhal_bsp.a(alt_read.o)
 .debug_frame   0x000014b8       0x2c ../lab4_software_bsp/\libhal_bsp.a(alt_release_fd.o)
 .debug_frame   0x000014e4       0x2c ../lab4_software_bsp/\libhal_bsp.a(alt_sbrk.o)
 .debug_frame   0x00001510       0x48 ../lab4_software_bsp/\libhal_bsp.a(alt_write.o)
 .debug_frame   0x00001558       0x64 ../lab4_software_bsp/\libhal_bsp.a(alt_sys_init.o)
 .debug_frame   0x000015bc       0x80 ../lab4_software_bsp/\libhal_bsp.a(altera_avalon_jtag_uart_fd.o)
 .debug_frame   0x0000163c       0x80 ../lab4_software_bsp/\libhal_bsp.a(altera_avalon_jtag_uart_init.o)
 .debug_frame   0x000016bc       0x2c ../lab4_software_bsp/\libhal_bsp.a(altera_avalon_jtag_uart_ioctl.o)
 .debug_frame   0x000016e8       0x2c ../lab4_software_bsp/\libhal_bsp.a(altera_avalon_jtag_uart_read.o)
 .debug_frame   0x00001714       0x2c ../lab4_software_bsp/\libhal_bsp.a(altera_avalon_jtag_uart_write.o)
 .debug_frame   0x00001740       0x64 ../lab4_software_bsp/\libhal_bsp.a(altera_avalon_timer_ts.o)
 .debug_frame   0x000017a4      0x208 ../lab4_software_bsp/\libhal_bsp.a(altera_up_avalon_audio.o)
 .debug_frame   0x000019ac      0x17c ../lab4_software_bsp/\libhal_bsp.a(altera_up_avalon_character_lcd.o)
 .debug_frame   0x00001b28       0x48 ../lab4_software_bsp/\libhal_bsp.a(altera_up_avalon_ethernet.o)
 .debug_frame   0x00001b70       0x80 ../lab4_software_bsp/\libhal_bsp.a(altera_up_avalon_ethernet_low_level_driver.o)
 .debug_frame   0x00001bf0      0x128 ../lab4_software_bsp/\libhal_bsp.a(altera_up_avalon_irda.o)
 .debug_frame   0x00001d18       0x2c ../lab4_software_bsp/\libhal_bsp.a(altera_up_avalon_parallel_port.o)
 .debug_frame   0x00001d44      0x208 ../lab4_software_bsp/\libhal_bsp.a(altera_up_avalon_ps2.o)
 .debug_frame   0x00001f4c      0x128 ../lab4_software_bsp/\libhal_bsp.a(altera_up_avalon_rs232.o)
 .debug_frame   0x00002074       0x9c ../lab4_software_bsp/\libhal_bsp.a(altera_up_avalon_video_character_buffer_with_dma.o)
 .debug_frame   0x00002110      0x160 ../lab4_software_bsp/\libhal_bsp.a(altera_up_avalon_video_pixel_buffer_dma.o)
 .debug_frame   0x00002270       0x2c ../lab4_software_bsp/\libhal_bsp.a(alt_alarm_start.o)
 .debug_frame   0x0000229c       0x2c ../lab4_software_bsp/\libhal_bsp.a(alt_dcache_flush_all.o)
 .debug_frame   0x000022c8       0x48 ../lab4_software_bsp/\libhal_bsp.a(alt_dev_llist_insert.o)
 .debug_frame   0x00002310       0x2c ../lab4_software_bsp/\libhal_bsp.a(alt_do_ctors.o)
 .debug_frame   0x0000233c       0x2c ../lab4_software_bsp/\libhal_bsp.a(alt_do_dtors.o)
 .debug_frame   0x00002368       0x2c ../lab4_software_bsp/\libhal_bsp.a(alt_find_dev.o)
 .debug_frame   0x00002394       0x2c ../lab4_software_bsp/\libhal_bsp.a(alt_icache_flush_all.o)
 .debug_frame   0x000023c0       0x48 ../lab4_software_bsp/\libhal_bsp.a(alt_io_redirect.o)
 .debug_frame   0x00002408       0x2c ../lab4_software_bsp/\libhal_bsp.a(alt_irq_handler.o)
 .debug_frame   0x00002434       0x64 ../lab4_software_bsp/\libhal_bsp.a(alt_open.o)
 .debug_frame   0x00002498       0x48 ../lab4_software_bsp/\libhal_bsp.a(alt_tick.o)
 .debug_frame   0x000024e0       0x2c ../lab4_software_bsp/\libhal_bsp.a(alt_usleep.o)
 .debug_frame   0x0000250c       0x2c ../lab4_software_bsp/\libhal_bsp.a(altera_nios2_qsys_irq.o)
 .debug_frame   0x00002538       0x2c ../lab4_software_bsp/\libhal_bsp.a(alt_busy_sleep.o)
 .debug_frame   0x00002564       0x2c ../lab4_software_bsp/\libhal_bsp.a(alt_find_file.o)
 .debug_frame   0x00002590       0x2c ../lab4_software_bsp/\libhal_bsp.a(alt_get_fd.o)
 .debug_frame   0x000025bc       0x2c ../lab4_software_bsp/\libhal_bsp.a(alt_icache_flush.o)
 .debug_frame   0x000025e8       0x20 d:/fpga/nios2eds/bin/gnu/h-i686-mingw32/bin/../lib/gcc/nios2-elf/4.1.2/../../../../nios2-elf/lib\libc.a(lib_a-atexit.o)
 .debug_frame   0x00002608       0x28 d:/fpga/nios2eds/bin/gnu/h-i686-mingw32/bin/../lib/gcc/nios2-elf/4.1.2/../../../../nios2-elf/lib\libc.a(lib_a-exit.o)
 .debug_frame   0x00002630       0x20 d:/fpga/nios2eds/bin/gnu/h-i686-mingw32/bin/../lib/gcc/nios2-elf/4.1.2/../../../../nios2-elf/lib\libc.a(lib_a-memcmp.o)
 .debug_frame   0x00002650       0x4c d:/fpga/nios2eds/bin/gnu/h-i686-mingw32/bin/../lib/gcc/nios2-elf/4.1.2/../../../../nios2-elf/lib\libc.a(lib_a-putc.o)
 .debug_frame   0x0000269c       0x3c d:/fpga/nios2eds/bin/gnu/h-i686-mingw32/bin/../lib/gcc/nios2-elf/4.1.2/../../../../nios2-elf/lib\libc.a(lib_a-wbuf.o)
 .debug_frame   0x000026d8       0x34 d:/fpga/nios2eds/bin/gnu/h-i686-mingw32/bin/../lib/gcc/nios2-elf/4.1.2/../../../../nios2-elf/lib\libc.a(lib_a-__atexit.o)
 .debug_frame   0x0000270c       0x4c d:/fpga/nios2eds/bin/gnu/h-i686-mingw32/bin/../lib/gcc/nios2-elf/4.1.2/../../../../nios2-elf/lib\libc.a(lib_a-__call_atexit.o)
 .debug_frame   0x00002758       0x48 ../lab4_software_bsp/\libhal_bsp.a(alt_exit.o)

.debug_str      0x00000000     0x2c35
 *(.debug_str)
 .debug_str     0x00000000       0xe9 obj/default/PS2_ISR.o
 .debug_str     0x000000e9       0xfa obj/default/audio_ISR.o
 .debug_str     0x000001e3       0xe9 obj/default/globals.o
 .debug_str     0x000002cc       0xe9 obj/default/interval_timer_ISR.o
 .debug_str     0x000003b5      0x166 obj/default/media_interrupt_HAL.o
 .debug_str     0x0000051b       0xf3 obj/default/pushbutton_ISR.o
 .debug_str     0x0000060e      0x17e d:/fpga/nios2eds/bin/gnu/h-i686-mingw32/bin/../lib/gcc/nios2-elf/4.1.2\libgcc.a(_si_to_sf.o)
                                0x1de (size before relaxing)
 .debug_str     0x0000078c       0x36 d:/fpga/nios2eds/bin/gnu/h-i686-mingw32/bin/../lib/gcc/nios2-elf/4.1.2\libgcc.a(_sf_to_si.o)
                                0x201 (size before relaxing)
 .debug_str     0x000007c2       0x15 d:/fpga/nios2eds/bin/gnu/h-i686-mingw32/bin/../lib/gcc/nios2-elf/4.1.2\libgcc.a(_sf_to_df.o)
                                0x1f2 (size before relaxing)
 .debug_str     0x000007d7       0x14 d:/fpga/nios2eds/bin/gnu/h-i686-mingw32/bin/../lib/gcc/nios2-elf/4.1.2\libgcc.a(_usi_to_sf.o)
                                0x1da (size before relaxing)
 .debug_str     0x000007eb       0x27 d:/fpga/nios2eds/bin/gnu/h-i686-mingw32/bin/../lib/gcc/nios2-elf/4.1.2\libgcc.a(_make_df.o)
                                0x1b9 (size before relaxing)
 .debug_str     0x00000812       0x6b d:/fpga/nios2eds/bin/gnu/h-i686-mingw32/bin/../lib/gcc/nios2-elf/4.1.2\libgcc.a(_clzsi2.o)
                                0x17e (size before relaxing)
 .debug_str     0x0000087d       0x10 d:/fpga/nios2eds/bin/gnu/h-i686-mingw32/bin/../lib/gcc/nios2-elf/4.1.2\libgcc.a(_pack_sf.o)
                                0x200 (size before relaxing)
 .debug_str     0x0000088d        0xb d:/fpga/nios2eds/bin/gnu/h-i686-mingw32/bin/../lib/gcc/nios2-elf/4.1.2\libgcc.a(_unpack_sf.o)
                                0x1e2 (size before relaxing)
 .debug_str     0x00000898        0xf d:/fpga/nios2eds/bin/gnu/h-i686-mingw32/bin/../lib/gcc/nios2-elf/4.1.2\libgcc.a(_pack_df.o)
                                0x206 (size before relaxing)
 .debug_str     0x00000000      0x161 d:/fpga/nios2eds/bin/gnu/h-i686-mingw32/bin/../lib/gcc/nios2-elf/4.1.2\libgcc.a(_clz.o)
 .debug_str     0x000008a7       0xf5 d:/fpga/nios2eds/bin/gnu/h-i686-mingw32/bin/../lib/gcc/nios2-elf/4.1.2/../../../../nios2-elf/lib\libc.a(lib_a-memcpy.o)
                                0x128 (size before relaxing)
 .debug_str     0x0000099c       0x56 d:/fpga/nios2eds/bin/gnu/h-i686-mingw32/bin/../lib/gcc/nios2-elf/4.1.2/../../../../nios2-elf/lib\libc.a(lib_a-memset.o)
                                0x17e (size before relaxing)
 .debug_str     0x000009f2      0x43f d:/fpga/nios2eds/bin/gnu/h-i686-mingw32/bin/../lib/gcc/nios2-elf/4.1.2/../../../../nios2-elf/lib\libc.a(lib_a-printf.o)
                                0x523 (size before relaxing)
 .debug_str     0x00000e31      0x1c1 d:/fpga/nios2eds/bin/gnu/h-i686-mingw32/bin/../lib/gcc/nios2-elf/4.1.2/../../../../nios2-elf/lib\libc.a(lib_a-vfprintf.o)
                                0x6f8 (size before relaxing)
 .debug_str     0x00000ff2       0x46 d:/fpga/nios2eds/bin/gnu/h-i686-mingw32/bin/../lib/gcc/nios2-elf/4.1.2/../../../../nios2-elf/lib\libc.a(lib_a-wsetup.o)
                                0x50c (size before relaxing)
 .debug_str     0x00001038      0x18e d:/fpga/nios2eds/bin/gnu/h-i686-mingw32/bin/../lib/gcc/nios2-elf/4.1.2/../../../../nios2-elf/lib\libc.a(lib_a-dtoa.o)
                                0x601 (size before relaxing)
 .debug_str     0x000011c6       0x65 d:/fpga/nios2eds/bin/gnu/h-i686-mingw32/bin/../lib/gcc/nios2-elf/4.1.2/../../../../nios2-elf/lib\libc.a(lib_a-fflush.o)
                                0x532 (size before relaxing)
 .debug_str     0x0000122b      0x102 d:/fpga/nios2eds/bin/gnu/h-i686-mingw32/bin/../lib/gcc/nios2-elf/4.1.2/../../../../nios2-elf/lib\libc.a(lib_a-findfp.o)
                                0x5f4 (size before relaxing)
 .debug_str     0x0000132d      0x15b d:/fpga/nios2eds/bin/gnu/h-i686-mingw32/bin/../lib/gcc/nios2-elf/4.1.2/../../../../nios2-elf/lib\libc.a(lib_a-freer.o)
                                0x643 (size before relaxing)
 .debug_str     0x00001488       0x66 d:/fpga/nios2eds/bin/gnu/h-i686-mingw32/bin/../lib/gcc/nios2-elf/4.1.2/../../../../nios2-elf/lib\libc.a(lib_a-fvwrite.o)
                                0x563 (size before relaxing)
 .debug_str     0x000014ee       0x5e d:/fpga/nios2eds/bin/gnu/h-i686-mingw32/bin/../lib/gcc/nios2-elf/4.1.2/../../../../nios2-elf/lib\libc.a(lib_a-fwalk.o)
                                0x535 (size before relaxing)
 .debug_str     0x0000154c       0xd1 d:/fpga/nios2eds/bin/gnu/h-i686-mingw32/bin/../lib/gcc/nios2-elf/4.1.2/../../../../nios2-elf/lib\libc.a(lib_a-impure.o)
                                0x51a (size before relaxing)
 .debug_str     0x0000161d      0x225 d:/fpga/nios2eds/bin/gnu/h-i686-mingw32/bin/../lib/gcc/nios2-elf/4.1.2/../../../../nios2-elf/lib\libc.a(lib_a-locale.o)
                                0x6a9 (size before relaxing)
 .debug_str     0x00001842      0x123 d:/fpga/nios2eds/bin/gnu/h-i686-mingw32/bin/../lib/gcc/nios2-elf/4.1.2/../../../../nios2-elf/lib\libc.a(lib_a-makebuf.o)
                                0x606 (size before relaxing)
 .debug_str     0x00001965       0xef d:/fpga/nios2eds/bin/gnu/h-i686-mingw32/bin/../lib/gcc/nios2-elf/4.1.2/../../../../nios2-elf/lib\libc.a(lib_a-mallocr.o)
                                0x6f1 (size before relaxing)
 .debug_str     0x00001a54       0x55 d:/fpga/nios2eds/bin/gnu/h-i686-mingw32/bin/../lib/gcc/nios2-elf/4.1.2/../../../../nios2-elf/lib\libc.a(lib_a-memchr.o)
                                0x18b (size before relaxing)
 .debug_str     0x00001aa9       0x4d d:/fpga/nios2eds/bin/gnu/h-i686-mingw32/bin/../lib/gcc/nios2-elf/4.1.2/../../../../nios2-elf/lib\libc.a(lib_a-memmove.o)
                                0x19d (size before relaxing)
 .debug_str     0x00001af6       0xf8 d:/fpga/nios2eds/bin/gnu/h-i686-mingw32/bin/../lib/gcc/nios2-elf/4.1.2/../../../../nios2-elf/lib\libc.a(lib_a-mprec.o)
                                0x60e (size before relaxing)
 .debug_str     0x00001bee       0x59 d:/fpga/nios2eds/bin/gnu/h-i686-mingw32/bin/../lib/gcc/nios2-elf/4.1.2/../../../../nios2-elf/lib\libc.a(lib_a-reallocr.o)
                                0x5c3 (size before relaxing)
 .debug_str     0x00001c47       0xdc d:/fpga/nios2eds/bin/gnu/h-i686-mingw32/bin/../lib/gcc/nios2-elf/4.1.2/../../../../nios2-elf/lib\libc.a(lib_a-s_isinfd.o)
                                0x18a (size before relaxing)
 .debug_str     0x00001d23       0x46 d:/fpga/nios2eds/bin/gnu/h-i686-mingw32/bin/../lib/gcc/nios2-elf/4.1.2/../../../../nios2-elf/lib\libc.a(lib_a-s_isnand.o)
                                0x18a (size before relaxing)
 .debug_str     0x00001d69       0x50 d:/fpga/nios2eds/bin/gnu/h-i686-mingw32/bin/../lib/gcc/nios2-elf/4.1.2/../../../../nios2-elf/lib\libc.a(lib_a-sbrkr.o)
                                0x50b (size before relaxing)
 .debug_str     0x00001db9       0x62 d:/fpga/nios2eds/bin/gnu/h-i686-mingw32/bin/../lib/gcc/nios2-elf/4.1.2/../../../../nios2-elf/lib\libc.a(lib_a-stdio.o)
                                0x531 (size before relaxing)
 .debug_str     0x00001e1b       0x42 d:/fpga/nios2eds/bin/gnu/h-i686-mingw32/bin/../lib/gcc/nios2-elf/4.1.2/../../../../nios2-elf/lib\libc.a(lib_a-strcmp.o)
                                0x163 (size before relaxing)
 .debug_str     0x00001e5d       0x42 d:/fpga/nios2eds/bin/gnu/h-i686-mingw32/bin/../lib/gcc/nios2-elf/4.1.2/../../../../nios2-elf/lib\libc.a(lib_a-strlen.o)
                                0x17d (size before relaxing)
 .debug_str     0x00001e9f       0x4c d:/fpga/nios2eds/bin/gnu/h-i686-mingw32/bin/../lib/gcc/nios2-elf/4.1.2/../../../../nios2-elf/lib\libc.a(lib_a-writer.o)
                                0x50e (size before relaxing)
 .debug_str     0x00001eeb       0x19 d:/fpga/nios2eds/bin/gnu/h-i686-mingw32/bin/../lib/gcc/nios2-elf/4.1.2/../../../../nios2-elf/lib\libc.a(lib_a-callocr.o)
                                0x542 (size before relaxing)
 .debug_str     0x00001f04       0x43 d:/fpga/nios2eds/bin/gnu/h-i686-mingw32/bin/../lib/gcc/nios2-elf/4.1.2/../../../../nios2-elf/lib\libc.a(lib_a-closer.o)
                                0x4fe (size before relaxing)
 .debug_str     0x00001f47       0x4b d:/fpga/nios2eds/bin/gnu/h-i686-mingw32/bin/../lib/gcc/nios2-elf/4.1.2/../../../../nios2-elf/lib\libc.a(lib_a-fclose.o)
                                0x516 (size before relaxing)
 .debug_str     0x00001f92       0x49 d:/fpga/nios2eds/bin/gnu/h-i686-mingw32/bin/../lib/gcc/nios2-elf/4.1.2/../../../../nios2-elf/lib\libc.a(lib_a-fstatr.o)
                                0x5f1 (size before relaxing)
 .debug_str     0x00001fdb       0x3d d:/fpga/nios2eds/bin/gnu/h-i686-mingw32/bin/../lib/gcc/nios2-elf/4.1.2/../../../../nios2-elf/lib\libc.a(lib_a-int_errno.o)
                                0x163 (size before relaxing)
 .debug_str     0x00002018       0x45 d:/fpga/nios2eds/bin/gnu/h-i686-mingw32/bin/../lib/gcc/nios2-elf/4.1.2/../../../../nios2-elf/lib\libc.a(lib_a-isattyr.o)
                                0x500 (size before relaxing)
 .debug_str     0x0000205d       0x43 d:/fpga/nios2eds/bin/gnu/h-i686-mingw32/bin/../lib/gcc/nios2-elf/4.1.2/../../../../nios2-elf/lib\libc.a(lib_a-lseekr.o)
                                0x50c (size before relaxing)
 .debug_str     0x000020a0       0x41 d:/fpga/nios2eds/bin/gnu/h-i686-mingw32/bin/../lib/gcc/nios2-elf/4.1.2/../../../../nios2-elf/lib\libc.a(lib_a-readr.o)
                                0x50c (size before relaxing)
 .debug_str     0x000020e1       0x73 d:/fpga/nios2eds/bin/gnu/h-i686-mingw32/bin/../lib/gcc/nios2-elf/4.1.2\libgcc.a(_udivdi3.o)
                                0x1f7 (size before relaxing)
 .debug_str     0x00002154        0xa d:/fpga/nios2eds/bin/gnu/h-i686-mingw32/bin/../lib/gcc/nios2-elf/4.1.2\libgcc.a(_umoddi3.o)
                                0x1f7 (size before relaxing)
 .debug_str     0x0000215e       0x6d d:/fpga/nios2eds/bin/gnu/h-i686-mingw32/bin/../lib/gcc/nios2-elf/4.1.2\libgcc.a(_addsub_df.o)
                                0x26f (size before relaxing)
 .debug_str     0x000021cb       0x40 d:/fpga/nios2eds/bin/gnu/h-i686-mingw32/bin/../lib/gcc/nios2-elf/4.1.2\libgcc.a(_mul_df.o)
                                0x241 (size before relaxing)
 .debug_str     0x0000220b       0x35 d:/fpga/nios2eds/bin/gnu/h-i686-mingw32/bin/../lib/gcc/nios2-elf/4.1.2\libgcc.a(_div_df.o)
                                0x231 (size before relaxing)
 .debug_str     0x00002240        0x8 d:/fpga/nios2eds/bin/gnu/h-i686-mingw32/bin/../lib/gcc/nios2-elf/4.1.2\libgcc.a(_eq_df.o)
                                0x1fe (size before relaxing)
 .debug_str     0x00002248        0x8 d:/fpga/nios2eds/bin/gnu/h-i686-mingw32/bin/../lib/gcc/nios2-elf/4.1.2\libgcc.a(_ne_df.o)
                                0x1fe (size before relaxing)
 .debug_str     0x00002250        0x8 d:/fpga/nios2eds/bin/gnu/h-i686-mingw32/bin/../lib/gcc/nios2-elf/4.1.2\libgcc.a(_gt_df.o)
                                0x1fe (size before relaxing)
 .debug_str     0x00002258        0x8 d:/fpga/nios2eds/bin/gnu/h-i686-mingw32/bin/../lib/gcc/nios2-elf/4.1.2\libgcc.a(_ge_df.o)
                                0x1fe (size before relaxing)
 .debug_str     0x00002260        0x8 d:/fpga/nios2eds/bin/gnu/h-i686-mingw32/bin/../lib/gcc/nios2-elf/4.1.2\libgcc.a(_lt_df.o)
                                0x1fe (size before relaxing)
 .debug_str     0x00002268        0xc d:/fpga/nios2eds/bin/gnu/h-i686-mingw32/bin/../lib/gcc/nios2-elf/4.1.2\libgcc.a(_si_to_df.o)
                                0x1de (size before relaxing)
 .debug_str     0x00002274        0xa d:/fpga/nios2eds/bin/gnu/h-i686-mingw32/bin/../lib/gcc/nios2-elf/4.1.2\libgcc.a(_df_to_si.o)
                                0x207 (size before relaxing)
 .debug_str     0x00000000      0x1a3 d:/fpga/nios2eds/bin/gnu/h-i686-mingw32/bin/../lib/gcc/nios2-elf/4.1.2\libgcc.a(_thenan_df.o)
 .debug_str     0x0000227e        0xe d:/fpga/nios2eds/bin/gnu/h-i686-mingw32/bin/../lib/gcc/nios2-elf/4.1.2\libgcc.a(_usi_to_df.o)
                                0x1da (size before relaxing)
 .debug_str     0x0000228c       0x76 d:/fpga/nios2eds/bin/gnu/h-i686-mingw32/bin/../lib/gcc/nios2-elf/4.1.2\libgcc.a(lib2-divmod.o)
                                0x1b4 (size before relaxing)
 .debug_str     0x00002302        0x9 d:/fpga/nios2eds/bin/gnu/h-i686-mingw32/bin/../lib/gcc/nios2-elf/4.1.2\libgcc.a(_muldi3.o)
                                0x1ac (size before relaxing)
 .debug_str     0x0000230b        0xb d:/fpga/nios2eds/bin/gnu/h-i686-mingw32/bin/../lib/gcc/nios2-elf/4.1.2\libgcc.a(_unpack_df.o)
                                0x1e8 (size before relaxing)
 .debug_str     0x00002316       0x10 d:/fpga/nios2eds/bin/gnu/h-i686-mingw32/bin/../lib/gcc/nios2-elf/4.1.2\libgcc.a(_fpcmp_parts_df.o)
                                0x1c6 (size before relaxing)
 .debug_str     0x00002326       0x12 ../lab4_software_bsp/\libhal_bsp.a(alt_close.o)
 .debug_str     0x00002338       0x12 ../lab4_software_bsp/\libhal_bsp.a(alt_dev.o)
 .debug_str     0x0000234a       0x12 ../lab4_software_bsp/\libhal_bsp.a(alt_errno.o)
 .debug_str     0x0000235c       0x12 ../lab4_software_bsp/\libhal_bsp.a(alt_fstat.o)
 .debug_str     0x0000236e       0x21 ../lab4_software_bsp/\libhal_bsp.a(alt_irq_register.o)
 .debug_str     0x0000238f       0x12 ../lab4_software_bsp/\libhal_bsp.a(alt_isatty.o)
 .debug_str     0x000023a1       0x12 ../lab4_software_bsp/\libhal_bsp.a(alt_load.o)
 .debug_str     0x000023b3       0x12 ../lab4_software_bsp/\libhal_bsp.a(alt_lseek.o)
 .debug_str     0x000023c5       0x12 ../lab4_software_bsp/\libhal_bsp.a(alt_main.o)
 .debug_str     0x000023d7       0x20 ../lab4_software_bsp/\libhal_bsp.a(alt_malloc_lock.o)
 .debug_str     0x000023f7       0x20 ../lab4_software_bsp/\libhal_bsp.a(alt_putchar.o)
 .debug_str     0x00002417       0x12 ../lab4_software_bsp/\libhal_bsp.a(alt_read.o)
 .debug_str     0x00002429       0x1a ../lab4_software_bsp/\libhal_bsp.a(alt_sbrk.o)
 .debug_str     0x00002443       0x12 ../lab4_software_bsp/\libhal_bsp.a(alt_write.o)
 .debug_str     0x00002455      0x15a ../lab4_software_bsp/\libhal_bsp.a(alt_sys_init.o)
 .debug_str     0x000025af       0x12 ../lab4_software_bsp/\libhal_bsp.a(altera_avalon_jtag_uart_fd.o)
 .debug_str     0x000025c1       0x1a ../lab4_software_bsp/\libhal_bsp.a(altera_avalon_jtag_uart_init.o)
 .debug_str     0x000025db       0x12 ../lab4_software_bsp/\libhal_bsp.a(altera_avalon_jtag_uart_ioctl.o)
 .debug_str     0x000025ed       0x1a ../lab4_software_bsp/\libhal_bsp.a(altera_avalon_jtag_uart_read.o)
 .debug_str     0x00002607       0x1a ../lab4_software_bsp/\libhal_bsp.a(altera_avalon_jtag_uart_write.o)
 .debug_str     0x00002621       0x12 ../lab4_software_bsp/\libhal_bsp.a(altera_avalon_timer_ts.o)
 .debug_str     0x00002633       0x12 ../lab4_software_bsp/\libhal_bsp.a(altera_avalon_timer_vars.o)
 .debug_str     0x00002645       0x4f ../lab4_software_bsp/\libhal_bsp.a(altera_up_avalon_audio.o)
 .debug_str     0x00002694       0x55 ../lab4_software_bsp/\libhal_bsp.a(altera_up_avalon_character_lcd.o)
 .debug_str     0x000026e9       0x26 ../lab4_software_bsp/\libhal_bsp.a(altera_up_avalon_ethernet.o)
 .debug_str     0x0000270f       0x12 ../lab4_software_bsp/\libhal_bsp.a(altera_up_avalon_ethernet_low_level_driver.o)
 .debug_str     0x00002721       0x46 ../lab4_software_bsp/\libhal_bsp.a(altera_up_avalon_irda.o)
 .debug_str     0x00002767       0x2b ../lab4_software_bsp/\libhal_bsp.a(altera_up_avalon_parallel_port.o)
 .debug_str     0x00002792       0x3a ../lab4_software_bsp/\libhal_bsp.a(altera_up_avalon_ps2.o)
 .debug_str     0x000027cc       0x48 ../lab4_software_bsp/\libhal_bsp.a(altera_up_avalon_rs232.o)
 .debug_str     0x00002814       0x35 ../lab4_software_bsp/\libhal_bsp.a(altera_up_avalon_video_character_buffer_with_dma.o)
 .debug_str     0x00002849       0x93 ../lab4_software_bsp/\libhal_bsp.a(altera_up_avalon_video_pixel_buffer_dma.o)
 .debug_str     0x000028dc       0x23 ../lab4_software_bsp/\libhal_bsp.a(alt_alarm_start.o)
 .debug_str     0x000028ff       0x12 ../lab4_software_bsp/\libhal_bsp.a(alt_dcache_flush_all.o)
 .debug_str     0x00002911       0x12 ../lab4_software_bsp/\libhal_bsp.a(alt_dev_llist_insert.o)
 .debug_str     0x00002923       0x12 ../lab4_software_bsp/\libhal_bsp.a(alt_find_dev.o)
 .debug_str     0x00002935       0x12 ../lab4_software_bsp/\libhal_bsp.a(alt_icache_flush_all.o)
 .debug_str     0x00002947       0x12 ../lab4_software_bsp/\libhal_bsp.a(alt_io_redirect.o)
 .debug_str     0x00002959       0x12 ../lab4_software_bsp/\libhal_bsp.a(alt_irq_handler.o)
 .debug_str     0x0000296b       0x12 ../lab4_software_bsp/\libhal_bsp.a(alt_open.o)
 .debug_str     0x0000297d       0x1a ../lab4_software_bsp/\libhal_bsp.a(alt_tick.o)
 .debug_str     0x00002997       0x12 ../lab4_software_bsp/\libhal_bsp.a(alt_usleep.o)
 .debug_str     0x000029a9       0x12 ../lab4_software_bsp/\libhal_bsp.a(altera_nios2_qsys_irq.o)
 .debug_str     0x000029bb       0x12 ../lab4_software_bsp/\libhal_bsp.a(alt_busy_sleep.o)
 .debug_str     0x000029cd       0x12 ../lab4_software_bsp/\libhal_bsp.a(alt_find_file.o)
 .debug_str     0x000029df       0x12 ../lab4_software_bsp/\libhal_bsp.a(alt_get_fd.o)
 .debug_str     0x000029f1       0x12 ../lab4_software_bsp/\libhal_bsp.a(alt_icache_flush.o)
 .debug_str     0x00002a03       0x3b d:/fpga/nios2eds/bin/gnu/h-i686-mingw32/bin/../lib/gcc/nios2-elf/4.1.2/../../../../nios2-elf/lib\libc.a(lib_a-atexit.o)
                                0x1bf (size before relaxing)
 .debug_str     0x00002a3e       0x3e d:/fpga/nios2eds/bin/gnu/h-i686-mingw32/bin/../lib/gcc/nios2-elf/4.1.2/../../../../nios2-elf/lib\libc.a(lib_a-exit.o)
                                0x50c (size before relaxing)
 .debug_str     0x00002a7c       0x42 d:/fpga/nios2eds/bin/gnu/h-i686-mingw32/bin/../lib/gcc/nios2-elf/4.1.2/../../../../nios2-elf/lib\libc.a(lib_a-memcmp.o)
                                0x16a (size before relaxing)
 .debug_str     0x00002abe       0x45 d:/fpga/nios2eds/bin/gnu/h-i686-mingw32/bin/../lib/gcc/nios2-elf/4.1.2/../../../../nios2-elf/lib\libc.a(lib_a-putc.o)
                                0x512 (size before relaxing)
 .debug_str     0x00002b03       0x4a d:/fpga/nios2eds/bin/gnu/h-i686-mingw32/bin/../lib/gcc/nios2-elf/4.1.2/../../../../nios2-elf/lib\libc.a(lib_a-wbuf.o)
                                0x510 (size before relaxing)
 .debug_str     0x00002b4d       0x51 d:/fpga/nios2eds/bin/gnu/h-i686-mingw32/bin/../lib/gcc/nios2-elf/4.1.2/../../../../nios2-elf/lib\libc.a(lib_a-__atexit.o)
                                0x524 (size before relaxing)
 .debug_str     0x00002b9e       0x7b d:/fpga/nios2eds/bin/gnu/h-i686-mingw32/bin/../lib/gcc/nios2-elf/4.1.2/../../../../nios2-elf/lib\libc.a(lib_a-__call_atexit.o)
                                0x54e (size before relaxing)
 .debug_str     0x00002c19       0x1c ../lab4_software_bsp/\libhal_bsp.a(alt_exit.o)

.debug_loc      0x00000000     0xd75e
 *(.debug_loc)
 .debug_loc     0x00000000       0x2b obj/default/PS2_ISR.o
 .debug_loc     0x0000002b       0x2b obj/default/audio_ISR.o
 .debug_loc     0x00000056       0x2b obj/default/interval_timer_ISR.o
 .debug_loc     0x00000081      0x3df obj/default/media_interrupt_HAL.o
 .debug_loc     0x00000460       0x2b obj/default/pushbutton_ISR.o
 .debug_loc     0x0000048b       0x8f d:/fpga/nios2eds/bin/gnu/h-i686-mingw32/bin/../lib/gcc/nios2-elf/4.1.2\libgcc.a(_si_to_sf.o)
 .debug_loc     0x0000051a       0x66 d:/fpga/nios2eds/bin/gnu/h-i686-mingw32/bin/../lib/gcc/nios2-elf/4.1.2\libgcc.a(_sf_to_si.o)
 .debug_loc     0x00000580       0x32 d:/fpga/nios2eds/bin/gnu/h-i686-mingw32/bin/../lib/gcc/nios2-elf/4.1.2\libgcc.a(_sf_to_df.o)
 .debug_loc     0x000005b2       0x87 d:/fpga/nios2eds/bin/gnu/h-i686-mingw32/bin/../lib/gcc/nios2-elf/4.1.2\libgcc.a(_usi_to_sf.o)
 .debug_loc     0x00000639       0x58 d:/fpga/nios2eds/bin/gnu/h-i686-mingw32/bin/../lib/gcc/nios2-elf/4.1.2\libgcc.a(_make_df.o)
 .debug_loc     0x00000691       0x1e d:/fpga/nios2eds/bin/gnu/h-i686-mingw32/bin/../lib/gcc/nios2-elf/4.1.2\libgcc.a(_clzsi2.o)
 .debug_loc     0x000006af       0xf9 d:/fpga/nios2eds/bin/gnu/h-i686-mingw32/bin/../lib/gcc/nios2-elf/4.1.2\libgcc.a(_pack_sf.o)
 .debug_loc     0x000007a8       0x31 d:/fpga/nios2eds/bin/gnu/h-i686-mingw32/bin/../lib/gcc/nios2-elf/4.1.2\libgcc.a(_unpack_sf.o)
 .debug_loc     0x000007d9      0x184 d:/fpga/nios2eds/bin/gnu/h-i686-mingw32/bin/../lib/gcc/nios2-elf/4.1.2\libgcc.a(_pack_df.o)
 .debug_loc     0x0000095d       0xca d:/fpga/nios2eds/bin/gnu/h-i686-mingw32/bin/../lib/gcc/nios2-elf/4.1.2/../../../../nios2-elf/lib\libc.a(lib_a-memcpy.o)
 .debug_loc     0x00000a27       0xa1 d:/fpga/nios2eds/bin/gnu/h-i686-mingw32/bin/../lib/gcc/nios2-elf/4.1.2/../../../../nios2-elf/lib\libc.a(lib_a-memset.o)
 .debug_loc     0x00000ac8       0xcb d:/fpga/nios2eds/bin/gnu/h-i686-mingw32/bin/../lib/gcc/nios2-elf/4.1.2/../../../../nios2-elf/lib\libc.a(lib_a-printf.o)
 .debug_loc     0x00000b93     0x1e0d d:/fpga/nios2eds/bin/gnu/h-i686-mingw32/bin/../lib/gcc/nios2-elf/4.1.2/../../../../nios2-elf/lib\libc.a(lib_a-vfprintf.o)
 .debug_loc     0x000029a0       0x7c d:/fpga/nios2eds/bin/gnu/h-i686-mingw32/bin/../lib/gcc/nios2-elf/4.1.2/../../../../nios2-elf/lib\libc.a(lib_a-wsetup.o)
 .debug_loc     0x00002a1c     0x1dfa d:/fpga/nios2eds/bin/gnu/h-i686-mingw32/bin/../lib/gcc/nios2-elf/4.1.2/../../../../nios2-elf/lib\libc.a(lib_a-dtoa.o)
 .debug_loc     0x00004816      0x1f6 d:/fpga/nios2eds/bin/gnu/h-i686-mingw32/bin/../lib/gcc/nios2-elf/4.1.2/../../../../nios2-elf/lib\libc.a(lib_a-fflush.o)
 .debug_loc     0x00004a0c      0x19f d:/fpga/nios2eds/bin/gnu/h-i686-mingw32/bin/../lib/gcc/nios2-elf/4.1.2/../../../../nios2-elf/lib\libc.a(lib_a-findfp.o)
 .debug_loc     0x00004bab      0x4a7 d:/fpga/nios2eds/bin/gnu/h-i686-mingw32/bin/../lib/gcc/nios2-elf/4.1.2/../../../../nios2-elf/lib\libc.a(lib_a-freer.o)
 .debug_loc     0x00005052      0x4e4 d:/fpga/nios2eds/bin/gnu/h-i686-mingw32/bin/../lib/gcc/nios2-elf/4.1.2/../../../../nios2-elf/lib\libc.a(lib_a-fvwrite.o)
 .debug_loc     0x00005536      0x1d2 d:/fpga/nios2eds/bin/gnu/h-i686-mingw32/bin/../lib/gcc/nios2-elf/4.1.2/../../../../nios2-elf/lib\libc.a(lib_a-fwalk.o)
 .debug_loc     0x00005708       0xe1 d:/fpga/nios2eds/bin/gnu/h-i686-mingw32/bin/../lib/gcc/nios2-elf/4.1.2/../../../../nios2-elf/lib\libc.a(lib_a-locale.o)
 .debug_loc     0x000057e9      0x11c d:/fpga/nios2eds/bin/gnu/h-i686-mingw32/bin/../lib/gcc/nios2-elf/4.1.2/../../../../nios2-elf/lib\libc.a(lib_a-makebuf.o)
 .debug_loc     0x00005905      0xaeb d:/fpga/nios2eds/bin/gnu/h-i686-mingw32/bin/../lib/gcc/nios2-elf/4.1.2/../../../../nios2-elf/lib\libc.a(lib_a-mallocr.o)
 .debug_loc     0x000063f0      0x106 d:/fpga/nios2eds/bin/gnu/h-i686-mingw32/bin/../lib/gcc/nios2-elf/4.1.2/../../../../nios2-elf/lib\libc.a(lib_a-memchr.o)
 .debug_loc     0x000064f6      0x117 d:/fpga/nios2eds/bin/gnu/h-i686-mingw32/bin/../lib/gcc/nios2-elf/4.1.2/../../../../nios2-elf/lib\libc.a(lib_a-memmove.o)
 .debug_loc     0x0000660d     0x14d6 d:/fpga/nios2eds/bin/gnu/h-i686-mingw32/bin/../lib/gcc/nios2-elf/4.1.2/../../../../nios2-elf/lib\libc.a(lib_a-mprec.o)
 .debug_loc     0x00007ae3      0x8c0 d:/fpga/nios2eds/bin/gnu/h-i686-mingw32/bin/../lib/gcc/nios2-elf/4.1.2/../../../../nios2-elf/lib\libc.a(lib_a-reallocr.o)
 .debug_loc     0x000083a3       0x36 d:/fpga/nios2eds/bin/gnu/h-i686-mingw32/bin/../lib/gcc/nios2-elf/4.1.2/../../../../nios2-elf/lib\libc.a(lib_a-s_isinfd.o)
 .debug_loc     0x000083d9       0x18 d:/fpga/nios2eds/bin/gnu/h-i686-mingw32/bin/../lib/gcc/nios2-elf/4.1.2/../../../../nios2-elf/lib\libc.a(lib_a-s_isnand.o)
 .debug_loc     0x000083f1       0x5b d:/fpga/nios2eds/bin/gnu/h-i686-mingw32/bin/../lib/gcc/nios2-elf/4.1.2/../../../../nios2-elf/lib\libc.a(lib_a-sbrkr.o)
 .debug_loc     0x0000844c      0x21f d:/fpga/nios2eds/bin/gnu/h-i686-mingw32/bin/../lib/gcc/nios2-elf/4.1.2/../../../../nios2-elf/lib\libc.a(lib_a-stdio.o)
 .debug_loc     0x0000866b       0x65 d:/fpga/nios2eds/bin/gnu/h-i686-mingw32/bin/../lib/gcc/nios2-elf/4.1.2/../../../../nios2-elf/lib\libc.a(lib_a-strcmp.o)
 .debug_loc     0x000086d0       0x3c d:/fpga/nios2eds/bin/gnu/h-i686-mingw32/bin/../lib/gcc/nios2-elf/4.1.2/../../../../nios2-elf/lib\libc.a(lib_a-strlen.o)
 .debug_loc     0x0000870c       0x97 d:/fpga/nios2eds/bin/gnu/h-i686-mingw32/bin/../lib/gcc/nios2-elf/4.1.2/../../../../nios2-elf/lib\libc.a(lib_a-writer.o)
 .debug_loc     0x000087a3       0xe9 d:/fpga/nios2eds/bin/gnu/h-i686-mingw32/bin/../lib/gcc/nios2-elf/4.1.2/../../../../nios2-elf/lib\libc.a(lib_a-callocr.o)
 .debug_loc     0x0000888c       0x5b d:/fpga/nios2eds/bin/gnu/h-i686-mingw32/bin/../lib/gcc/nios2-elf/4.1.2/../../../../nios2-elf/lib\libc.a(lib_a-closer.o)
 .debug_loc     0x000088e7       0xe4 d:/fpga/nios2eds/bin/gnu/h-i686-mingw32/bin/../lib/gcc/nios2-elf/4.1.2/../../../../nios2-elf/lib\libc.a(lib_a-fclose.o)
 .debug_loc     0x000089cb       0x79 d:/fpga/nios2eds/bin/gnu/h-i686-mingw32/bin/../lib/gcc/nios2-elf/4.1.2/../../../../nios2-elf/lib\libc.a(lib_a-fstatr.o)
 .debug_loc     0x00008a44       0x5b d:/fpga/nios2eds/bin/gnu/h-i686-mingw32/bin/../lib/gcc/nios2-elf/4.1.2/../../../../nios2-elf/lib\libc.a(lib_a-isattyr.o)
 .debug_loc     0x00008a9f       0x97 d:/fpga/nios2eds/bin/gnu/h-i686-mingw32/bin/../lib/gcc/nios2-elf/4.1.2/../../../../nios2-elf/lib\libc.a(lib_a-lseekr.o)
 .debug_loc     0x00008b36       0x97 d:/fpga/nios2eds/bin/gnu/h-i686-mingw32/bin/../lib/gcc/nios2-elf/4.1.2/../../../../nios2-elf/lib\libc.a(lib_a-readr.o)
 .debug_loc     0x00008bcd      0xc12 d:/fpga/nios2eds/bin/gnu/h-i686-mingw32/bin/../lib/gcc/nios2-elf/4.1.2\libgcc.a(_udivdi3.o)
 .debug_loc     0x000097df      0xc26 d:/fpga/nios2eds/bin/gnu/h-i686-mingw32/bin/../lib/gcc/nios2-elf/4.1.2\libgcc.a(_umoddi3.o)
 .debug_loc     0x0000a405      0x47a d:/fpga/nios2eds/bin/gnu/h-i686-mingw32/bin/../lib/gcc/nios2-elf/4.1.2\libgcc.a(_addsub_df.o)
 .debug_loc     0x0000a87f      0x3b4 d:/fpga/nios2eds/bin/gnu/h-i686-mingw32/bin/../lib/gcc/nios2-elf/4.1.2\libgcc.a(_mul_df.o)
 .debug_loc     0x0000ac33      0x1df d:/fpga/nios2eds/bin/gnu/h-i686-mingw32/bin/../lib/gcc/nios2-elf/4.1.2\libgcc.a(_div_df.o)
 .debug_loc     0x0000ae12       0x70 d:/fpga/nios2eds/bin/gnu/h-i686-mingw32/bin/../lib/gcc/nios2-elf/4.1.2\libgcc.a(_eq_df.o)
 .debug_loc     0x0000ae82       0x70 d:/fpga/nios2eds/bin/gnu/h-i686-mingw32/bin/../lib/gcc/nios2-elf/4.1.2\libgcc.a(_ne_df.o)
 .debug_loc     0x0000aef2       0x70 d:/fpga/nios2eds/bin/gnu/h-i686-mingw32/bin/../lib/gcc/nios2-elf/4.1.2\libgcc.a(_gt_df.o)
 .debug_loc     0x0000af62       0x70 d:/fpga/nios2eds/bin/gnu/h-i686-mingw32/bin/../lib/gcc/nios2-elf/4.1.2\libgcc.a(_ge_df.o)
 .debug_loc     0x0000afd2       0x70 d:/fpga/nios2eds/bin/gnu/h-i686-mingw32/bin/../lib/gcc/nios2-elf/4.1.2\libgcc.a(_lt_df.o)
 .debug_loc     0x0000b042       0x9a d:/fpga/nios2eds/bin/gnu/h-i686-mingw32/bin/../lib/gcc/nios2-elf/4.1.2\libgcc.a(_si_to_df.o)
 .debug_loc     0x0000b0dc       0x8b d:/fpga/nios2eds/bin/gnu/h-i686-mingw32/bin/../lib/gcc/nios2-elf/4.1.2\libgcc.a(_df_to_si.o)
 .debug_loc     0x0000b167       0x5b d:/fpga/nios2eds/bin/gnu/h-i686-mingw32/bin/../lib/gcc/nios2-elf/4.1.2\libgcc.a(_usi_to_df.o)
 .debug_loc     0x0000b1c2      0x1d2 d:/fpga/nios2eds/bin/gnu/h-i686-mingw32/bin/../lib/gcc/nios2-elf/4.1.2\libgcc.a(lib2-divmod.o)
 .debug_loc     0x0000b394       0xc4 d:/fpga/nios2eds/bin/gnu/h-i686-mingw32/bin/../lib/gcc/nios2-elf/4.1.2\libgcc.a(_muldi3.o)
 .debug_loc     0x0000b458       0xe5 d:/fpga/nios2eds/bin/gnu/h-i686-mingw32/bin/../lib/gcc/nios2-elf/4.1.2\libgcc.a(_unpack_df.o)
 .debug_loc     0x0000b53d       0x56 ../lab4_software_bsp/\libhal_bsp.a(alt_close.o)
 .debug_loc     0x0000b593       0x2b ../lab4_software_bsp/\libhal_bsp.a(alt_dev.o)
 .debug_loc     0x0000b5be       0x56 ../lab4_software_bsp/\libhal_bsp.a(alt_fstat.o)
 .debug_loc     0x0000b614       0x2c ../lab4_software_bsp/\libhal_bsp.a(alt_irq_register.o)
 .debug_loc     0x0000b640       0x57 ../lab4_software_bsp/\libhal_bsp.a(alt_isatty.o)
 .debug_loc     0x0000b697       0x56 ../lab4_software_bsp/\libhal_bsp.a(alt_load.o)
 .debug_loc     0x0000b6ed       0x56 ../lab4_software_bsp/\libhal_bsp.a(alt_lseek.o)
 .debug_loc     0x0000b743       0x2b ../lab4_software_bsp/\libhal_bsp.a(alt_main.o)
 .debug_loc     0x0000b76e       0x56 ../lab4_software_bsp/\libhal_bsp.a(alt_malloc_lock.o)
 .debug_loc     0x0000b7c4       0x2b ../lab4_software_bsp/\libhal_bsp.a(alt_printf.o)
 .debug_loc     0x0000b7ef       0x2b ../lab4_software_bsp/\libhal_bsp.a(alt_putchar.o)
 .debug_loc     0x0000b81a       0x56 ../lab4_software_bsp/\libhal_bsp.a(alt_read.o)
 .debug_loc     0x0000b870       0x2b ../lab4_software_bsp/\libhal_bsp.a(alt_release_fd.o)
 .debug_loc     0x0000b89b       0x2b ../lab4_software_bsp/\libhal_bsp.a(alt_sbrk.o)
 .debug_loc     0x0000b8c6       0x56 ../lab4_software_bsp/\libhal_bsp.a(alt_write.o)
 .debug_loc     0x0000b91c       0x81 ../lab4_software_bsp/\libhal_bsp.a(alt_sys_init.o)
 .debug_loc     0x0000b99d       0xac ../lab4_software_bsp/\libhal_bsp.a(altera_avalon_jtag_uart_fd.o)
 .debug_loc     0x0000ba49       0xac ../lab4_software_bsp/\libhal_bsp.a(altera_avalon_jtag_uart_init.o)
 .debug_loc     0x0000baf5       0x2b ../lab4_software_bsp/\libhal_bsp.a(altera_avalon_jtag_uart_ioctl.o)
 .debug_loc     0x0000bb20       0x2b ../lab4_software_bsp/\libhal_bsp.a(altera_avalon_jtag_uart_read.o)
 .debug_loc     0x0000bb4b       0x2b ../lab4_software_bsp/\libhal_bsp.a(altera_avalon_jtag_uart_write.o)
 .debug_loc     0x0000bb76       0x81 ../lab4_software_bsp/\libhal_bsp.a(altera_avalon_timer_ts.o)
 .debug_loc     0x0000bbf7      0x306 ../lab4_software_bsp/\libhal_bsp.a(altera_up_avalon_audio.o)
 .debug_loc     0x0000befd      0x22f ../lab4_software_bsp/\libhal_bsp.a(altera_up_avalon_character_lcd.o)
 .debug_loc     0x0000c12c       0x56 ../lab4_software_bsp/\libhal_bsp.a(altera_up_avalon_ethernet.o)
 .debug_loc     0x0000c182       0xac ../lab4_software_bsp/\libhal_bsp.a(altera_up_avalon_ethernet_low_level_driver.o)
 .debug_loc     0x0000c22e      0x1ae ../lab4_software_bsp/\libhal_bsp.a(altera_up_avalon_irda.o)
 .debug_loc     0x0000c3dc       0x2b ../lab4_software_bsp/\libhal_bsp.a(altera_up_avalon_parallel_port.o)
 .debug_loc     0x0000c407      0x306 ../lab4_software_bsp/\libhal_bsp.a(altera_up_avalon_ps2.o)
 .debug_loc     0x0000c70d      0x1ae ../lab4_software_bsp/\libhal_bsp.a(altera_up_avalon_rs232.o)
 .debug_loc     0x0000c8bb       0xd7 ../lab4_software_bsp/\libhal_bsp.a(altera_up_avalon_video_character_buffer_with_dma.o)
 .debug_loc     0x0000c992      0x206 ../lab4_software_bsp/\libhal_bsp.a(altera_up_avalon_video_pixel_buffer_dma.o)
 .debug_loc     0x0000cb98       0x2b ../lab4_software_bsp/\libhal_bsp.a(alt_alarm_start.o)
 .debug_loc     0x0000cbc3       0x2b ../lab4_software_bsp/\libhal_bsp.a(alt_dcache_flush_all.o)
 .debug_loc     0x0000cbee       0x56 ../lab4_software_bsp/\libhal_bsp.a(alt_dev_llist_insert.o)
 .debug_loc     0x0000cc44       0x2b ../lab4_software_bsp/\libhal_bsp.a(alt_do_ctors.o)
 .debug_loc     0x0000cc6f       0x2b ../lab4_software_bsp/\libhal_bsp.a(alt_do_dtors.o)
 .debug_loc     0x0000cc9a       0x2b ../lab4_software_bsp/\libhal_bsp.a(alt_find_dev.o)
 .debug_loc     0x0000ccc5       0x2b ../lab4_software_bsp/\libhal_bsp.a(alt_icache_flush_all.o)
 .debug_loc     0x0000ccf0       0x56 ../lab4_software_bsp/\libhal_bsp.a(alt_io_redirect.o)
 .debug_loc     0x0000cd46       0x2b ../lab4_software_bsp/\libhal_bsp.a(alt_irq_handler.o)
 .debug_loc     0x0000cd71       0x81 ../lab4_software_bsp/\libhal_bsp.a(alt_open.o)
 .debug_loc     0x0000cdf2       0x56 ../lab4_software_bsp/\libhal_bsp.a(alt_tick.o)
 .debug_loc     0x0000ce48       0x2b ../lab4_software_bsp/\libhal_bsp.a(alt_usleep.o)
 .debug_loc     0x0000ce73       0x2b ../lab4_software_bsp/\libhal_bsp.a(altera_nios2_qsys_irq.o)
 .debug_loc     0x0000ce9e       0x2b ../lab4_software_bsp/\libhal_bsp.a(alt_busy_sleep.o)
 .debug_loc     0x0000cec9       0x2b ../lab4_software_bsp/\libhal_bsp.a(alt_find_file.o)
 .debug_loc     0x0000cef4       0x2b ../lab4_software_bsp/\libhal_bsp.a(alt_get_fd.o)
 .debug_loc     0x0000cf1f       0x2b ../lab4_software_bsp/\libhal_bsp.a(alt_icache_flush.o)
 .debug_loc     0x0000cf4a       0x1e d:/fpga/nios2eds/bin/gnu/h-i686-mingw32/bin/../lib/gcc/nios2-elf/4.1.2/../../../../nios2-elf/lib\libc.a(lib_a-atexit.o)
 .debug_loc     0x0000cf68       0x3d d:/fpga/nios2eds/bin/gnu/h-i686-mingw32/bin/../lib/gcc/nios2-elf/4.1.2/../../../../nios2-elf/lib\libc.a(lib_a-exit.o)
 .debug_loc     0x0000cfa5      0x114 d:/fpga/nios2eds/bin/gnu/h-i686-mingw32/bin/../lib/gcc/nios2-elf/4.1.2/../../../../nios2-elf/lib\libc.a(lib_a-memcmp.o)
 .debug_loc     0x0000d0b9      0x20d d:/fpga/nios2eds/bin/gnu/h-i686-mingw32/bin/../lib/gcc/nios2-elf/4.1.2/../../../../nios2-elf/lib\libc.a(lib_a-putc.o)
 .debug_loc     0x0000d2c6      0x157 d:/fpga/nios2eds/bin/gnu/h-i686-mingw32/bin/../lib/gcc/nios2-elf/4.1.2/../../../../nios2-elf/lib\libc.a(lib_a-wbuf.o)
 .debug_loc     0x0000d41d      0x120 d:/fpga/nios2eds/bin/gnu/h-i686-mingw32/bin/../lib/gcc/nios2-elf/4.1.2/../../../../nios2-elf/lib\libc.a(lib_a-__atexit.o)
 .debug_loc     0x0000d53d      0x1cb d:/fpga/nios2eds/bin/gnu/h-i686-mingw32/bin/../lib/gcc/nios2-elf/4.1.2/../../../../nios2-elf/lib\libc.a(lib_a-__call_atexit.o)
 .debug_loc     0x0000d708       0x56 ../lab4_software_bsp/\libhal_bsp.a(alt_exit.o)

.debug_macinfo
 *(.debug_macinfo)

.debug_weaknames
 *(.debug_weaknames)

.debug_funcnames
 *(.debug_funcnames)

.debug_typenames
 *(.debug_typenames)

.debug_varnames
 *(.debug_varnames)

.debug_alt_sim_info
                0x00000000       0x50
 *(.debug_alt_sim_info)
 .debug_alt_sim_info
                0x00000000       0x20 ../lab4_software_bsp//obj/HAL/src/crt0.o
 .debug_alt_sim_info
                0x00000020       0x30 ../lab4_software_bsp/\libhal_bsp.a(alt_busy_sleep.o)
                0x00800000                __alt_data_end = 0x800000
                0x00800000                PROVIDE (__alt_stack_pointer, __alt_data_end)
                0x007b8e54                PROVIDE (__alt_stack_limit, __alt_stack_base)
                0x007b8e54                PROVIDE (__alt_heap_start, end)
                0x00800000                PROVIDE (__alt_heap_limit, 0x800000)
OUTPUT(lab4_software.elf elf32-littlenios2)

.debug_ranges   0x00000000      0x9e8
 .debug_ranges  0x00000000       0x20 ../lab4_software_bsp//obj/HAL/src/crt0.o
 .debug_ranges  0x00000020       0x18 d:/fpga/nios2eds/bin/gnu/h-i686-mingw32/bin/../lib/gcc/nios2-elf/4.1.2\libgcc.a(_si_to_sf.o)
 .debug_ranges  0x00000038       0x40 d:/fpga/nios2eds/bin/gnu/h-i686-mingw32/bin/../lib/gcc/nios2-elf/4.1.2\libgcc.a(_usi_to_sf.o)
 .debug_ranges  0x00000078       0x28 d:/fpga/nios2eds/bin/gnu/h-i686-mingw32/bin/../lib/gcc/nios2-elf/4.1.2\libgcc.a(_clzsi2.o)
 .debug_ranges  0x000000a0       0x28 d:/fpga/nios2eds/bin/gnu/h-i686-mingw32/bin/../lib/gcc/nios2-elf/4.1.2\libgcc.a(_pack_df.o)
 .debug_ranges  0x000000c8      0x168 d:/fpga/nios2eds/bin/gnu/h-i686-mingw32/bin/../lib/gcc/nios2-elf/4.1.2/../../../../nios2-elf/lib\libc.a(lib_a-vfprintf.o)
 .debug_ranges  0x00000230       0x20 d:/fpga/nios2eds/bin/gnu/h-i686-mingw32/bin/../lib/gcc/nios2-elf/4.1.2/../../../../nios2-elf/lib\libc.a(lib_a-fflush.o)
 .debug_ranges  0x00000250       0x28 d:/fpga/nios2eds/bin/gnu/h-i686-mingw32/bin/../lib/gcc/nios2-elf/4.1.2/../../../../nios2-elf/lib\libc.a(lib_a-fvwrite.o)
 .debug_ranges  0x00000278       0xa0 d:/fpga/nios2eds/bin/gnu/h-i686-mingw32/bin/../lib/gcc/nios2-elf/4.1.2/../../../../nios2-elf/lib\libc.a(lib_a-fwalk.o)
 .debug_ranges  0x00000318       0x70 d:/fpga/nios2eds/bin/gnu/h-i686-mingw32/bin/../lib/gcc/nios2-elf/4.1.2/../../../../nios2-elf/lib\libc.a(lib_a-mallocr.o)
 .debug_ranges  0x00000388      0x110 d:/fpga/nios2eds/bin/gnu/h-i686-mingw32/bin/../lib/gcc/nios2-elf/4.1.2/../../../../nios2-elf/lib\libc.a(lib_a-reallocr.o)
 .debug_ranges  0x00000498       0x38 d:/fpga/nios2eds/bin/gnu/h-i686-mingw32/bin/../lib/gcc/nios2-elf/4.1.2/../../../../nios2-elf/lib\libc.a(lib_a-callocr.o)
 .debug_ranges  0x000004d0      0x188 d:/fpga/nios2eds/bin/gnu/h-i686-mingw32/bin/../lib/gcc/nios2-elf/4.1.2\libgcc.a(_udivdi3.o)
 .debug_ranges  0x00000658      0x198 d:/fpga/nios2eds/bin/gnu/h-i686-mingw32/bin/../lib/gcc/nios2-elf/4.1.2\libgcc.a(_umoddi3.o)
 .debug_ranges  0x000007f0       0x30 d:/fpga/nios2eds/bin/gnu/h-i686-mingw32/bin/../lib/gcc/nios2-elf/4.1.2\libgcc.a(_addsub_df.o)
 .debug_ranges  0x00000820       0x88 d:/fpga/nios2eds/bin/gnu/h-i686-mingw32/bin/../lib/gcc/nios2-elf/4.1.2\libgcc.a(_mul_df.o)
 .debug_ranges  0x000008a8       0x50 d:/fpga/nios2eds/bin/gnu/h-i686-mingw32/bin/../lib/gcc/nios2-elf/4.1.2\libgcc.a(_div_df.o)
 .debug_ranges  0x000008f8       0x18 d:/fpga/nios2eds/bin/gnu/h-i686-mingw32/bin/../lib/gcc/nios2-elf/4.1.2\libgcc.a(_usi_to_df.o)
 .debug_ranges  0x00000910       0x68 d:/fpga/nios2eds/bin/gnu/h-i686-mingw32/bin/../lib/gcc/nios2-elf/4.1.2\libgcc.a(_muldi3.o)
 .debug_ranges  0x00000978       0x28 ../lab4_software_bsp/\libhal_bsp.a(alt_irq_entry.o)
 .debug_ranges  0x000009a0       0x30 ../lab4_software_bsp/\libhal_bsp.a(alt_exception_entry.o)
 .debug_ranges  0x000009d0       0x18 d:/fpga/nios2eds/bin/gnu/h-i686-mingw32/bin/../lib/gcc/nios2-elf/4.1.2/../../../../nios2-elf/lib\libc.a(lib_a-__call_atexit.o)
