Archive member included because of file (symbol)

d:/modelsim_ase/quartus/quartus cyclone ii/nios2eds/bin/gnu/h-i686-mingw32/bin/../lib/gcc/nios2-elf/4.1.2\libgcc.a(_udivdi3.o)
                              obj/default/media_interrupt_HAL.o (__udivdi3)
d:/modelsim_ase/quartus/quartus cyclone ii/nios2eds/bin/gnu/h-i686-mingw32/bin/../lib/gcc/nios2-elf/4.1.2\libgcc.a(_si_to_sf.o)
                              obj/default/media_interrupt_HAL.o (__floatsisf)
d:/modelsim_ase/quartus/quartus cyclone ii/nios2eds/bin/gnu/h-i686-mingw32/bin/../lib/gcc/nios2-elf/4.1.2\libgcc.a(_sf_to_si.o)
                              obj/default/media_interrupt_HAL.o (__fixsfsi)
d:/modelsim_ase/quartus/quartus cyclone ii/nios2eds/bin/gnu/h-i686-mingw32/bin/../lib/gcc/nios2-elf/4.1.2\libgcc.a(_sf_to_df.o)
                              obj/default/media_interrupt_HAL.o (__extendsfdf2)
d:/modelsim_ase/quartus/quartus cyclone ii/nios2eds/bin/gnu/h-i686-mingw32/bin/../lib/gcc/nios2-elf/4.1.2\libgcc.a(_usi_to_sf.o)
                              obj/default/media_interrupt_HAL.o (__floatunsisf)
d:/modelsim_ase/quartus/quartus cyclone ii/nios2eds/bin/gnu/h-i686-mingw32/bin/../lib/gcc/nios2-elf/4.1.2\libgcc.a(_make_df.o)
                              d:/modelsim_ase/quartus/quartus cyclone ii/nios2eds/bin/gnu/h-i686-mingw32/bin/../lib/gcc/nios2-elf/4.1.2\libgcc.a(_sf_to_df.o) (__make_dp)
d:/modelsim_ase/quartus/quartus cyclone ii/nios2eds/bin/gnu/h-i686-mingw32/bin/../lib/gcc/nios2-elf/4.1.2\libgcc.a(lib2-divmod.o)
                              d:/modelsim_ase/quartus/quartus cyclone ii/nios2eds/bin/gnu/h-i686-mingw32/bin/../lib/gcc/nios2-elf/4.1.2\libgcc.a(_udivdi3.o) (__udivsi3)
d:/modelsim_ase/quartus/quartus cyclone ii/nios2eds/bin/gnu/h-i686-mingw32/bin/../lib/gcc/nios2-elf/4.1.2\libgcc.a(_clz.o)
                              d:/modelsim_ase/quartus/quartus cyclone ii/nios2eds/bin/gnu/h-i686-mingw32/bin/../lib/gcc/nios2-elf/4.1.2\libgcc.a(_udivdi3.o) (__clz_tab)
d:/modelsim_ase/quartus/quartus cyclone ii/nios2eds/bin/gnu/h-i686-mingw32/bin/../lib/gcc/nios2-elf/4.1.2\libgcc.a(_clzsi2.o)
                              d:/modelsim_ase/quartus/quartus cyclone ii/nios2eds/bin/gnu/h-i686-mingw32/bin/../lib/gcc/nios2-elf/4.1.2\libgcc.a(_si_to_sf.o) (__clzsi2)
d:/modelsim_ase/quartus/quartus cyclone ii/nios2eds/bin/gnu/h-i686-mingw32/bin/../lib/gcc/nios2-elf/4.1.2\libgcc.a(_pack_sf.o)
                              d:/modelsim_ase/quartus/quartus cyclone ii/nios2eds/bin/gnu/h-i686-mingw32/bin/../lib/gcc/nios2-elf/4.1.2\libgcc.a(_si_to_sf.o) (__pack_f)
d:/modelsim_ase/quartus/quartus cyclone ii/nios2eds/bin/gnu/h-i686-mingw32/bin/../lib/gcc/nios2-elf/4.1.2\libgcc.a(_unpack_sf.o)
                              d:/modelsim_ase/quartus/quartus cyclone ii/nios2eds/bin/gnu/h-i686-mingw32/bin/../lib/gcc/nios2-elf/4.1.2\libgcc.a(_sf_to_si.o) (__unpack_f)
d:/modelsim_ase/quartus/quartus cyclone ii/nios2eds/bin/gnu/h-i686-mingw32/bin/../lib/gcc/nios2-elf/4.1.2\libgcc.a(_pack_df.o)
                              d:/modelsim_ase/quartus/quartus cyclone ii/nios2eds/bin/gnu/h-i686-mingw32/bin/../lib/gcc/nios2-elf/4.1.2\libgcc.a(_make_df.o) (__pack_d)
d:/modelsim_ase/quartus/quartus cyclone ii/nios2eds/bin/gnu/h-i686-mingw32/bin/../lib/gcc/nios2-elf/4.1.2/../../../../nios2-elf/lib\libc.a(lib_a-memcpy.o)
                              obj/default/media_interrupt_HAL.o (memcpy)
d:/modelsim_ase/quartus/quartus cyclone ii/nios2eds/bin/gnu/h-i686-mingw32/bin/../lib/gcc/nios2-elf/4.1.2/../../../../nios2-elf/lib\libc.a(lib_a-memset.o)
                              obj/default/media_interrupt_HAL.o (memset)
d:/modelsim_ase/quartus/quartus cyclone ii/nios2eds/bin/gnu/h-i686-mingw32/bin/../lib/gcc/nios2-elf/4.1.2/../../../../nios2-elf/lib\libc.a(lib_a-printf.o)
                              obj/default/audio_ISR.o (printf)
d:/modelsim_ase/quartus/quartus cyclone ii/nios2eds/bin/gnu/h-i686-mingw32/bin/../lib/gcc/nios2-elf/4.1.2/../../../../nios2-elf/lib\libc.a(lib_a-vfprintf.o)
                              d:/modelsim_ase/quartus/quartus cyclone ii/nios2eds/bin/gnu/h-i686-mingw32/bin/../lib/gcc/nios2-elf/4.1.2/../../../../nios2-elf/lib\libc.a(lib_a-printf.o) (___vfprintf_internal_r)
d:/modelsim_ase/quartus/quartus cyclone ii/nios2eds/bin/gnu/h-i686-mingw32/bin/../lib/gcc/nios2-elf/4.1.2/../../../../nios2-elf/lib\libc.a(lib_a-wsetup.o)
                              d:/modelsim_ase/quartus/quartus cyclone ii/nios2eds/bin/gnu/h-i686-mingw32/bin/../lib/gcc/nios2-elf/4.1.2/../../../../nios2-elf/lib\libc.a(lib_a-vfprintf.o) (__swsetup_r)
d:/modelsim_ase/quartus/quartus cyclone ii/nios2eds/bin/gnu/h-i686-mingw32/bin/../lib/gcc/nios2-elf/4.1.2/../../../../nios2-elf/lib\libc.a(lib_a-dtoa.o)
                              d:/modelsim_ase/quartus/quartus cyclone ii/nios2eds/bin/gnu/h-i686-mingw32/bin/../lib/gcc/nios2-elf/4.1.2/../../../../nios2-elf/lib\libc.a(lib_a-vfprintf.o) (_dtoa_r)
d:/modelsim_ase/quartus/quartus cyclone ii/nios2eds/bin/gnu/h-i686-mingw32/bin/../lib/gcc/nios2-elf/4.1.2/../../../../nios2-elf/lib\libc.a(lib_a-fflush.o)
                              d:/modelsim_ase/quartus/quartus cyclone ii/nios2eds/bin/gnu/h-i686-mingw32/bin/../lib/gcc/nios2-elf/4.1.2/../../../../nios2-elf/lib\libc.a(lib_a-vfprintf.o) (_fflush_r)
d:/modelsim_ase/quartus/quartus cyclone ii/nios2eds/bin/gnu/h-i686-mingw32/bin/../lib/gcc/nios2-elf/4.1.2/../../../../nios2-elf/lib\libc.a(lib_a-findfp.o)
                              d:/modelsim_ase/quartus/quartus cyclone ii/nios2eds/bin/gnu/h-i686-mingw32/bin/../lib/gcc/nios2-elf/4.1.2/../../../../nios2-elf/lib\libc.a(lib_a-vfprintf.o) (__sinit)
d:/modelsim_ase/quartus/quartus cyclone ii/nios2eds/bin/gnu/h-i686-mingw32/bin/../lib/gcc/nios2-elf/4.1.2/../../../../nios2-elf/lib\libc.a(lib_a-freer.o)
                              d:/modelsim_ase/quartus/quartus cyclone ii/nios2eds/bin/gnu/h-i686-mingw32/bin/../lib/gcc/nios2-elf/4.1.2/../../../../nios2-elf/lib\libc.a(lib_a-wsetup.o) (_free_r)
d:/modelsim_ase/quartus/quartus cyclone ii/nios2eds/bin/gnu/h-i686-mingw32/bin/../lib/gcc/nios2-elf/4.1.2/../../../../nios2-elf/lib\libc.a(lib_a-fvwrite.o)
                              d:/modelsim_ase/quartus/quartus cyclone ii/nios2eds/bin/gnu/h-i686-mingw32/bin/../lib/gcc/nios2-elf/4.1.2/../../../../nios2-elf/lib\libc.a(lib_a-vfprintf.o) (__sfvwrite_r)
d:/modelsim_ase/quartus/quartus cyclone ii/nios2eds/bin/gnu/h-i686-mingw32/bin/../lib/gcc/nios2-elf/4.1.2/../../../../nios2-elf/lib\libc.a(lib_a-fwalk.o)
                              d:/modelsim_ase/quartus/quartus cyclone ii/nios2eds/bin/gnu/h-i686-mingw32/bin/../lib/gcc/nios2-elf/4.1.2/../../../../nios2-elf/lib\libc.a(lib_a-fflush.o) (_fwalk_reent)
d:/modelsim_ase/quartus/quartus cyclone ii/nios2eds/bin/gnu/h-i686-mingw32/bin/../lib/gcc/nios2-elf/4.1.2/../../../../nios2-elf/lib\libc.a(lib_a-impure.o)
                              d:/modelsim_ase/quartus/quartus cyclone ii/nios2eds/bin/gnu/h-i686-mingw32/bin/../lib/gcc/nios2-elf/4.1.2/../../../../nios2-elf/lib\libc.a(lib_a-printf.o) (_impure_ptr)
d:/modelsim_ase/quartus/quartus cyclone ii/nios2eds/bin/gnu/h-i686-mingw32/bin/../lib/gcc/nios2-elf/4.1.2/../../../../nios2-elf/lib\libc.a(lib_a-locale.o)
                              d:/modelsim_ase/quartus/quartus cyclone ii/nios2eds/bin/gnu/h-i686-mingw32/bin/../lib/gcc/nios2-elf/4.1.2/../../../../nios2-elf/lib\libc.a(lib_a-vfprintf.o) (_localeconv_r)
d:/modelsim_ase/quartus/quartus cyclone ii/nios2eds/bin/gnu/h-i686-mingw32/bin/../lib/gcc/nios2-elf/4.1.2/../../../../nios2-elf/lib\libc.a(lib_a-makebuf.o)
                              d:/modelsim_ase/quartus/quartus cyclone ii/nios2eds/bin/gnu/h-i686-mingw32/bin/../lib/gcc/nios2-elf/4.1.2/../../../../nios2-elf/lib\libc.a(lib_a-wsetup.o) (__smakebuf_r)
d:/modelsim_ase/quartus/quartus cyclone ii/nios2eds/bin/gnu/h-i686-mingw32/bin/../lib/gcc/nios2-elf/4.1.2/../../../../nios2-elf/lib\libc.a(lib_a-mallocr.o)
                              d:/modelsim_ase/quartus/quartus cyclone ii/nios2eds/bin/gnu/h-i686-mingw32/bin/../lib/gcc/nios2-elf/4.1.2/../../../../nios2-elf/lib\libc.a(lib_a-findfp.o) (_malloc_r)
d:/modelsim_ase/quartus/quartus cyclone ii/nios2eds/bin/gnu/h-i686-mingw32/bin/../lib/gcc/nios2-elf/4.1.2/../../../../nios2-elf/lib\libc.a(lib_a-memchr.o)
                              d:/modelsim_ase/quartus/quartus cyclone ii/nios2eds/bin/gnu/h-i686-mingw32/bin/../lib/gcc/nios2-elf/4.1.2/../../../../nios2-elf/lib\libc.a(lib_a-vfprintf.o) (memchr)
d:/modelsim_ase/quartus/quartus cyclone ii/nios2eds/bin/gnu/h-i686-mingw32/bin/../lib/gcc/nios2-elf/4.1.2/../../../../nios2-elf/lib\libc.a(lib_a-memmove.o)
                              d:/modelsim_ase/quartus/quartus cyclone ii/nios2eds/bin/gnu/h-i686-mingw32/bin/../lib/gcc/nios2-elf/4.1.2/../../../../nios2-elf/lib\libc.a(lib_a-fvwrite.o) (memmove)
d:/modelsim_ase/quartus/quartus cyclone ii/nios2eds/bin/gnu/h-i686-mingw32/bin/../lib/gcc/nios2-elf/4.1.2/../../../../nios2-elf/lib\libc.a(lib_a-mprec.o)
                              d:/modelsim_ase/quartus/quartus cyclone ii/nios2eds/bin/gnu/h-i686-mingw32/bin/../lib/gcc/nios2-elf/4.1.2/../../../../nios2-elf/lib\libc.a(lib_a-dtoa.o) (_Bfree)
d:/modelsim_ase/quartus/quartus cyclone ii/nios2eds/bin/gnu/h-i686-mingw32/bin/../lib/gcc/nios2-elf/4.1.2/../../../../nios2-elf/lib\libc.a(lib_a-reallocr.o)
                              d:/modelsim_ase/quartus/quartus cyclone ii/nios2eds/bin/gnu/h-i686-mingw32/bin/../lib/gcc/nios2-elf/4.1.2/../../../../nios2-elf/lib\libc.a(lib_a-fvwrite.o) (_realloc_r)
d:/modelsim_ase/quartus/quartus cyclone ii/nios2eds/bin/gnu/h-i686-mingw32/bin/../lib/gcc/nios2-elf/4.1.2/../../../../nios2-elf/lib\libc.a(lib_a-s_isinfd.o)
                              d:/modelsim_ase/quartus/quartus cyclone ii/nios2eds/bin/gnu/h-i686-mingw32/bin/../lib/gcc/nios2-elf/4.1.2/../../../../nios2-elf/lib\libc.a(lib_a-vfprintf.o) (__isinfd)
d:/modelsim_ase/quartus/quartus cyclone ii/nios2eds/bin/gnu/h-i686-mingw32/bin/../lib/gcc/nios2-elf/4.1.2/../../../../nios2-elf/lib\libc.a(lib_a-s_isnand.o)
                              d:/modelsim_ase/quartus/quartus cyclone ii/nios2eds/bin/gnu/h-i686-mingw32/bin/../lib/gcc/nios2-elf/4.1.2/../../../../nios2-elf/lib\libc.a(lib_a-vfprintf.o) (__isnand)
d:/modelsim_ase/quartus/quartus cyclone ii/nios2eds/bin/gnu/h-i686-mingw32/bin/../lib/gcc/nios2-elf/4.1.2/../../../../nios2-elf/lib\libc.a(lib_a-sbrkr.o)
                              d:/modelsim_ase/quartus/quartus cyclone ii/nios2eds/bin/gnu/h-i686-mingw32/bin/../lib/gcc/nios2-elf/4.1.2/../../../../nios2-elf/lib\libc.a(lib_a-freer.o) (_sbrk_r)
d:/modelsim_ase/quartus/quartus cyclone ii/nios2eds/bin/gnu/h-i686-mingw32/bin/../lib/gcc/nios2-elf/4.1.2/../../../../nios2-elf/lib\libc.a(lib_a-stdio.o)
                              d:/modelsim_ase/quartus/quartus cyclone ii/nios2eds/bin/gnu/h-i686-mingw32/bin/../lib/gcc/nios2-elf/4.1.2/../../../../nios2-elf/lib\libc.a(lib_a-findfp.o) (__sclose)
d:/modelsim_ase/quartus/quartus cyclone ii/nios2eds/bin/gnu/h-i686-mingw32/bin/../lib/gcc/nios2-elf/4.1.2/../../../../nios2-elf/lib\libc.a(lib_a-strcmp.o)
                              d:/modelsim_ase/quartus/quartus cyclone ii/nios2eds/bin/gnu/h-i686-mingw32/bin/../lib/gcc/nios2-elf/4.1.2/../../../../nios2-elf/lib\libc.a(lib_a-locale.o) (strcmp)
d:/modelsim_ase/quartus/quartus cyclone ii/nios2eds/bin/gnu/h-i686-mingw32/bin/../lib/gcc/nios2-elf/4.1.2/../../../../nios2-elf/lib\libc.a(lib_a-strlen.o)
                              d:/modelsim_ase/quartus/quartus cyclone ii/nios2eds/bin/gnu/h-i686-mingw32/bin/../lib/gcc/nios2-elf/4.1.2/../../../../nios2-elf/lib\libc.a(lib_a-vfprintf.o) (strlen)
d:/modelsim_ase/quartus/quartus cyclone ii/nios2eds/bin/gnu/h-i686-mingw32/bin/../lib/gcc/nios2-elf/4.1.2/../../../../nios2-elf/lib\libc.a(lib_a-writer.o)
                              d:/modelsim_ase/quartus/quartus cyclone ii/nios2eds/bin/gnu/h-i686-mingw32/bin/../lib/gcc/nios2-elf/4.1.2/../../../../nios2-elf/lib\libc.a(lib_a-stdio.o) (_write_r)
d:/modelsim_ase/quartus/quartus cyclone ii/nios2eds/bin/gnu/h-i686-mingw32/bin/../lib/gcc/nios2-elf/4.1.2/../../../../nios2-elf/lib\libc.a(lib_a-callocr.o)
                              d:/modelsim_ase/quartus/quartus cyclone ii/nios2eds/bin/gnu/h-i686-mingw32/bin/../lib/gcc/nios2-elf/4.1.2/../../../../nios2-elf/lib\libc.a(lib_a-mprec.o) (_calloc_r)
d:/modelsim_ase/quartus/quartus cyclone ii/nios2eds/bin/gnu/h-i686-mingw32/bin/../lib/gcc/nios2-elf/4.1.2/../../../../nios2-elf/lib\libc.a(lib_a-closer.o)
                              d:/modelsim_ase/quartus/quartus cyclone ii/nios2eds/bin/gnu/h-i686-mingw32/bin/../lib/gcc/nios2-elf/4.1.2/../../../../nios2-elf/lib\libc.a(lib_a-stdio.o) (_close_r)
d:/modelsim_ase/quartus/quartus cyclone ii/nios2eds/bin/gnu/h-i686-mingw32/bin/../lib/gcc/nios2-elf/4.1.2/../../../../nios2-elf/lib\libc.a(lib_a-fclose.o)
                              d:/modelsim_ase/quartus/quartus cyclone ii/nios2eds/bin/gnu/h-i686-mingw32/bin/../lib/gcc/nios2-elf/4.1.2/../../../../nios2-elf/lib\libc.a(lib_a-findfp.o) (fclose)
d:/modelsim_ase/quartus/quartus cyclone ii/nios2eds/bin/gnu/h-i686-mingw32/bin/../lib/gcc/nios2-elf/4.1.2/../../../../nios2-elf/lib\libc.a(lib_a-fstatr.o)
                              d:/modelsim_ase/quartus/quartus cyclone ii/nios2eds/bin/gnu/h-i686-mingw32/bin/../lib/gcc/nios2-elf/4.1.2/../../../../nios2-elf/lib\libc.a(lib_a-makebuf.o) (_fstat_r)
d:/modelsim_ase/quartus/quartus cyclone ii/nios2eds/bin/gnu/h-i686-mingw32/bin/../lib/gcc/nios2-elf/4.1.2/../../../../nios2-elf/lib\libc.a(lib_a-int_errno.o)
                              d:/modelsim_ase/quartus/quartus cyclone ii/nios2eds/bin/gnu/h-i686-mingw32/bin/../lib/gcc/nios2-elf/4.1.2/../../../../nios2-elf/lib\libc.a(lib_a-sbrkr.o) (errno)
d:/modelsim_ase/quartus/quartus cyclone ii/nios2eds/bin/gnu/h-i686-mingw32/bin/../lib/gcc/nios2-elf/4.1.2/../../../../nios2-elf/lib\libc.a(lib_a-isattyr.o)
                              d:/modelsim_ase/quartus/quartus cyclone ii/nios2eds/bin/gnu/h-i686-mingw32/bin/../lib/gcc/nios2-elf/4.1.2/../../../../nios2-elf/lib\libc.a(lib_a-makebuf.o) (_isatty_r)
d:/modelsim_ase/quartus/quartus cyclone ii/nios2eds/bin/gnu/h-i686-mingw32/bin/../lib/gcc/nios2-elf/4.1.2/../../../../nios2-elf/lib\libc.a(lib_a-lseekr.o)
                              d:/modelsim_ase/quartus/quartus cyclone ii/nios2eds/bin/gnu/h-i686-mingw32/bin/../lib/gcc/nios2-elf/4.1.2/../../../../nios2-elf/lib\libc.a(lib_a-stdio.o) (_lseek_r)
d:/modelsim_ase/quartus/quartus cyclone ii/nios2eds/bin/gnu/h-i686-mingw32/bin/../lib/gcc/nios2-elf/4.1.2/../../../../nios2-elf/lib\libc.a(lib_a-readr.o)
                              d:/modelsim_ase/quartus/quartus cyclone ii/nios2eds/bin/gnu/h-i686-mingw32/bin/../lib/gcc/nios2-elf/4.1.2/../../../../nios2-elf/lib\libc.a(lib_a-stdio.o) (_read_r)
d:/modelsim_ase/quartus/quartus cyclone ii/nios2eds/bin/gnu/h-i686-mingw32/bin/../lib/gcc/nios2-elf/4.1.2\libgcc.a(_umoddi3.o)
                              d:/modelsim_ase/quartus/quartus cyclone ii/nios2eds/bin/gnu/h-i686-mingw32/bin/../lib/gcc/nios2-elf/4.1.2/../../../../nios2-elf/lib\libc.a(lib_a-vfprintf.o) (__umoddi3)
d:/modelsim_ase/quartus/quartus cyclone ii/nios2eds/bin/gnu/h-i686-mingw32/bin/../lib/gcc/nios2-elf/4.1.2\libgcc.a(_addsub_df.o)
                              d:/modelsim_ase/quartus/quartus cyclone ii/nios2eds/bin/gnu/h-i686-mingw32/bin/../lib/gcc/nios2-elf/4.1.2/../../../../nios2-elf/lib\libc.a(lib_a-dtoa.o) (__subdf3)
d:/modelsim_ase/quartus/quartus cyclone ii/nios2eds/bin/gnu/h-i686-mingw32/bin/../lib/gcc/nios2-elf/4.1.2\libgcc.a(_mul_df.o)
                              d:/modelsim_ase/quartus/quartus cyclone ii/nios2eds/bin/gnu/h-i686-mingw32/bin/../lib/gcc/nios2-elf/4.1.2/../../../../nios2-elf/lib\libc.a(lib_a-dtoa.o) (__muldf3)
d:/modelsim_ase/quartus/quartus cyclone ii/nios2eds/bin/gnu/h-i686-mingw32/bin/../lib/gcc/nios2-elf/4.1.2\libgcc.a(_div_df.o)
                              d:/modelsim_ase/quartus/quartus cyclone ii/nios2eds/bin/gnu/h-i686-mingw32/bin/../lib/gcc/nios2-elf/4.1.2/../../../../nios2-elf/lib\libc.a(lib_a-dtoa.o) (__divdf3)
d:/modelsim_ase/quartus/quartus cyclone ii/nios2eds/bin/gnu/h-i686-mingw32/bin/../lib/gcc/nios2-elf/4.1.2\libgcc.a(_eq_df.o)
                              d:/modelsim_ase/quartus/quartus cyclone ii/nios2eds/bin/gnu/h-i686-mingw32/bin/../lib/gcc/nios2-elf/4.1.2/../../../../nios2-elf/lib\libc.a(lib_a-vfprintf.o) (__eqdf2)
d:/modelsim_ase/quartus/quartus cyclone ii/nios2eds/bin/gnu/h-i686-mingw32/bin/../lib/gcc/nios2-elf/4.1.2\libgcc.a(_ne_df.o)
                              d:/modelsim_ase/quartus/quartus cyclone ii/nios2eds/bin/gnu/h-i686-mingw32/bin/../lib/gcc/nios2-elf/4.1.2/../../../../nios2-elf/lib\libc.a(lib_a-vfprintf.o) (__nedf2)
d:/modelsim_ase/quartus/quartus cyclone ii/nios2eds/bin/gnu/h-i686-mingw32/bin/../lib/gcc/nios2-elf/4.1.2\libgcc.a(_gt_df.o)
                              d:/modelsim_ase/quartus/quartus cyclone ii/nios2eds/bin/gnu/h-i686-mingw32/bin/../lib/gcc/nios2-elf/4.1.2/../../../../nios2-elf/lib\libc.a(lib_a-dtoa.o) (__gtdf2)
d:/modelsim_ase/quartus/quartus cyclone ii/nios2eds/bin/gnu/h-i686-mingw32/bin/../lib/gcc/nios2-elf/4.1.2\libgcc.a(_ge_df.o)
                              d:/modelsim_ase/quartus/quartus cyclone ii/nios2eds/bin/gnu/h-i686-mingw32/bin/../lib/gcc/nios2-elf/4.1.2/../../../../nios2-elf/lib\libc.a(lib_a-dtoa.o) (__gedf2)
d:/modelsim_ase/quartus/quartus cyclone ii/nios2eds/bin/gnu/h-i686-mingw32/bin/../lib/gcc/nios2-elf/4.1.2\libgcc.a(_lt_df.o)
                              d:/modelsim_ase/quartus/quartus cyclone ii/nios2eds/bin/gnu/h-i686-mingw32/bin/../lib/gcc/nios2-elf/4.1.2/../../../../nios2-elf/lib\libc.a(lib_a-vfprintf.o) (__ltdf2)
d:/modelsim_ase/quartus/quartus cyclone ii/nios2eds/bin/gnu/h-i686-mingw32/bin/../lib/gcc/nios2-elf/4.1.2\libgcc.a(_si_to_df.o)
                              d:/modelsim_ase/quartus/quartus cyclone ii/nios2eds/bin/gnu/h-i686-mingw32/bin/../lib/gcc/nios2-elf/4.1.2/../../../../nios2-elf/lib\libc.a(lib_a-dtoa.o) (__floatsidf)
d:/modelsim_ase/quartus/quartus cyclone ii/nios2eds/bin/gnu/h-i686-mingw32/bin/../lib/gcc/nios2-elf/4.1.2\libgcc.a(_df_to_si.o)
                              d:/modelsim_ase/quartus/quartus cyclone ii/nios2eds/bin/gnu/h-i686-mingw32/bin/../lib/gcc/nios2-elf/4.1.2/../../../../nios2-elf/lib\libc.a(lib_a-dtoa.o) (__fixdfsi)
d:/modelsim_ase/quartus/quartus cyclone ii/nios2eds/bin/gnu/h-i686-mingw32/bin/../lib/gcc/nios2-elf/4.1.2\libgcc.a(_thenan_df.o)
                              d:/modelsim_ase/quartus/quartus cyclone ii/nios2eds/bin/gnu/h-i686-mingw32/bin/../lib/gcc/nios2-elf/4.1.2\libgcc.a(_addsub_df.o) (__thenan_df)
d:/modelsim_ase/quartus/quartus cyclone ii/nios2eds/bin/gnu/h-i686-mingw32/bin/../lib/gcc/nios2-elf/4.1.2\libgcc.a(_usi_to_df.o)
                              d:/modelsim_ase/quartus/quartus cyclone ii/nios2eds/bin/gnu/h-i686-mingw32/bin/../lib/gcc/nios2-elf/4.1.2/../../../../nios2-elf/lib\libc.a(lib_a-dtoa.o) (__floatunsidf)
d:/modelsim_ase/quartus/quartus cyclone ii/nios2eds/bin/gnu/h-i686-mingw32/bin/../lib/gcc/nios2-elf/4.1.2\libgcc.a(_muldi3.o)
                              d:/modelsim_ase/quartus/quartus cyclone ii/nios2eds/bin/gnu/h-i686-mingw32/bin/../lib/gcc/nios2-elf/4.1.2\libgcc.a(_mul_df.o) (__muldi3)
d:/modelsim_ase/quartus/quartus cyclone ii/nios2eds/bin/gnu/h-i686-mingw32/bin/../lib/gcc/nios2-elf/4.1.2\libgcc.a(_unpack_df.o)
                              d:/modelsim_ase/quartus/quartus cyclone ii/nios2eds/bin/gnu/h-i686-mingw32/bin/../lib/gcc/nios2-elf/4.1.2\libgcc.a(_addsub_df.o) (__unpack_d)
d:/modelsim_ase/quartus/quartus cyclone ii/nios2eds/bin/gnu/h-i686-mingw32/bin/../lib/gcc/nios2-elf/4.1.2\libgcc.a(_fpcmp_parts_df.o)
                              d:/modelsim_ase/quartus/quartus cyclone ii/nios2eds/bin/gnu/h-i686-mingw32/bin/../lib/gcc/nios2-elf/4.1.2\libgcc.a(_eq_df.o) (__fpcmp_parts_d)
../FPGA_Lab4_Software_bsp/\libhal_bsp.a(alt_close.o)
                              d:/modelsim_ase/quartus/quartus cyclone ii/nios2eds/bin/gnu/h-i686-mingw32/bin/../lib/gcc/nios2-elf/4.1.2/../../../../nios2-elf/lib\libc.a(lib_a-closer.o) (close)
../FPGA_Lab4_Software_bsp/\libhal_bsp.a(alt_dev.o)
                              ../FPGA_Lab4_Software_bsp/\libhal_bsp.a(alt_close.o) (alt_fd_list)
../FPGA_Lab4_Software_bsp/\libhal_bsp.a(alt_errno.o)
                              ../FPGA_Lab4_Software_bsp/\libhal_bsp.a(alt_close.o) (alt_errno)
../FPGA_Lab4_Software_bsp/\libhal_bsp.a(alt_fstat.o)
                              d:/modelsim_ase/quartus/quartus cyclone ii/nios2eds/bin/gnu/h-i686-mingw32/bin/../lib/gcc/nios2-elf/4.1.2/../../../../nios2-elf/lib\libc.a(lib_a-fstatr.o) (fstat)
../FPGA_Lab4_Software_bsp/\libhal_bsp.a(alt_irq_register.o)
                              obj/default/media_interrupt_HAL.o (alt_irq_register)
../FPGA_Lab4_Software_bsp/\libhal_bsp.a(alt_irq_vars.o)
                              ../FPGA_Lab4_Software_bsp/\libhal_bsp.a(alt_irq_register.o) (alt_irq_active)
../FPGA_Lab4_Software_bsp/\libhal_bsp.a(alt_isatty.o)
                              d:/modelsim_ase/quartus/quartus cyclone ii/nios2eds/bin/gnu/h-i686-mingw32/bin/../lib/gcc/nios2-elf/4.1.2/../../../../nios2-elf/lib\libc.a(lib_a-isattyr.o) (isatty)
../FPGA_Lab4_Software_bsp/\libhal_bsp.a(alt_load.o)
                              ../FPGA_Lab4_Software_bsp//obj/HAL/src/crt0.o (alt_load)
../FPGA_Lab4_Software_bsp/\libhal_bsp.a(alt_lseek.o)
                              d:/modelsim_ase/quartus/quartus cyclone ii/nios2eds/bin/gnu/h-i686-mingw32/bin/../lib/gcc/nios2-elf/4.1.2/../../../../nios2-elf/lib\libc.a(lib_a-lseekr.o) (lseek)
../FPGA_Lab4_Software_bsp/\libhal_bsp.a(alt_main.o)
                              ../FPGA_Lab4_Software_bsp//obj/HAL/src/crt0.o (alt_main)
../FPGA_Lab4_Software_bsp/\libhal_bsp.a(alt_malloc_lock.o)
                              d:/modelsim_ase/quartus/quartus cyclone ii/nios2eds/bin/gnu/h-i686-mingw32/bin/../lib/gcc/nios2-elf/4.1.2/../../../../nios2-elf/lib\libc.a(lib_a-freer.o) (__malloc_lock)
../FPGA_Lab4_Software_bsp/\libhal_bsp.a(alt_printf.o)
                              obj/default/media_interrupt_HAL.o (alt_printf)
../FPGA_Lab4_Software_bsp/\libhal_bsp.a(alt_putchar.o)
                              ../FPGA_Lab4_Software_bsp/\libhal_bsp.a(alt_printf.o) (alt_putchar)
../FPGA_Lab4_Software_bsp/\libhal_bsp.a(alt_read.o)
                              d:/modelsim_ase/quartus/quartus cyclone ii/nios2eds/bin/gnu/h-i686-mingw32/bin/../lib/gcc/nios2-elf/4.1.2/../../../../nios2-elf/lib\libc.a(lib_a-readr.o) (read)
../FPGA_Lab4_Software_bsp/\libhal_bsp.a(alt_release_fd.o)
                              ../FPGA_Lab4_Software_bsp/\libhal_bsp.a(alt_close.o) (alt_release_fd)
../FPGA_Lab4_Software_bsp/\libhal_bsp.a(alt_sbrk.o)
                              d:/modelsim_ase/quartus/quartus cyclone ii/nios2eds/bin/gnu/h-i686-mingw32/bin/../lib/gcc/nios2-elf/4.1.2/../../../../nios2-elf/lib\libc.a(lib_a-sbrkr.o) (sbrk)
../FPGA_Lab4_Software_bsp/\libhal_bsp.a(alt_write.o)
                              d:/modelsim_ase/quartus/quartus cyclone ii/nios2eds/bin/gnu/h-i686-mingw32/bin/../lib/gcc/nios2-elf/4.1.2/../../../../nios2-elf/lib\libc.a(lib_a-writer.o) (write)
../FPGA_Lab4_Software_bsp/\libhal_bsp.a(alt_sys_init.o)
                              ../FPGA_Lab4_Software_bsp/\libhal_bsp.a(alt_main.o) (alt_irq_init)
../FPGA_Lab4_Software_bsp/\libhal_bsp.a(altera_avalon_jtag_uart_fd.o)
                              ../FPGA_Lab4_Software_bsp/\libhal_bsp.a(alt_sys_init.o) (altera_avalon_jtag_uart_read_fd)
../FPGA_Lab4_Software_bsp/\libhal_bsp.a(altera_avalon_jtag_uart_init.o)
                              ../FPGA_Lab4_Software_bsp/\libhal_bsp.a(alt_sys_init.o) (altera_avalon_jtag_uart_init)
../FPGA_Lab4_Software_bsp/\libhal_bsp.a(altera_avalon_jtag_uart_ioctl.o)
                              ../FPGA_Lab4_Software_bsp/\libhal_bsp.a(altera_avalon_jtag_uart_fd.o) (altera_avalon_jtag_uart_ioctl)
../FPGA_Lab4_Software_bsp/\libhal_bsp.a(altera_avalon_jtag_uart_read.o)
                              ../FPGA_Lab4_Software_bsp/\libhal_bsp.a(altera_avalon_jtag_uart_fd.o) (altera_avalon_jtag_uart_read)
../FPGA_Lab4_Software_bsp/\libhal_bsp.a(altera_avalon_jtag_uart_write.o)
                              ../FPGA_Lab4_Software_bsp/\libhal_bsp.a(altera_avalon_jtag_uart_fd.o) (altera_avalon_jtag_uart_write)
../FPGA_Lab4_Software_bsp/\libhal_bsp.a(altera_avalon_timer_ts.o)
                              obj/default/media_interrupt_HAL.o (alt_timestamp_start)
../FPGA_Lab4_Software_bsp/\libhal_bsp.a(altera_avalon_timer_vars.o)
                              ../FPGA_Lab4_Software_bsp/\libhal_bsp.a(alt_sys_init.o) (altera_avalon_timer_ts_base)
../FPGA_Lab4_Software_bsp/\libhal_bsp.a(altera_up_avalon_audio.o)
                              obj/default/media_interrupt_HAL.o (alt_up_audio_open_dev)
../FPGA_Lab4_Software_bsp/\libhal_bsp.a(altera_up_avalon_character_lcd.o)
                              obj/default/media_interrupt_HAL.o (alt_up_character_lcd_open_dev)
../FPGA_Lab4_Software_bsp/\libhal_bsp.a(altera_up_avalon_parallel_port.o)
                              obj/default/media_interrupt_HAL.o (alt_up_parallel_port_open_dev)
../FPGA_Lab4_Software_bsp/\libhal_bsp.a(altera_up_avalon_ps2.o)
                              obj/default/PS2_ISR.o (alt_up_ps2_write_data_byte_with_ack)
../FPGA_Lab4_Software_bsp/\libhal_bsp.a(altera_up_avalon_video_character_buffer_with_dma.o)
                              obj/default/media_interrupt_HAL.o (alt_up_char_buffer_open_dev)
../FPGA_Lab4_Software_bsp/\libhal_bsp.a(altera_up_avalon_video_pixel_buffer_dma.o)
                              obj/default/media_interrupt_HAL.o (alt_up_pixel_buffer_dma_open_dev)
../FPGA_Lab4_Software_bsp/\libhal_bsp.a(alt_alarm_start.o)
                              ../FPGA_Lab4_Software_bsp/\libhal_bsp.a(altera_avalon_jtag_uart_init.o) (alt_alarm_start)
../FPGA_Lab4_Software_bsp/\libhal_bsp.a(alt_dcache_flush_all.o)
                              ../FPGA_Lab4_Software_bsp/\libhal_bsp.a(alt_load.o) (alt_dcache_flush_all)
../FPGA_Lab4_Software_bsp/\libhal_bsp.a(alt_dev_llist_insert.o)
                              ../FPGA_Lab4_Software_bsp/\libhal_bsp.a(alt_sys_init.o) (alt_dev_llist_insert)
../FPGA_Lab4_Software_bsp/\libhal_bsp.a(alt_do_ctors.o)
                              ../FPGA_Lab4_Software_bsp/\libhal_bsp.a(alt_main.o) (_do_ctors)
../FPGA_Lab4_Software_bsp/\libhal_bsp.a(alt_do_dtors.o)
                              ../FPGA_Lab4_Software_bsp/\libhal_bsp.a(alt_main.o) (_do_dtors)
../FPGA_Lab4_Software_bsp/\libhal_bsp.a(alt_find_dev.o)
                              ../FPGA_Lab4_Software_bsp/\libhal_bsp.a(altera_up_avalon_audio.o) (alt_find_dev)
../FPGA_Lab4_Software_bsp/\libhal_bsp.a(alt_icache_flush_all.o)
                              ../FPGA_Lab4_Software_bsp/\libhal_bsp.a(alt_load.o) (alt_icache_flush_all)
../FPGA_Lab4_Software_bsp/\libhal_bsp.a(alt_iic.o)
                              ../FPGA_Lab4_Software_bsp/\libhal_bsp.a(altera_avalon_jtag_uart_init.o) (alt_ic_isr_register)
../FPGA_Lab4_Software_bsp/\libhal_bsp.a(alt_iic_isr_register.o)
                              ../FPGA_Lab4_Software_bsp/\libhal_bsp.a(alt_iic.o) (alt_iic_isr_register)
../FPGA_Lab4_Software_bsp/\libhal_bsp.a(alt_io_redirect.o)
                              ../FPGA_Lab4_Software_bsp/\libhal_bsp.a(alt_main.o) (alt_io_redirect)
../FPGA_Lab4_Software_bsp/\libhal_bsp.a(alt_irq_entry.o)
                              ../FPGA_Lab4_Software_bsp/\libhal_bsp.a(alt_irq_register.o) (alt_irq_entry)
../FPGA_Lab4_Software_bsp/\libhal_bsp.a(alt_irq_handler.o)
                              ../FPGA_Lab4_Software_bsp/\libhal_bsp.a(alt_irq_register.o) (alt_irq_handler)
../FPGA_Lab4_Software_bsp/\libhal_bsp.a(alt_open.o)
                              ../FPGA_Lab4_Software_bsp/\libhal_bsp.a(alt_io_redirect.o) (open)
../FPGA_Lab4_Software_bsp/\libhal_bsp.a(alt_tick.o)
                              ../FPGA_Lab4_Software_bsp/\libhal_bsp.a(altera_avalon_jtag_uart_init.o) (_alt_tick_rate)
../FPGA_Lab4_Software_bsp/\libhal_bsp.a(altera_nios2_qsys_irq.o)
                              ../FPGA_Lab4_Software_bsp/\libhal_bsp.a(alt_sys_init.o) (altera_nios2_qsys_irq_init)
../FPGA_Lab4_Software_bsp/\libhal_bsp.a(alt_exception_entry.o)
                              ../FPGA_Lab4_Software_bsp/\libhal_bsp.a(alt_irq_entry.o) (alt_exception)
../FPGA_Lab4_Software_bsp/\libhal_bsp.a(alt_find_file.o)
                              ../FPGA_Lab4_Software_bsp/\libhal_bsp.a(alt_open.o) (alt_find_file)
../FPGA_Lab4_Software_bsp/\libhal_bsp.a(alt_get_fd.o)
                              ../FPGA_Lab4_Software_bsp/\libhal_bsp.a(alt_open.o) (alt_get_fd)
../FPGA_Lab4_Software_bsp/\libhal_bsp.a(alt_icache_flush.o)
                              ../FPGA_Lab4_Software_bsp/\libhal_bsp.a(alt_icache_flush_all.o) (alt_icache_flush)
d:/modelsim_ase/quartus/quartus cyclone ii/nios2eds/bin/gnu/h-i686-mingw32/bin/../lib/gcc/nios2-elf/4.1.2/../../../../nios2-elf/lib\libc.a(lib_a-atexit.o)
                              ../FPGA_Lab4_Software_bsp/\libhal_bsp.a(alt_main.o) (atexit)
d:/modelsim_ase/quartus/quartus cyclone ii/nios2eds/bin/gnu/h-i686-mingw32/bin/../lib/gcc/nios2-elf/4.1.2/../../../../nios2-elf/lib\libc.a(lib_a-exit.o)
                              ../FPGA_Lab4_Software_bsp/\libhal_bsp.a(alt_main.o) (exit)
d:/modelsim_ase/quartus/quartus cyclone ii/nios2eds/bin/gnu/h-i686-mingw32/bin/../lib/gcc/nios2-elf/4.1.2/../../../../nios2-elf/lib\libc.a(lib_a-memcmp.o)
                              ../FPGA_Lab4_Software_bsp/\libhal_bsp.a(alt_find_dev.o) (memcmp)
d:/modelsim_ase/quartus/quartus cyclone ii/nios2eds/bin/gnu/h-i686-mingw32/bin/../lib/gcc/nios2-elf/4.1.2/../../../../nios2-elf/lib\libc.a(lib_a-putc.o)
                              ../FPGA_Lab4_Software_bsp/\libhal_bsp.a(alt_putchar.o) (putc)
d:/modelsim_ase/quartus/quartus cyclone ii/nios2eds/bin/gnu/h-i686-mingw32/bin/../lib/gcc/nios2-elf/4.1.2/../../../../nios2-elf/lib\libc.a(lib_a-wbuf.o)
                              d:/modelsim_ase/quartus/quartus cyclone ii/nios2eds/bin/gnu/h-i686-mingw32/bin/../lib/gcc/nios2-elf/4.1.2/../../../../nios2-elf/lib\libc.a(lib_a-putc.o) (__swbuf_r)
d:/modelsim_ase/quartus/quartus cyclone ii/nios2eds/bin/gnu/h-i686-mingw32/bin/../lib/gcc/nios2-elf/4.1.2/../../../../nios2-elf/lib\libc.a(lib_a-__atexit.o)
                              d:/modelsim_ase/quartus/quartus cyclone ii/nios2eds/bin/gnu/h-i686-mingw32/bin/../lib/gcc/nios2-elf/4.1.2/../../../../nios2-elf/lib\libc.a(lib_a-atexit.o) (__register_exitproc)
d:/modelsim_ase/quartus/quartus cyclone ii/nios2eds/bin/gnu/h-i686-mingw32/bin/../lib/gcc/nios2-elf/4.1.2/../../../../nios2-elf/lib\libc.a(lib_a-__call_atexit.o)
                              d:/modelsim_ase/quartus/quartus cyclone ii/nios2eds/bin/gnu/h-i686-mingw32/bin/../lib/gcc/nios2-elf/4.1.2/../../../../nios2-elf/lib\libc.a(lib_a-exit.o) (__call_exitprocs)
../FPGA_Lab4_Software_bsp/\libhal_bsp.a(alt_exit.o)
                              d:/modelsim_ase/quartus/quartus cyclone ii/nios2eds/bin/gnu/h-i686-mingw32/bin/../lib/gcc/nios2-elf/4.1.2/../../../../nios2-elf/lib\libc.a(lib_a-exit.o) (_exit)

Allocating common symbols
Common symbol       size              file

alt_irq             0x100             ../FPGA_Lab4_Software_bsp/\libhal_bsp.a(alt_irq_handler.o)
byte2               0x1               obj/default/globals.o
byte3               0x1               obj/default/globals.o
copy_byte3          0x1               obj/default/globals.o
record_l_buf        0x61a80           obj/default/audio_ISR.o
byte1               0x1               obj/default/globals.o
prev_y_mouse        0x4               obj/default/media_interrupt_HAL.o
errno               0x4               d:/modelsim_ase/quartus/quartus cyclone ii/nios2eds/bin/gnu/h-i686-mingw32/bin/../lib/gcc/nios2-elf/4.1.2/../../../../nios2-elf/lib\libc.a(lib_a-int_errno.o)
copy_byte1          0x1               obj/default/globals.o
y_mouse             0x4               obj/default/media_interrupt_HAL.o
flag                0x4               obj/default/PS2_ISR.o
up_dev              0x20              obj/default/globals.o
flag_denoise        0x4               obj/default/media_interrupt_HAL.o
play_l_buf          0x61a80           obj/default/audio_ISR.o
prev_y_mouse_front  0x4               obj/default/media_interrupt_HAL.o
record_r_buf        0x61a80           obj/default/audio_ISR.o
prev_y_mouse_back   0x4               obj/default/media_interrupt_HAL.o
max_y_mouse         0x4               obj/default/media_interrupt_HAL.o
prev_x_mouse        0x4               obj/default/media_interrupt_HAL.o
max_x_mouse         0x4               obj/default/media_interrupt_HAL.o
copy_byte2          0x1               obj/default/globals.o
flag_play           0x4               obj/default/media_interrupt_HAL.o
right_button_click  0x4               obj/default/media_interrupt_HAL.o
left_button_click   0x4               obj/default/media_interrupt_HAL.o
prev_x_mouse_back   0x4               obj/default/media_interrupt_HAL.o
timeout             0x4               obj/default/globals.o
_atexit0            0x190             d:/modelsim_ase/quartus/quartus cyclone ii/nios2eds/bin/gnu/h-i686-mingw32/bin/../lib/gcc/nios2-elf/4.1.2/../../../../nios2-elf/lib\libc.a(lib_a-atexit.o)
buf_index_play      0x4               obj/default/globals.o
pixel_buffer_dev    0x4               obj/default/media_interrupt_HAL.o
x_mouse             0x4               obj/default/media_interrupt_HAL.o
middle_button_click
                    0x4               obj/default/media_interrupt_HAL.o
play_r_buf          0x61a80           obj/default/audio_ISR.o
buf_index_record    0x4               obj/default/globals.o
prev_x_mouse_front  0x4               obj/default/media_interrupt_HAL.o

Memory Configuration

Name             Origin             Length             Attributes
reset            0x00000000         0x00000020
SDRAM            0x00000020         0x007fffe0
Flash_flash_data 0x0c000000         0x00400000
*default*        0x00000000         0xffffffff

Linker script and memory map

LOAD ../FPGA_Lab4_Software_bsp//obj/HAL/src/crt0.o
LOAD obj/default/PS2_ISR.o
LOAD obj/default/audio_ISR.o
LOAD obj/default/globals.o
LOAD obj/default/interval_timer_ISR.o
LOAD obj/default/media_interrupt_HAL.o
LOAD obj/default/pushbutton_ISR.o
LOAD d:/modelsim_ase/quartus/quartus cyclone ii/nios2eds/bin/gnu/h-i686-mingw32/bin/../lib/gcc/nios2-elf/4.1.2/../../../../nios2-elf/lib\libstdc++.a
LOAD d:/modelsim_ase/quartus/quartus cyclone ii/nios2eds/bin/gnu/h-i686-mingw32/bin/../lib/gcc/nios2-elf/4.1.2/../../../../nios2-elf/lib\libm.a
LOAD d:/modelsim_ase/quartus/quartus cyclone ii/nios2eds/bin/gnu/h-i686-mingw32/bin/../lib/gcc/nios2-elf/4.1.2\libgcc.a
START GROUP
LOAD d:/modelsim_ase/quartus/quartus cyclone ii/nios2eds/bin/gnu/h-i686-mingw32/bin/../lib/gcc/nios2-elf/4.1.2/../../../../nios2-elf/lib\libc.a
LOAD d:/modelsim_ase/quartus/quartus cyclone ii/nios2eds/bin/gnu/h-i686-mingw32/bin/../lib/gcc/nios2-elf/4.1.2\libgcc.a
LOAD ../FPGA_Lab4_Software_bsp/\libhal_bsp.a
END GROUP
LOAD d:/modelsim_ase/quartus/quartus cyclone ii/nios2eds/bin/gnu/h-i686-mingw32/bin/../lib/gcc/nios2-elf/4.1.2\libgcc.a
                0x00000000                __alt_mem_SDRAM = 0x0
                0x0c000000                __alt_mem_Flash_flash_data = 0xc000000

.entry          0x00000000       0x20
 *(.entry)
 .entry         0x00000000       0x20 ../FPGA_Lab4_Software_bsp//obj/HAL/src/crt0.o
                0x00000000                __reset

.exceptions     0x00000020      0x194
                0x00000020                PROVIDE (__ram_exceptions_start, ABSOLUTE (.))
                0x00000020                . = ALIGN (0x20)
 *(.irq)
 *(.exceptions.entry.label)
 .exceptions.entry.label
                0x00000020        0x0 ../FPGA_Lab4_Software_bsp/\libhal_bsp.a(alt_irq_entry.o)
                0x00000020                alt_irq_entry
 .exceptions.entry.label
                0x00000020        0x0 ../FPGA_Lab4_Software_bsp/\libhal_bsp.a(alt_exception_entry.o)
                0x00000020                alt_exception
 *(.exceptions.entry.user)
 *(.exceptions.entry)
 .exceptions.entry
                0x00000020       0x54 ../FPGA_Lab4_Software_bsp/\libhal_bsp.a(alt_exception_entry.o)
 *(.exceptions.irqtest.user)
 *(.exceptions.irqtest)
 .exceptions.irqtest
                0x00000074       0x10 ../FPGA_Lab4_Software_bsp/\libhal_bsp.a(alt_irq_entry.o)
 *(.exceptions.irqhandler.user)
 *(.exceptions.irqhandler)
 .exceptions.irqhandler
                0x00000084        0x4 ../FPGA_Lab4_Software_bsp/\libhal_bsp.a(alt_irq_entry.o)
 *(.exceptions.irqreturn.user)
 *(.exceptions.irqreturn)
 .exceptions.irqreturn
                0x00000088        0x4 ../FPGA_Lab4_Software_bsp/\libhal_bsp.a(alt_irq_entry.o)
 *(.exceptions.notirq.label)
 .exceptions.notirq.label
                0x0000008c        0x0 ../FPGA_Lab4_Software_bsp/\libhal_bsp.a(alt_irq_entry.o)
 *(.exceptions.notirq.user)
 *(.exceptions.notirq)
 .exceptions.notirq
                0x0000008c        0x8 ../FPGA_Lab4_Software_bsp/\libhal_bsp.a(alt_exception_entry.o)
 *(.exceptions.soft.user)
 *(.exceptions.soft)
 *(.exceptions.unknown.user)
 *(.exceptions.unknown)
 .exceptions.unknown
                0x00000094        0x4 ../FPGA_Lab4_Software_bsp/\libhal_bsp.a(alt_exception_entry.o)
 *(.exceptions.exit.label)
 .exceptions.exit.label
                0x00000098        0x0 ../FPGA_Lab4_Software_bsp/\libhal_bsp.a(alt_irq_entry.o)
 .exceptions.exit.label
                0x00000098        0x0 ../FPGA_Lab4_Software_bsp/\libhal_bsp.a(alt_exception_entry.o)
 *(.exceptions.exit.user)
 *(.exceptions.exit)
 .exceptions.exit
                0x00000098       0x54 ../FPGA_Lab4_Software_bsp/\libhal_bsp.a(alt_exception_entry.o)
 *(.exceptions)
 .exceptions    0x000000ec       0xc8 ../FPGA_Lab4_Software_bsp/\libhal_bsp.a(alt_irq_handler.o)
                0x000000ec                alt_irq_handler
                0x000001b4                PROVIDE (__ram_exceptions_end, ABSOLUTE (.))
                0x00000020                PROVIDE (__flash_exceptions_start, LOADADDR (.exceptions))

.text           0x000001b4    0x121d4
                0x000001b4                PROVIDE (stext, ABSOLUTE (.))
 *(.interp)
 *(.hash)
 *(.dynsym)
 *(.dynstr)
 *(.gnu.version)
 *(.gnu.version_d)
 *(.gnu.version_r)
 *(.rel.init)
 *(.rela.init)
 *(.rel.text .rel.text.* .rel.gnu.linkonce.t.*)
 *(.rela.text .rela.text.* .rela.gnu.linkonce.t.*)
 *(.rel.fini)
 *(.rela.fini)
 *(.rel.rodata .rel.rodata.* .rel.gnu.linkonce.r.*)
 *(.rela.rodata .rela.rodata.* .rela.gnu.linkonce.r.*)
 *(.rel.data .rel.data.* .rel.gnu.linkonce.d.*)
 *(.rela.data .rela.data.* .rela.gnu.linkonce.d.*)
 *(.rel.tdata .rel.tdata.* .rel.gnu.linkonce.td.*)
 *(.rela.tdata .rela.tdata.* .rela.gnu.linkonce.td.*)
 *(.rel.tbss .rel.tbss.* .rel.gnu.linkonce.tb.*)
 *(.rela.tbss .rela.tbss.* .rela.gnu.linkonce.tb.*)
 *(.rel.ctors)
 *(.rela.ctors)
 *(.rel.dtors)
 *(.rela.dtors)
 *(.rel.got)
 *(.rela.got)
 *(.rel.sdata .rel.sdata.* .rel.gnu.linkonce.s.*)
 *(.rela.sdata .rela.sdata.* .rela.gnu.linkonce.s.*)
 *(.rel.sbss .rel.sbss.* .rel.gnu.linkonce.sb.*)
 *(.rela.sbss .rela.sbss.* .rela.gnu.linkonce.sb.*)
 *(.rel.sdata2 .rel.sdata2.* .rel.gnu.linkonce.s2.*)
 *(.rela.sdata2 .rela.sdata2.* .rela.gnu.linkonce.s2.*)
 *(.rel.sbss2 .rel.sbss2.* .rel.gnu.linkonce.sb2.*)
 *(.rela.sbss2 .rela.sbss2.* .rela.gnu.linkonce.sb2.*)
 *(.rel.bss .rel.bss.* .rel.gnu.linkonce.b.*)
 *(.rela.bss .rela.bss.* .rela.gnu.linkonce.b.*)
 *(.rel.plt)
 *(.rela.plt)
 *(.rel.dyn)
 *(.init)
 *(.plt)
 *(.text .stub .text.* .gnu.linkonce.t.*)
 .text          0x000001b4       0x3c ../FPGA_Lab4_Software_bsp//obj/HAL/src/crt0.o
                0x000001b4                _start
 .text          0x000001f0      0x150 obj/default/PS2_ISR.o
                0x000001f0                PS2_ISR
 .text          0x00000340      0x4dc obj/default/audio_ISR.o
                0x00000340                audio_ISR
 .text          0x0000081c        0x0 obj/default/globals.o
 .text          0x0000081c       0x60 obj/default/interval_timer_ISR.o
                0x0000081c                interval_timer_ISR
 .text          0x0000087c     0x1fc8 obj/default/media_interrupt_HAL.o
                0x0000087c                main
                0x000013a4                HEX_PS2
                0x000014c8                PS2_Init
                0x00001580                show_mouse_buttons_states_on_Red_LEDs
                0x00001678                check_for_click
                0x00001704                check_KEYs
                0x0000189c                print_mouse_on_given_position
                0x00001940                erase_previous_mouse_position
                0x00001c84                setMouseBounds
                0x00001cb8                getMouseState
                0x00001e94                print_screen
                0x000020ac                denoise_the_noisy_sound
                0x00002204                echo_maker
                0x00002474                plot_audio
 .text          0x00002844       0xb8 obj/default/pushbutton_ISR.o
                0x00002844                pushbutton_ISR
 .text          0x000028fc      0x5dc d:/modelsim_ase/quartus/quartus cyclone ii/nios2eds/bin/gnu/h-i686-mingw32/bin/../lib/gcc/nios2-elf/4.1.2\libgcc.a(_udivdi3.o)
                0x000028fc                __udivdi3
 .text          0x00002ed8       0x98 d:/modelsim_ase/quartus/quartus cyclone ii/nios2eds/bin/gnu/h-i686-mingw32/bin/../lib/gcc/nios2-elf/4.1.2\libgcc.a(_si_to_sf.o)
                0x00002ed8                __floatsisf
 .text          0x00002f70       0x94 d:/modelsim_ase/quartus/quartus cyclone ii/nios2eds/bin/gnu/h-i686-mingw32/bin/../lib/gcc/nios2-elf/4.1.2\libgcc.a(_sf_to_si.o)
                0x00002f70                __fixsfsi
 .text          0x00003004       0x54 d:/modelsim_ase/quartus/quartus cyclone ii/nios2eds/bin/gnu/h-i686-mingw32/bin/../lib/gcc/nios2-elf/4.1.2\libgcc.a(_sf_to_df.o)
                0x00003004                __extendsfdf2
 .text          0x00003058       0xc0 d:/modelsim_ase/quartus/quartus cyclone ii/nios2eds/bin/gnu/h-i686-mingw32/bin/../lib/gcc/nios2-elf/4.1.2\libgcc.a(_usi_to_sf.o)
                0x00003058                __floatunsisf
 .text          0x00003118       0x38 d:/modelsim_ase/quartus/quartus cyclone ii/nios2eds/bin/gnu/h-i686-mingw32/bin/../lib/gcc/nios2-elf/4.1.2\libgcc.a(_make_df.o)
                0x00003118                __make_dp
 .text          0x00003150      0x14c d:/modelsim_ase/quartus/quartus cyclone ii/nios2eds/bin/gnu/h-i686-mingw32/bin/../lib/gcc/nios2-elf/4.1.2\libgcc.a(lib2-divmod.o)
                0x000031cc                __divsi3
                0x0000322c                __modsi3
                0x0000328c                __udivsi3
                0x00003294                __umodsi3
 .text          0x0000329c        0x0 d:/modelsim_ase/quartus/quartus cyclone ii/nios2eds/bin/gnu/h-i686-mingw32/bin/../lib/gcc/nios2-elf/4.1.2\libgcc.a(_clz.o)
 .text          0x0000329c       0x80 d:/modelsim_ase/quartus/quartus cyclone ii/nios2eds/bin/gnu/h-i686-mingw32/bin/../lib/gcc/nios2-elf/4.1.2\libgcc.a(_clzsi2.o)
                0x0000329c                __clzsi2
 .text          0x0000331c      0x160 d:/modelsim_ase/quartus/quartus cyclone ii/nios2eds/bin/gnu/h-i686-mingw32/bin/../lib/gcc/nios2-elf/4.1.2\libgcc.a(_pack_sf.o)
                0x0000331c                __pack_f
 .text          0x0000347c       0xc8 d:/modelsim_ase/quartus/quartus cyclone ii/nios2eds/bin/gnu/h-i686-mingw32/bin/../lib/gcc/nios2-elf/4.1.2\libgcc.a(_unpack_sf.o)
                0x0000347c                __unpack_f
 .text          0x00003544      0x314 d:/modelsim_ase/quartus/quartus cyclone ii/nios2eds/bin/gnu/h-i686-mingw32/bin/../lib/gcc/nios2-elf/4.1.2\libgcc.a(_pack_df.o)
                0x00003544                __pack_d
 .text          0x00003858       0xa0 d:/modelsim_ase/quartus/quartus cyclone ii/nios2eds/bin/gnu/h-i686-mingw32/bin/../lib/gcc/nios2-elf/4.1.2/../../../../nios2-elf/lib\libc.a(lib_a-memcpy.o)
                0x00003858                memcpy
 .text          0x000038f8       0x98 d:/modelsim_ase/quartus/quartus cyclone ii/nios2eds/bin/gnu/h-i686-mingw32/bin/../lib/gcc/nios2-elf/4.1.2/../../../../nios2-elf/lib\libc.a(lib_a-memset.o)
                0x000038f8                memset
 .text          0x00003990       0x78 d:/modelsim_ase/quartus/quartus cyclone ii/nios2eds/bin/gnu/h-i686-mingw32/bin/../lib/gcc/nios2-elf/4.1.2/../../../../nios2-elf/lib\libc.a(lib_a-printf.o)
                0x00003990                printf
                0x000039d4                _printf_r
 .text          0x00003a08     0x1f28 d:/modelsim_ase/quartus/quartus cyclone ii/nios2eds/bin/gnu/h-i686-mingw32/bin/../lib/gcc/nios2-elf/4.1.2/../../../../nios2-elf/lib\libc.a(lib_a-vfprintf.o)
                0x00003a60                ___vfprintf_internal_r
                0x0000590c                __vfprintf_internal
 .text          0x00005930      0x13c d:/modelsim_ase/quartus/quartus cyclone ii/nios2eds/bin/gnu/h-i686-mingw32/bin/../lib/gcc/nios2-elf/4.1.2/../../../../nios2-elf/lib\libc.a(lib_a-wsetup.o)
                0x00005930                __swsetup_r
 .text          0x00005a6c     0x17cc d:/modelsim_ase/quartus/quartus cyclone ii/nios2eds/bin/gnu/h-i686-mingw32/bin/../lib/gcc/nios2-elf/4.1.2/../../../../nios2-elf/lib\libc.a(lib_a-dtoa.o)
                0x00005c84                _dtoa_r
 .text          0x00007238      0x230 d:/modelsim_ase/quartus/quartus cyclone ii/nios2eds/bin/gnu/h-i686-mingw32/bin/../lib/gcc/nios2-elf/4.1.2/../../../../nios2-elf/lib\libc.a(lib_a-fflush.o)
                0x00007238                _fflush_r
                0x00007434                fflush
 .text          0x00007468      0x2c0 d:/modelsim_ase/quartus/quartus cyclone ii/nios2eds/bin/gnu/h-i686-mingw32/bin/../lib/gcc/nios2-elf/4.1.2/../../../../nios2-elf/lib\libc.a(lib_a-findfp.o)
                0x000074c0                __sfp_lock_acquire
                0x000074c4                __sfp_lock_release
                0x000074c8                __sinit_lock_acquire
                0x000074cc                __sinit_lock_release
                0x000074d0                __sinit
                0x00007584                __fp_unlock_all
                0x0000759c                __fp_lock_all
                0x000075b4                _cleanup_r
                0x000075c0                _cleanup
                0x000075d0                __sfmoreglue
                0x00007638                __sfp
 .text          0x00007728      0x440 d:/modelsim_ase/quartus/quartus cyclone ii/nios2eds/bin/gnu/h-i686-mingw32/bin/../lib/gcc/nios2-elf/4.1.2/../../../../nios2-elf/lib\libc.a(lib_a-freer.o)
                0x00007728                _malloc_trim_r
                0x00007854                _free_r
 .text          0x00007b68      0x49c d:/modelsim_ase/quartus/quartus cyclone ii/nios2eds/bin/gnu/h-i686-mingw32/bin/../lib/gcc/nios2-elf/4.1.2/../../../../nios2-elf/lib\libc.a(lib_a-fvwrite.o)
                0x00007b68                __sfvwrite_r
 .text          0x00008004      0x180 d:/modelsim_ase/quartus/quartus cyclone ii/nios2eds/bin/gnu/h-i686-mingw32/bin/../lib/gcc/nios2-elf/4.1.2/../../../../nios2-elf/lib\libc.a(lib_a-fwalk.o)
                0x00008004                _fwalk_reent
                0x000080cc                _fwalk
 .text          0x00008184        0x0 d:/modelsim_ase/quartus/quartus cyclone ii/nios2eds/bin/gnu/h-i686-mingw32/bin/../lib/gcc/nios2-elf/4.1.2/../../../../nios2-elf/lib\libc.a(lib_a-impure.o)
 .text          0x00008184       0xc4 d:/modelsim_ase/quartus/quartus cyclone ii/nios2eds/bin/gnu/h-i686-mingw32/bin/../lib/gcc/nios2-elf/4.1.2/../../../../nios2-elf/lib\libc.a(lib_a-locale.o)
                0x00008184                __locale_charset
                0x0000818c                _localeconv_r
                0x00008198                localeconv
                0x000081a8                _setlocale_r
                0x0000822c                setlocale
 .text          0x00008248      0x194 d:/modelsim_ase/quartus/quartus cyclone ii/nios2eds/bin/gnu/h-i686-mingw32/bin/../lib/gcc/nios2-elf/4.1.2/../../../../nios2-elf/lib\libc.a(lib_a-makebuf.o)
                0x00008248                __smakebuf_r
 .text          0x000083dc      0x740 d:/modelsim_ase/quartus/quartus cyclone ii/nios2eds/bin/gnu/h-i686-mingw32/bin/../lib/gcc/nios2-elf/4.1.2/../../../../nios2-elf/lib\libc.a(lib_a-mallocr.o)
                0x000083dc                _malloc_r
 .text          0x00008b1c       0xe4 d:/modelsim_ase/quartus/quartus cyclone ii/nios2eds/bin/gnu/h-i686-mingw32/bin/../lib/gcc/nios2-elf/4.1.2/../../../../nios2-elf/lib\libc.a(lib_a-memchr.o)
                0x00008b1c                memchr
 .text          0x00008c00       0xe0 d:/modelsim_ase/quartus/quartus cyclone ii/nios2eds/bin/gnu/h-i686-mingw32/bin/../lib/gcc/nios2-elf/4.1.2/../../../../nios2-elf/lib\libc.a(lib_a-memmove.o)
                0x00008c00                memmove
 .text          0x00008ce0      0xff4 d:/modelsim_ase/quartus/quartus cyclone ii/nios2eds/bin/gnu/h-i686-mingw32/bin/../lib/gcc/nios2-elf/4.1.2/../../../../nios2-elf/lib\libc.a(lib_a-mprec.o)
                0x00008ce0                _Bfree
                0x00008d08                __hi0bits
                0x00008d78                __lo0bits
                0x00008e3c                __mcmp
                0x00008e9c                __ulp
                0x00008f1c                __b2d
                0x0000903c                __ratio
                0x000090ec                _mprec_log10
                0x00009180                __copybits
                0x000091d8                __any_on
                0x00009260                _Balloc
                0x0000931c                __d2b
                0x00009498                __mdiff
                0x00009624                __lshift
                0x00009770                __multiply
                0x00009958                __i2b
                0x00009994                __multadd
                0x00009a94                __pow5mult
                0x00009bb4                __s2b
 .text          0x00009cd4      0x5f4 d:/modelsim_ase/quartus/quartus cyclone ii/nios2eds/bin/gnu/h-i686-mingw32/bin/../lib/gcc/nios2-elf/4.1.2/../../../../nios2-elf/lib\libc.a(lib_a-reallocr.o)
                0x00009cd4                _realloc_r
 .text          0x0000a2c8       0x40 d:/modelsim_ase/quartus/quartus cyclone ii/nios2eds/bin/gnu/h-i686-mingw32/bin/../lib/gcc/nios2-elf/4.1.2/../../../../nios2-elf/lib\libc.a(lib_a-s_isinfd.o)
                0x0000a2c8                __isinfd
 .text          0x0000a308       0x30 d:/modelsim_ase/quartus/quartus cyclone ii/nios2eds/bin/gnu/h-i686-mingw32/bin/../lib/gcc/nios2-elf/4.1.2/../../../../nios2-elf/lib\libc.a(lib_a-s_isnand.o)
                0x0000a308                __isnand
 .text          0x0000a338       0x70 d:/modelsim_ase/quartus/quartus cyclone ii/nios2eds/bin/gnu/h-i686-mingw32/bin/../lib/gcc/nios2-elf/4.1.2/../../../../nios2-elf/lib\libc.a(lib_a-sbrkr.o)
                0x0000a338                _sbrk_r
 .text          0x0000a3a8      0x14c d:/modelsim_ase/quartus/quartus cyclone ii/nios2eds/bin/gnu/h-i686-mingw32/bin/../lib/gcc/nios2-elf/4.1.2/../../../../nios2-elf/lib\libc.a(lib_a-stdio.o)
                0x0000a3a8                __sclose
                0x0000a3b0                __sseek
                0x0000a418                __swrite
                0x0000a494                __sread
 .text          0x0000a4f4       0xbc d:/modelsim_ase/quartus/quartus cyclone ii/nios2eds/bin/gnu/h-i686-mingw32/bin/../lib/gcc/nios2-elf/4.1.2/../../../../nios2-elf/lib\libc.a(lib_a-strcmp.o)
                0x0000a4f4                strcmp
 .text          0x0000a5b0       0x74 d:/modelsim_ase/quartus/quartus cyclone ii/nios2eds/bin/gnu/h-i686-mingw32/bin/../lib/gcc/nios2-elf/4.1.2/../../../../nios2-elf/lib\libc.a(lib_a-strlen.o)
                0x0000a5b0                strlen
 .text          0x0000a624       0x78 d:/modelsim_ase/quartus/quartus cyclone ii/nios2eds/bin/gnu/h-i686-mingw32/bin/../lib/gcc/nios2-elf/4.1.2/../../../../nios2-elf/lib\libc.a(lib_a-writer.o)
                0x0000a624                _write_r
 .text          0x0000a69c       0xb4 d:/modelsim_ase/quartus/quartus cyclone ii/nios2eds/bin/gnu/h-i686-mingw32/bin/../lib/gcc/nios2-elf/4.1.2/../../../../nios2-elf/lib\libc.a(lib_a-callocr.o)
                0x0000a69c                _calloc_r
 .text          0x0000a750       0x70 d:/modelsim_ase/quartus/quartus cyclone ii/nios2eds/bin/gnu/h-i686-mingw32/bin/../lib/gcc/nios2-elf/4.1.2/../../../../nios2-elf/lib\libc.a(lib_a-closer.o)
                0x0000a750                _close_r
 .text          0x0000a7c0      0x124 d:/modelsim_ase/quartus/quartus cyclone ii/nios2eds/bin/gnu/h-i686-mingw32/bin/../lib/gcc/nios2-elf/4.1.2/../../../../nios2-elf/lib\libc.a(lib_a-fclose.o)
                0x0000a7c0                _fclose_r
                0x0000a8d0                fclose
 .text          0x0000a8e4       0x74 d:/modelsim_ase/quartus/quartus cyclone ii/nios2eds/bin/gnu/h-i686-mingw32/bin/../lib/gcc/nios2-elf/4.1.2/../../../../nios2-elf/lib\libc.a(lib_a-fstatr.o)
                0x0000a8e4                _fstat_r
 .text          0x0000a958        0x0 d:/modelsim_ase/quartus/quartus cyclone ii/nios2eds/bin/gnu/h-i686-mingw32/bin/../lib/gcc/nios2-elf/4.1.2/../../../../nios2-elf/lib\libc.a(lib_a-int_errno.o)
 .text          0x0000a958       0x70 d:/modelsim_ase/quartus/quartus cyclone ii/nios2eds/bin/gnu/h-i686-mingw32/bin/../lib/gcc/nios2-elf/4.1.2/../../../../nios2-elf/lib\libc.a(lib_a-isattyr.o)
                0x0000a958                _isatty_r
 .text          0x0000a9c8       0x78 d:/modelsim_ase/quartus/quartus cyclone ii/nios2eds/bin/gnu/h-i686-mingw32/bin/../lib/gcc/nios2-elf/4.1.2/../../../../nios2-elf/lib\libc.a(lib_a-lseekr.o)
                0x0000a9c8                _lseek_r
 .text          0x0000aa40       0x78 d:/modelsim_ase/quartus/quartus cyclone ii/nios2eds/bin/gnu/h-i686-mingw32/bin/../lib/gcc/nios2-elf/4.1.2/../../../../nios2-elf/lib\libc.a(lib_a-readr.o)
                0x0000aa40                _read_r
 .text          0x0000aab8      0x5b0 d:/modelsim_ase/quartus/quartus cyclone ii/nios2eds/bin/gnu/h-i686-mingw32/bin/../lib/gcc/nios2-elf/4.1.2\libgcc.a(_umoddi3.o)
                0x0000aab8                __umoddi3
 .text          0x0000b068      0x504 d:/modelsim_ase/quartus/quartus cyclone ii/nios2eds/bin/gnu/h-i686-mingw32/bin/../lib/gcc/nios2-elf/4.1.2\libgcc.a(_addsub_df.o)
                0x0000b478                __subdf3
                0x0000b4f8                __adddf3
 .text          0x0000b56c      0x3c4 d:/modelsim_ase/quartus/quartus cyclone ii/nios2eds/bin/gnu/h-i686-mingw32/bin/../lib/gcc/nios2-elf/4.1.2\libgcc.a(_mul_df.o)
                0x0000b56c                __muldf3
 .text          0x0000b930      0x258 d:/modelsim_ase/quartus/quartus cyclone ii/nios2eds/bin/gnu/h-i686-mingw32/bin/../lib/gcc/nios2-elf/4.1.2\libgcc.a(_div_df.o)
                0x0000b930                __divdf3
 .text          0x0000bb88       0x88 d:/modelsim_ase/quartus/quartus cyclone ii/nios2eds/bin/gnu/h-i686-mingw32/bin/../lib/gcc/nios2-elf/4.1.2\libgcc.a(_eq_df.o)
                0x0000bb88                __eqdf2
 .text          0x0000bc10       0x88 d:/modelsim_ase/quartus/quartus cyclone ii/nios2eds/bin/gnu/h-i686-mingw32/bin/../lib/gcc/nios2-elf/4.1.2\libgcc.a(_ne_df.o)
                0x0000bc10                __nedf2
 .text          0x0000bc98       0x88 d:/modelsim_ase/quartus/quartus cyclone ii/nios2eds/bin/gnu/h-i686-mingw32/bin/../lib/gcc/nios2-elf/4.1.2\libgcc.a(_gt_df.o)
                0x0000bc98                __gtdf2
 .text          0x0000bd20       0x88 d:/modelsim_ase/quartus/quartus cyclone ii/nios2eds/bin/gnu/h-i686-mingw32/bin/../lib/gcc/nios2-elf/4.1.2\libgcc.a(_ge_df.o)
                0x0000bd20                __gedf2
 .text          0x0000bda8       0x88 d:/modelsim_ase/quartus/quartus cyclone ii/nios2eds/bin/gnu/h-i686-mingw32/bin/../lib/gcc/nios2-elf/4.1.2\libgcc.a(_lt_df.o)
                0x0000bda8                __ltdf2
 .text          0x0000be30       0xf8 d:/modelsim_ase/quartus/quartus cyclone ii/nios2eds/bin/gnu/h-i686-mingw32/bin/../lib/gcc/nios2-elf/4.1.2\libgcc.a(_si_to_df.o)
                0x0000be30                __floatsidf
 .text          0x0000bf28       0xd8 d:/modelsim_ase/quartus/quartus cyclone ii/nios2eds/bin/gnu/h-i686-mingw32/bin/../lib/gcc/nios2-elf/4.1.2\libgcc.a(_df_to_si.o)
                0x0000bf28                __fixdfsi
 .text          0x0000c000        0x0 d:/modelsim_ase/quartus/quartus cyclone ii/nios2eds/bin/gnu/h-i686-mingw32/bin/../lib/gcc/nios2-elf/4.1.2\libgcc.a(_thenan_df.o)
 .text          0x0000c000      0x194 d:/modelsim_ase/quartus/quartus cyclone ii/nios2eds/bin/gnu/h-i686-mingw32/bin/../lib/gcc/nios2-elf/4.1.2\libgcc.a(_usi_to_df.o)
                0x0000c000                __floatunsidf
 .text          0x0000c194       0x98 d:/modelsim_ase/quartus/quartus cyclone ii/nios2eds/bin/gnu/h-i686-mingw32/bin/../lib/gcc/nios2-elf/4.1.2\libgcc.a(_muldi3.o)
                0x0000c194                __muldi3
 .text          0x0000c22c      0x138 d:/modelsim_ase/quartus/quartus cyclone ii/nios2eds/bin/gnu/h-i686-mingw32/bin/../lib/gcc/nios2-elf/4.1.2\libgcc.a(_unpack_df.o)
                0x0000c22c                __unpack_d
 .text          0x0000c364       0xc8 d:/modelsim_ase/quartus/quartus cyclone ii/nios2eds/bin/gnu/h-i686-mingw32/bin/../lib/gcc/nios2-elf/4.1.2\libgcc.a(_fpcmp_parts_df.o)
                0x0000c364                __fpcmp_parts_d
 .text          0x0000c42c      0x15c ../FPGA_Lab4_Software_bsp/\libhal_bsp.a(alt_close.o)
                0x0000c42c                close
 .text          0x0000c588       0x2c ../FPGA_Lab4_Software_bsp/\libhal_bsp.a(alt_dev.o)
 .text          0x0000c5b4        0x0 ../FPGA_Lab4_Software_bsp/\libhal_bsp.a(alt_errno.o)
 .text          0x0000c5b4      0x134 ../FPGA_Lab4_Software_bsp/\libhal_bsp.a(alt_fstat.o)
                0x0000c5b4                fstat
 .text          0x0000c6e8      0x1c0 ../FPGA_Lab4_Software_bsp/\libhal_bsp.a(alt_irq_register.o)
                0x0000c6e8                alt_irq_register
 .text          0x0000c8a8        0x0 ../FPGA_Lab4_Software_bsp/\libhal_bsp.a(alt_irq_vars.o)
 .text          0x0000c8a8      0x120 ../FPGA_Lab4_Software_bsp/\libhal_bsp.a(alt_isatty.o)
                0x0000c8a8                isatty
 .text          0x0000c9c8       0xec ../FPGA_Lab4_Software_bsp/\libhal_bsp.a(alt_load.o)
                0x0000c9c8                alt_load
 .text          0x0000cab4      0x150 ../FPGA_Lab4_Software_bsp/\libhal_bsp.a(alt_lseek.o)
                0x0000cab4                lseek
 .text          0x0000cc04       0x6c ../FPGA_Lab4_Software_bsp/\libhal_bsp.a(alt_main.o)
                0x0000cc04                alt_main
 .text          0x0000cc70       0x40 ../FPGA_Lab4_Software_bsp/\libhal_bsp.a(alt_malloc_lock.o)
                0x0000cc70                __malloc_lock
                0x0000cc90                __malloc_unlock
 .text          0x0000ccb0      0x258 ../FPGA_Lab4_Software_bsp/\libhal_bsp.a(alt_printf.o)
                0x0000ccb0                alt_printf
 .text          0x0000cf08       0x40 ../FPGA_Lab4_Software_bsp/\libhal_bsp.a(alt_putchar.o)
                0x0000cf08                alt_putchar
 .text          0x0000cf48      0x180 ../FPGA_Lab4_Software_bsp/\libhal_bsp.a(alt_read.o)
                0x0000cf48                read
 .text          0x0000d0c8       0x60 ../FPGA_Lab4_Software_bsp/\libhal_bsp.a(alt_release_fd.o)
                0x0000d0c8                alt_release_fd
 .text          0x0000d128       0xbc ../FPGA_Lab4_Software_bsp/\libhal_bsp.a(alt_sbrk.o)
                0x0000d128                sbrk
 .text          0x0000d1e4      0x180 ../FPGA_Lab4_Software_bsp/\libhal_bsp.a(alt_write.o)
                0x0000d1e4                write
 .text          0x0000d364       0xd8 ../FPGA_Lab4_Software_bsp/\libhal_bsp.a(alt_sys_init.o)
                0x0000d364                alt_irq_init
                0x0000d398                alt_sys_init
 .text          0x0000d43c      0x148 ../FPGA_Lab4_Software_bsp/\libhal_bsp.a(altera_avalon_jtag_uart_fd.o)
                0x0000d43c                altera_avalon_jtag_uart_read_fd
                0x0000d494                altera_avalon_jtag_uart_write_fd
                0x0000d4ec                altera_avalon_jtag_uart_close_fd
                0x0000d534                altera_avalon_jtag_uart_ioctl_fd
 .text          0x0000d584      0x40c ../FPGA_Lab4_Software_bsp/\libhal_bsp.a(altera_avalon_jtag_uart_init.o)
                0x0000d584                altera_avalon_jtag_uart_init
                0x0000d91c                altera_avalon_jtag_uart_close
 .text          0x0000d990       0xf4 ../FPGA_Lab4_Software_bsp/\libhal_bsp.a(altera_avalon_jtag_uart_ioctl.o)
                0x0000d990                altera_avalon_jtag_uart_ioctl
 .text          0x0000da84      0x224 ../FPGA_Lab4_Software_bsp/\libhal_bsp.a(altera_avalon_jtag_uart_read.o)
                0x0000da84                altera_avalon_jtag_uart_read
 .text          0x0000dca8      0x240 ../FPGA_Lab4_Software_bsp/\libhal_bsp.a(altera_avalon_jtag_uart_write.o)
                0x0000dca8                altera_avalon_jtag_uart_write
 .text          0x0000dee8      0x168 ../FPGA_Lab4_Software_bsp/\libhal_bsp.a(altera_avalon_timer_ts.o)
                0x0000dee8                alt_timestamp_start
                0x0000df8c                alt_timestamp
                0x0000e028                alt_timestamp_freq
 .text          0x0000e050        0x0 ../FPGA_Lab4_Software_bsp/\libhal_bsp.a(altera_avalon_timer_vars.o)
 .text          0x0000e050      0x80c ../FPGA_Lab4_Software_bsp/\libhal_bsp.a(altera_up_avalon_audio.o)
                0x0000e050                alt_up_audio_open_dev
                0x0000e090                alt_up_audio_enable_read_interrupt
                0x0000e0dc                alt_up_audio_disable_read_interrupt
                0x0000e12c                alt_up_audio_enable_write_interrupt
                0x0000e178                alt_up_audio_disable_write_interrupt
                0x0000e1c8                alt_up_audio_read_interrupt_pending
                0x0000e204                alt_up_audio_write_interrupt_pending
                0x0000e240                alt_up_audio_reset_audio_core
                0x0000e2c8                alt_up_audio_read_fifo_avail
                0x0000e338                alt_up_audio_record_r
                0x0000e3a8                alt_up_audio_record_l
                0x0000e418                alt_up_audio_write_fifo_space
                0x0000e48c                alt_up_audio_play_r
                0x0000e4fc                alt_up_audio_play_l
                0x0000e56c                alt_up_audio_read_fifo
                0x0000e670                alt_up_audio_write_fifo
                0x0000e79c                alt_up_audio_read_fifo_head
                0x0000e7fc                alt_up_audio_write_fifo_head
 .text          0x0000e85c      0x530 ../FPGA_Lab4_Software_bsp/\libhal_bsp.a(altera_up_avalon_character_lcd.o)
                0x0000e85c                get_DDRAM_addr
                0x0000e8d8                alt_up_character_lcd_send_cmd
                0x0000e90c                alt_up_character_lcd_init
                0x0000e940                alt_up_character_lcd_open_dev
                0x0000e980                alt_up_character_lcd_write
                0x0000e9f8                alt_up_character_lcd_string
                0x0000ea70                alt_up_character_lcd_write_fd
                0x0000eabc                alt_up_character_lcd_set_cursor_pos
                0x0000eb34                alt_up_character_lcd_shift_cursor
                0x0000ebe4                alt_up_character_lcd_shift_display
                0x0000ec94                alt_up_character_lcd_erase_pos
                0x0000ed24                alt_up_character_lcd_cursor_off
                0x0000ed58                alt_up_character_lcd_cursor_blink_on
 .text          0x0000ed8c       0x40 ../FPGA_Lab4_Software_bsp/\libhal_bsp.a(altera_up_avalon_parallel_port.o)
                0x0000ed8c                alt_up_parallel_port_open_dev
 .text          0x0000edcc      0x700 ../FPGA_Lab4_Software_bsp/\libhal_bsp.a(altera_up_avalon_ps2.o)
                0x0000edcc                read_RI_bit
                0x0000ee00                read_RE_bit
                0x0000ee30                read_CE_bit
                0x0000ee64                read_num_bytes_available
                0x0000ee98                read_data_valid
                0x0000eecc                read_data_byte
                0x0000eef8                alt_up_ps2_init
                0x0000efc4                alt_up_ps2_enable_read_interrupt
                0x0000f018                alt_up_ps2_disable_read_interrupt
                0x0000f070                alt_up_ps2_write_data_byte
                0x0000f0e8                alt_up_ps2_wait_for_ack
                0x0000f158                alt_up_ps2_write_data_byte_with_ack
                0x0000f1c4                alt_up_ps2_read_data_byte_timeout
                0x0000f274                alt_up_ps2_read_data_byte
                0x0000f2f0                alt_up_ps2_clear_fifo
                0x0000f348                alt_up_ps2_read_fd
                0x0000f3e4                alt_up_ps2_write_fd
                0x0000f48c                alt_up_ps2_open_dev
 .text          0x0000f4cc      0x304 ../FPGA_Lab4_Software_bsp/\libhal_bsp.a(altera_up_avalon_video_character_buffer_with_dma.o)
                0x0000f4cc                alt_up_char_buffer_init
                0x0000f550                alt_up_char_buffer_open_dev
                0x0000f590                alt_up_char_buffer_draw
                0x0000f660                alt_up_char_buffer_string
                0x0000f774                alt_up_char_buffer_clear
 .text          0x0000f7d0     0x156c ../FPGA_Lab4_Software_bsp/\libhal_bsp.a(altera_up_avalon_video_pixel_buffer_dma.o)
                0x0000f7d0                alt_up_pixel_buffer_dma_open_dev
                0x0000f810                alt_up_pixel_buffer_dma_draw
                0x0000f9b0                alt_up_pixel_buffer_dma_change_back_buffer_address
                0x0000fa08                alt_up_pixel_buffer_dma_swap_buffers
                0x0000fa60                alt_up_pixel_buffer_dma_check_swap_buffers_status
                0x0000fa94                alt_up_pixel_buffer_dma_clear_screen
                0x0000fbf8                alt_up_pixel_buffer_dma_draw_box
                0x000100ec                alt_up_pixel_buffer_dma_draw_hline
                0x0001043c                alt_up_pixel_buffer_dma_draw_vline
                0x0001080c                alt_up_pixel_buffer_dma_draw_rectangle
                0x000108d0                helper_plot_pixel
                0x000109a0                alt_up_pixel_buffer_dma_draw_line
 .text          0x00010d3c      0x154 ../FPGA_Lab4_Software_bsp/\libhal_bsp.a(alt_alarm_start.o)
                0x00010d3c                alt_alarm_start
 .text          0x00010e90       0x1c ../FPGA_Lab4_Software_bsp/\libhal_bsp.a(alt_dcache_flush_all.o)
                0x00010e90                alt_dcache_flush_all
 .text          0x00010eac      0x114 ../FPGA_Lab4_Software_bsp/\libhal_bsp.a(alt_dev_llist_insert.o)
                0x00010eac                alt_dev_llist_insert
 .text          0x00010fc0       0x64 ../FPGA_Lab4_Software_bsp/\libhal_bsp.a(alt_do_ctors.o)
                0x00010fc0                _do_ctors
 .text          0x00011024       0x64 ../FPGA_Lab4_Software_bsp/\libhal_bsp.a(alt_do_dtors.o)
                0x00011024                _do_dtors
 .text          0x00011088       0x94 ../FPGA_Lab4_Software_bsp/\libhal_bsp.a(alt_find_dev.o)
                0x00011088                alt_find_dev
 .text          0x0001111c       0x30 ../FPGA_Lab4_Software_bsp/\libhal_bsp.a(alt_icache_flush_all.o)
                0x0001111c                alt_icache_flush_all
 .text          0x0001114c      0x1d4 ../FPGA_Lab4_Software_bsp/\libhal_bsp.a(alt_iic.o)
                0x0001114c                alt_ic_isr_register
                0x0001119c                alt_ic_irq_enable
                0x00011238                alt_ic_irq_disable
                0x000112d8                alt_ic_irq_enabled
 .text          0x00011320       0xf8 ../FPGA_Lab4_Software_bsp/\libhal_bsp.a(alt_iic_isr_register.o)
                0x00011320                alt_iic_isr_register
 .text          0x00011418      0x13c ../FPGA_Lab4_Software_bsp/\libhal_bsp.a(alt_io_redirect.o)
                0x000114dc                alt_io_redirect
 .text          0x00011554        0x0 ../FPGA_Lab4_Software_bsp/\libhal_bsp.a(alt_irq_entry.o)
 .text          0x00011554        0x0 ../FPGA_Lab4_Software_bsp/\libhal_bsp.a(alt_irq_handler.o)
 .text          0x00011554      0x2c4 ../FPGA_Lab4_Software_bsp/\libhal_bsp.a(alt_open.o)
                0x00011630                open
 .text          0x00011818      0x1a4 ../FPGA_Lab4_Software_bsp/\libhal_bsp.a(alt_tick.o)
                0x00011818                alt_alarm_stop
                0x000118b0                alt_tick
 .text          0x000119bc       0x20 ../FPGA_Lab4_Software_bsp/\libhal_bsp.a(altera_nios2_qsys_irq.o)
                0x000119bc                altera_nios2_qsys_irq_init
 .text          0x000119dc        0x0 ../FPGA_Lab4_Software_bsp/\libhal_bsp.a(alt_exception_entry.o)
 .text          0x000119dc      0x120 ../FPGA_Lab4_Software_bsp/\libhal_bsp.a(alt_find_file.o)
                0x000119dc                alt_find_file
 .text          0x00011afc       0xb8 ../FPGA_Lab4_Software_bsp/\libhal_bsp.a(alt_get_fd.o)
                0x00011afc                alt_get_fd
 .text          0x00011bb4       0x90 ../FPGA_Lab4_Software_bsp/\libhal_bsp.a(alt_icache_flush.o)
                0x00011bb4                alt_icache_flush
 .text          0x00011c44       0x14 d:/modelsim_ase/quartus/quartus cyclone ii/nios2eds/bin/gnu/h-i686-mingw32/bin/../lib/gcc/nios2-elf/4.1.2/../../../../nios2-elf/lib\libc.a(lib_a-atexit.o)
                0x00011c44                atexit
 .text          0x00011c58       0x38 d:/modelsim_ase/quartus/quartus cyclone ii/nios2eds/bin/gnu/h-i686-mingw32/bin/../lib/gcc/nios2-elf/4.1.2/../../../../nios2-elf/lib\libc.a(lib_a-exit.o)
                0x00011c58                exit
 .text          0x00011c90       0x74 d:/modelsim_ase/quartus/quartus cyclone ii/nios2eds/bin/gnu/h-i686-mingw32/bin/../lib/gcc/nios2-elf/4.1.2/../../../../nios2-elf/lib\libc.a(lib_a-memcmp.o)
                0x00011c90                memcmp
 .text          0x00011d04      0x1ec d:/modelsim_ase/quartus/quartus cyclone ii/nios2eds/bin/gnu/h-i686-mingw32/bin/../lib/gcc/nios2-elf/4.1.2/../../../../nios2-elf/lib\libc.a(lib_a-putc.o)
                0x00011d04                putc
                0x00011e08                _putc_r
 .text          0x00011ef0      0x14c d:/modelsim_ase/quartus/quartus cyclone ii/nios2eds/bin/gnu/h-i686-mingw32/bin/../lib/gcc/nios2-elf/4.1.2/../../../../nios2-elf/lib\libc.a(lib_a-wbuf.o)
                0x00011ef0                __swbuf_r
                0x00012020                __swbuf
 .text          0x0001203c      0x134 d:/modelsim_ase/quartus/quartus cyclone ii/nios2eds/bin/gnu/h-i686-mingw32/bin/../lib/gcc/nios2-elf/4.1.2/../../../../nios2-elf/lib\libc.a(lib_a-__atexit.o)
                0x0001203c                __register_exitproc
 .text          0x00012170      0x1b4 d:/modelsim_ase/quartus/quartus cyclone ii/nios2eds/bin/gnu/h-i686-mingw32/bin/../lib/gcc/nios2-elf/4.1.2/../../../../nios2-elf/lib\libc.a(lib_a-__call_atexit.o)
                0x00012174                __call_exitprocs
 .text          0x00012324       0x60 ../FPGA_Lab4_Software_bsp/\libhal_bsp.a(alt_exit.o)
                0x00012364                _exit
 *(.gnu.warning.*)
 *(.fini)
                0x00012384                PROVIDE (__etext, ABSOLUTE (.))
                0x00012384                PROVIDE (_etext, ABSOLUTE (.))
                0x00012384                PROVIDE (etext, ABSOLUTE (.))
 *(.eh_frame_hdr)
                0x00012384                . = ALIGN (0x4)
                0x00012384                PROVIDE (__preinit_array_start, ABSOLUTE (.))
 *(.preinit_array)
                0x00012384                PROVIDE (__preinit_array_end, ABSOLUTE (.))
                0x00012384                PROVIDE (__init_array_start, ABSOLUTE (.))
 *(.init_array)
                0x00012384                PROVIDE (__init_array_end, ABSOLUTE (.))
                0x00012384                PROVIDE (__fini_array_start, ABSOLUTE (.))
 *(.fini_array)
                0x00012384                PROVIDE (__fini_array_end, ABSOLUTE (.))
 *(.eh_frame)
 *(.gcc_except_table)
 *(.dynamic)
                0x00012384                PROVIDE (__CTOR_LIST__, ABSOLUTE (.))
 *(.ctors)
 *(SORT(.ctors.*))
 .ctors.65535   0x00012384        0x4 d:/modelsim_ase/quartus/quartus cyclone ii/nios2eds/bin/gnu/h-i686-mingw32/bin/../lib/gcc/nios2-elf/4.1.2/../../../../nios2-elf/lib\libc.a(lib_a-__call_atexit.o)
                0x00012388                PROVIDE (__CTOR_END__, ABSOLUTE (.))
                0x00012388                PROVIDE (__DTOR_LIST__, ABSOLUTE (.))
 *(.dtors)
 *(SORT(.dtors.*))
                0x00012388                PROVIDE (__DTOR_END__, ABSOLUTE (.))
 *(.jcr)
                0x00012388                . = ALIGN (0x4)

.rodata         0x00012388      0x730
                0x00012388                PROVIDE (__ram_rodata_start, ABSOLUTE (.))
                0x00012388                . = ALIGN (0x4)
 *(.rodata .rodata.* .gnu.linkonce.r.*)
 .rodata        0x00012388       0x1c obj/default/audio_ISR.o
 .rodata        0x000123a4      0x3c0 obj/default/media_interrupt_HAL.o
 .rodata        0x00012764      0x100 d:/modelsim_ase/quartus/quartus cyclone ii/nios2eds/bin/gnu/h-i686-mingw32/bin/../lib/gcc/nios2-elf/4.1.2\libgcc.a(_clz.o)
                0x00012764                __clz_tab
 .rodata.str1.4
                0x00012864       0x5e d:/modelsim_ase/quartus/quartus cyclone ii/nios2eds/bin/gnu/h-i686-mingw32/bin/../lib/gcc/nios2-elf/4.1.2/../../../../nios2-elf/lib\libc.a(lib_a-vfprintf.o)
                                 0x60 (size before relaxing)
 .rodata        0x000128c2       0x20 d:/modelsim_ase/quartus/quartus cyclone ii/nios2eds/bin/gnu/h-i686-mingw32/bin/../lib/gcc/nios2-elf/4.1.2/../../../../nios2-elf/lib\libc.a(lib_a-vfprintf.o)
 *fill*         0x000128e2        0x2 00
 .rodata.str1.4
                0x000128e4       0x10 d:/modelsim_ase/quartus/quartus cyclone ii/nios2eds/bin/gnu/h-i686-mingw32/bin/../lib/gcc/nios2-elf/4.1.2/../../../../nios2-elf/lib\libc.a(lib_a-dtoa.o)
                                 0x14 (size before relaxing)
 .rodata.str1.4
                0x000128f4        0x2 d:/modelsim_ase/quartus/quartus cyclone ii/nios2eds/bin/gnu/h-i686-mingw32/bin/../lib/gcc/nios2-elf/4.1.2/../../../../nios2-elf/lib\libc.a(lib_a-impure.o)
                                  0x4 (size before relaxing)
 *fill*         0x000128f6        0x2 00
 .rodata.str1.4
                0x000128f8       0x10 d:/modelsim_ase/quartus/quartus cyclone ii/nios2eds/bin/gnu/h-i686-mingw32/bin/../lib/gcc/nios2-elf/4.1.2/../../../../nios2-elf/lib\libc.a(lib_a-locale.o)
                                 0x18 (size before relaxing)
 .rodata        0x00012908       0x30 d:/modelsim_ase/quartus/quartus cyclone ii/nios2eds/bin/gnu/h-i686-mingw32/bin/../lib/gcc/nios2-elf/4.1.2/../../../../nios2-elf/lib\libc.a(lib_a-locale.o)
 .rodata        0x00012938      0x124 d:/modelsim_ase/quartus/quartus cyclone ii/nios2eds/bin/gnu/h-i686-mingw32/bin/../lib/gcc/nios2-elf/4.1.2/../../../../nios2-elf/lib\libc.a(lib_a-mprec.o)
                0x00012938                __mprec_tens
                0x00012a00                __mprec_bigtens
                0x00012a28                __mprec_tinytens
 .rodata        0x00012a5c       0x14 d:/modelsim_ase/quartus/quartus cyclone ii/nios2eds/bin/gnu/h-i686-mingw32/bin/../lib/gcc/nios2-elf/4.1.2\libgcc.a(_thenan_df.o)
                0x00012a5c                __thenan_df
 .rodata        0x00012a70        0xc ../FPGA_Lab4_Software_bsp/\libhal_bsp.a(alt_dev.o)
 .rodata        0x00012a7c       0x10 ../FPGA_Lab4_Software_bsp/\libhal_bsp.a(alt_main.o)
 .rodata        0x00012a8c       0x10 ../FPGA_Lab4_Software_bsp/\libhal_bsp.a(alt_sys_init.o)
 .rodata        0x00012a9c       0x1c ../FPGA_Lab4_Software_bsp/\libhal_bsp.a(altera_up_avalon_video_character_buffer_with_dma.o)
 *(.rodata1)
                0x00012ab8                . = ALIGN (0x4)
                0x00012ab8                PROVIDE (__ram_rodata_end, ABSOLUTE (.))
                0x00012388                PROVIDE (__flash_rodata_start, LOADADDR (.rodata))

.rwdata         0x00012ab8     0x1b74 load address 0x0001462c
                0x00012ab8                PROVIDE (__ram_rwdata_start, ABSOLUTE (.))
                0x00012ab8                . = ALIGN (0x4)
 *(.got.plt)
 *(.got)
 *(.data1)
 *(.data .data.* .gnu.linkonce.d.*)
 .data          0x00012ab8        0x0 ../FPGA_Lab4_Software_bsp//obj/HAL/src/crt0.o
 .data          0x00012ab8        0x0 obj/default/PS2_ISR.o
 .data          0x00012ab8        0x0 obj/default/audio_ISR.o
 .data          0x00012ab8        0x0 obj/default/globals.o
 .data          0x00012ab8        0x0 obj/default/interval_timer_ISR.o
 .data          0x00012ab8      0x100 obj/default/media_interrupt_HAL.o
                0x00012ab8                denoise_filter_coefficients
 .data          0x00012bb8        0x0 obj/default/pushbutton_ISR.o
 .data          0x00012bb8        0x0 d:/modelsim_ase/quartus/quartus cyclone ii/nios2eds/bin/gnu/h-i686-mingw32/bin/../lib/gcc/nios2-elf/4.1.2\libgcc.a(_udivdi3.o)
 .data          0x00012bb8        0x0 d:/modelsim_ase/quartus/quartus cyclone ii/nios2eds/bin/gnu/h-i686-mingw32/bin/../lib/gcc/nios2-elf/4.1.2\libgcc.a(_si_to_sf.o)
 .data          0x00012bb8        0x0 d:/modelsim_ase/quartus/quartus cyclone ii/nios2eds/bin/gnu/h-i686-mingw32/bin/../lib/gcc/nios2-elf/4.1.2\libgcc.a(_sf_to_si.o)
 .data          0x00012bb8        0x0 d:/modelsim_ase/quartus/quartus cyclone ii/nios2eds/bin/gnu/h-i686-mingw32/bin/../lib/gcc/nios2-elf/4.1.2\libgcc.a(_sf_to_df.o)
 .data          0x00012bb8        0x0 d:/modelsim_ase/quartus/quartus cyclone ii/nios2eds/bin/gnu/h-i686-mingw32/bin/../lib/gcc/nios2-elf/4.1.2\libgcc.a(_usi_to_sf.o)
 .data          0x00012bb8        0x0 d:/modelsim_ase/quartus/quartus cyclone ii/nios2eds/bin/gnu/h-i686-mingw32/bin/../lib/gcc/nios2-elf/4.1.2\libgcc.a(_make_df.o)
 .data          0x00012bb8        0x0 d:/modelsim_ase/quartus/quartus cyclone ii/nios2eds/bin/gnu/h-i686-mingw32/bin/../lib/gcc/nios2-elf/4.1.2\libgcc.a(lib2-divmod.o)
 .data          0x00012bb8        0x0 d:/modelsim_ase/quartus/quartus cyclone ii/nios2eds/bin/gnu/h-i686-mingw32/bin/../lib/gcc/nios2-elf/4.1.2\libgcc.a(_clz.o)
 .data          0x00012bb8        0x0 d:/modelsim_ase/quartus/quartus cyclone ii/nios2eds/bin/gnu/h-i686-mingw32/bin/../lib/gcc/nios2-elf/4.1.2\libgcc.a(_clzsi2.o)
 .data          0x00012bb8        0x0 d:/modelsim_ase/quartus/quartus cyclone ii/nios2eds/bin/gnu/h-i686-mingw32/bin/../lib/gcc/nios2-elf/4.1.2\libgcc.a(_pack_sf.o)
 .data          0x00012bb8        0x0 d:/modelsim_ase/quartus/quartus cyclone ii/nios2eds/bin/gnu/h-i686-mingw32/bin/../lib/gcc/nios2-elf/4.1.2\libgcc.a(_unpack_sf.o)
 .data          0x00012bb8        0x0 d:/modelsim_ase/quartus/quartus cyclone ii/nios2eds/bin/gnu/h-i686-mingw32/bin/../lib/gcc/nios2-elf/4.1.2\libgcc.a(_pack_df.o)
 .data          0x00012bb8        0x0 d:/modelsim_ase/quartus/quartus cyclone ii/nios2eds/bin/gnu/h-i686-mingw32/bin/../lib/gcc/nios2-elf/4.1.2/../../../../nios2-elf/lib\libc.a(lib_a-memcpy.o)
 .data          0x00012bb8        0x0 d:/modelsim_ase/quartus/quartus cyclone ii/nios2eds/bin/gnu/h-i686-mingw32/bin/../lib/gcc/nios2-elf/4.1.2/../../../../nios2-elf/lib\libc.a(lib_a-memset.o)
 .data          0x00012bb8        0x0 d:/modelsim_ase/quartus/quartus cyclone ii/nios2eds/bin/gnu/h-i686-mingw32/bin/../lib/gcc/nios2-elf/4.1.2/../../../../nios2-elf/lib\libc.a(lib_a-printf.o)
 .data          0x00012bb8        0x0 d:/modelsim_ase/quartus/quartus cyclone ii/nios2eds/bin/gnu/h-i686-mingw32/bin/../lib/gcc/nios2-elf/4.1.2/../../../../nios2-elf/lib\libc.a(lib_a-vfprintf.o)
 .data          0x00012bb8        0x0 d:/modelsim_ase/quartus/quartus cyclone ii/nios2eds/bin/gnu/h-i686-mingw32/bin/../lib/gcc/nios2-elf/4.1.2/../../../../nios2-elf/lib\libc.a(lib_a-wsetup.o)
 .data          0x00012bb8        0x0 d:/modelsim_ase/quartus/quartus cyclone ii/nios2eds/bin/gnu/h-i686-mingw32/bin/../lib/gcc/nios2-elf/4.1.2/../../../../nios2-elf/lib\libc.a(lib_a-dtoa.o)
 .data          0x00012bb8        0x0 d:/modelsim_ase/quartus/quartus cyclone ii/nios2eds/bin/gnu/h-i686-mingw32/bin/../lib/gcc/nios2-elf/4.1.2/../../../../nios2-elf/lib\libc.a(lib_a-fflush.o)
 .data          0x00012bb8        0x0 d:/modelsim_ase/quartus/quartus cyclone ii/nios2eds/bin/gnu/h-i686-mingw32/bin/../lib/gcc/nios2-elf/4.1.2/../../../../nios2-elf/lib\libc.a(lib_a-findfp.o)
 .data          0x00012bb8        0x0 d:/modelsim_ase/quartus/quartus cyclone ii/nios2eds/bin/gnu/h-i686-mingw32/bin/../lib/gcc/nios2-elf/4.1.2/../../../../nios2-elf/lib\libc.a(lib_a-freer.o)
 .data          0x00012bb8        0x0 d:/modelsim_ase/quartus/quartus cyclone ii/nios2eds/bin/gnu/h-i686-mingw32/bin/../lib/gcc/nios2-elf/4.1.2/../../../../nios2-elf/lib\libc.a(lib_a-fvwrite.o)
 .data          0x00012bb8        0x0 d:/modelsim_ase/quartus/quartus cyclone ii/nios2eds/bin/gnu/h-i686-mingw32/bin/../lib/gcc/nios2-elf/4.1.2/../../../../nios2-elf/lib\libc.a(lib_a-fwalk.o)
 .data          0x00012bb8      0x400 d:/modelsim_ase/quartus/quartus cyclone ii/nios2eds/bin/gnu/h-i686-mingw32/bin/../lib/gcc/nios2-elf/4.1.2/../../../../nios2-elf/lib\libc.a(lib_a-impure.o)
 .data          0x00012fb8        0xc d:/modelsim_ase/quartus/quartus cyclone ii/nios2eds/bin/gnu/h-i686-mingw32/bin/../lib/gcc/nios2-elf/4.1.2/../../../../nios2-elf/lib\libc.a(lib_a-locale.o)
                0x00012fb8                __lc_ctype
 .data          0x00012fc4        0x0 d:/modelsim_ase/quartus/quartus cyclone ii/nios2eds/bin/gnu/h-i686-mingw32/bin/../lib/gcc/nios2-elf/4.1.2/../../../../nios2-elf/lib\libc.a(lib_a-makebuf.o)
 .data          0x00012fc4      0x408 d:/modelsim_ase/quartus/quartus cyclone ii/nios2eds/bin/gnu/h-i686-mingw32/bin/../lib/gcc/nios2-elf/4.1.2/../../../../nios2-elf/lib\libc.a(lib_a-mallocr.o)
                0x00012fc4                __malloc_av_
 .data          0x000133cc        0x0 d:/modelsim_ase/quartus/quartus cyclone ii/nios2eds/bin/gnu/h-i686-mingw32/bin/../lib/gcc/nios2-elf/4.1.2/../../../../nios2-elf/lib\libc.a(lib_a-memchr.o)
 .data          0x000133cc        0x0 d:/modelsim_ase/quartus/quartus cyclone ii/nios2eds/bin/gnu/h-i686-mingw32/bin/../lib/gcc/nios2-elf/4.1.2/../../../../nios2-elf/lib\libc.a(lib_a-memmove.o)
 .data          0x000133cc        0x0 d:/modelsim_ase/quartus/quartus cyclone ii/nios2eds/bin/gnu/h-i686-mingw32/bin/../lib/gcc/nios2-elf/4.1.2/../../../../nios2-elf/lib\libc.a(lib_a-mprec.o)
 .data          0x000133cc        0x0 d:/modelsim_ase/quartus/quartus cyclone ii/nios2eds/bin/gnu/h-i686-mingw32/bin/../lib/gcc/nios2-elf/4.1.2/../../../../nios2-elf/lib\libc.a(lib_a-reallocr.o)
 .data          0x000133cc        0x0 d:/modelsim_ase/quartus/quartus cyclone ii/nios2eds/bin/gnu/h-i686-mingw32/bin/../lib/gcc/nios2-elf/4.1.2/../../../../nios2-elf/lib\libc.a(lib_a-s_isinfd.o)
 .data          0x000133cc        0x0 d:/modelsim_ase/quartus/quartus cyclone ii/nios2eds/bin/gnu/h-i686-mingw32/bin/../lib/gcc/nios2-elf/4.1.2/../../../../nios2-elf/lib\libc.a(lib_a-s_isnand.o)
 .data          0x000133cc        0x0 d:/modelsim_ase/quartus/quartus cyclone ii/nios2eds/bin/gnu/h-i686-mingw32/bin/../lib/gcc/nios2-elf/4.1.2/../../../../nios2-elf/lib\libc.a(lib_a-sbrkr.o)
 .data          0x000133cc        0x0 d:/modelsim_ase/quartus/quartus cyclone ii/nios2eds/bin/gnu/h-i686-mingw32/bin/../lib/gcc/nios2-elf/4.1.2/../../../../nios2-elf/lib\libc.a(lib_a-stdio.o)
 .data          0x000133cc        0x0 d:/modelsim_ase/quartus/quartus cyclone ii/nios2eds/bin/gnu/h-i686-mingw32/bin/../lib/gcc/nios2-elf/4.1.2/../../../../nios2-elf/lib\libc.a(lib_a-strcmp.o)
 .data          0x000133cc        0x0 d:/modelsim_ase/quartus/quartus cyclone ii/nios2eds/bin/gnu/h-i686-mingw32/bin/../lib/gcc/nios2-elf/4.1.2/../../../../nios2-elf/lib\libc.a(lib_a-strlen.o)
 .data          0x000133cc        0x0 d:/modelsim_ase/quartus/quartus cyclone ii/nios2eds/bin/gnu/h-i686-mingw32/bin/../lib/gcc/nios2-elf/4.1.2/../../../../nios2-elf/lib\libc.a(lib_a-writer.o)
 .data          0x000133cc        0x0 d:/modelsim_ase/quartus/quartus cyclone ii/nios2eds/bin/gnu/h-i686-mingw32/bin/../lib/gcc/nios2-elf/4.1.2/../../../../nios2-elf/lib\libc.a(lib_a-callocr.o)
 .data          0x000133cc        0x0 d:/modelsim_ase/quartus/quartus cyclone ii/nios2eds/bin/gnu/h-i686-mingw32/bin/../lib/gcc/nios2-elf/4.1.2/../../../../nios2-elf/lib\libc.a(lib_a-closer.o)
 .data          0x000133cc        0x0 d:/modelsim_ase/quartus/quartus cyclone ii/nios2eds/bin/gnu/h-i686-mingw32/bin/../lib/gcc/nios2-elf/4.1.2/../../../../nios2-elf/lib\libc.a(lib_a-fclose.o)
 .data          0x000133cc        0x0 d:/modelsim_ase/quartus/quartus cyclone ii/nios2eds/bin/gnu/h-i686-mingw32/bin/../lib/gcc/nios2-elf/4.1.2/../../../../nios2-elf/lib\libc.a(lib_a-fstatr.o)
 .data          0x000133cc        0x0 d:/modelsim_ase/quartus/quartus cyclone ii/nios2eds/bin/gnu/h-i686-mingw32/bin/../lib/gcc/nios2-elf/4.1.2/../../../../nios2-elf/lib\libc.a(lib_a-int_errno.o)
 .data          0x000133cc        0x0 d:/modelsim_ase/quartus/quartus cyclone ii/nios2eds/bin/gnu/h-i686-mingw32/bin/../lib/gcc/nios2-elf/4.1.2/../../../../nios2-elf/lib\libc.a(lib_a-isattyr.o)
 .data          0x000133cc        0x0 d:/modelsim_ase/quartus/quartus cyclone ii/nios2eds/bin/gnu/h-i686-mingw32/bin/../lib/gcc/nios2-elf/4.1.2/../../../../nios2-elf/lib\libc.a(lib_a-lseekr.o)
 .data          0x000133cc        0x0 d:/modelsim_ase/quartus/quartus cyclone ii/nios2eds/bin/gnu/h-i686-mingw32/bin/../lib/gcc/nios2-elf/4.1.2/../../../../nios2-elf/lib\libc.a(lib_a-readr.o)
 .data          0x000133cc        0x0 d:/modelsim_ase/quartus/quartus cyclone ii/nios2eds/bin/gnu/h-i686-mingw32/bin/../lib/gcc/nios2-elf/4.1.2\libgcc.a(_umoddi3.o)
 .data          0x000133cc        0x0 d:/modelsim_ase/quartus/quartus cyclone ii/nios2eds/bin/gnu/h-i686-mingw32/bin/../lib/gcc/nios2-elf/4.1.2\libgcc.a(_addsub_df.o)
 .data          0x000133cc        0x0 d:/modelsim_ase/quartus/quartus cyclone ii/nios2eds/bin/gnu/h-i686-mingw32/bin/../lib/gcc/nios2-elf/4.1.2\libgcc.a(_mul_df.o)
 .data          0x000133cc        0x0 d:/modelsim_ase/quartus/quartus cyclone ii/nios2eds/bin/gnu/h-i686-mingw32/bin/../lib/gcc/nios2-elf/4.1.2\libgcc.a(_div_df.o)
 .data          0x000133cc        0x0 d:/modelsim_ase/quartus/quartus cyclone ii/nios2eds/bin/gnu/h-i686-mingw32/bin/../lib/gcc/nios2-elf/4.1.2\libgcc.a(_eq_df.o)
 .data          0x000133cc        0x0 d:/modelsim_ase/quartus/quartus cyclone ii/nios2eds/bin/gnu/h-i686-mingw32/bin/../lib/gcc/nios2-elf/4.1.2\libgcc.a(_ne_df.o)
 .data          0x000133cc        0x0 d:/modelsim_ase/quartus/quartus cyclone ii/nios2eds/bin/gnu/h-i686-mingw32/bin/../lib/gcc/nios2-elf/4.1.2\libgcc.a(_gt_df.o)
 .data          0x000133cc        0x0 d:/modelsim_ase/quartus/quartus cyclone ii/nios2eds/bin/gnu/h-i686-mingw32/bin/../lib/gcc/nios2-elf/4.1.2\libgcc.a(_ge_df.o)
 .data          0x000133cc        0x0 d:/modelsim_ase/quartus/quartus cyclone ii/nios2eds/bin/gnu/h-i686-mingw32/bin/../lib/gcc/nios2-elf/4.1.2\libgcc.a(_lt_df.o)
 .data          0x000133cc        0x0 d:/modelsim_ase/quartus/quartus cyclone ii/nios2eds/bin/gnu/h-i686-mingw32/bin/../lib/gcc/nios2-elf/4.1.2\libgcc.a(_si_to_df.o)
 .data          0x000133cc        0x0 d:/modelsim_ase/quartus/quartus cyclone ii/nios2eds/bin/gnu/h-i686-mingw32/bin/../lib/gcc/nios2-elf/4.1.2\libgcc.a(_df_to_si.o)
 .data          0x000133cc        0x0 d:/modelsim_ase/quartus/quartus cyclone ii/nios2eds/bin/gnu/h-i686-mingw32/bin/../lib/gcc/nios2-elf/4.1.2\libgcc.a(_thenan_df.o)
 .data          0x000133cc        0x0 d:/modelsim_ase/quartus/quartus cyclone ii/nios2eds/bin/gnu/h-i686-mingw32/bin/../lib/gcc/nios2-elf/4.1.2\libgcc.a(_usi_to_df.o)
 .data          0x000133cc        0x0 d:/modelsim_ase/quartus/quartus cyclone ii/nios2eds/bin/gnu/h-i686-mingw32/bin/../lib/gcc/nios2-elf/4.1.2\libgcc.a(_muldi3.o)
 .data          0x000133cc        0x0 d:/modelsim_ase/quartus/quartus cyclone ii/nios2eds/bin/gnu/h-i686-mingw32/bin/../lib/gcc/nios2-elf/4.1.2\libgcc.a(_unpack_df.o)
 .data          0x000133cc        0x0 d:/modelsim_ase/quartus/quartus cyclone ii/nios2eds/bin/gnu/h-i686-mingw32/bin/../lib/gcc/nios2-elf/4.1.2\libgcc.a(_fpcmp_parts_df.o)
 .data          0x000133cc        0x0 ../FPGA_Lab4_Software_bsp/\libhal_bsp.a(alt_close.o)
 .data          0x000133cc      0x1a8 ../FPGA_Lab4_Software_bsp/\libhal_bsp.a(alt_dev.o)
                0x000133cc                alt_dev_null
                0x000133f4                alt_fd_list
 .data          0x00013574        0x0 ../FPGA_Lab4_Software_bsp/\libhal_bsp.a(alt_errno.o)
 .data          0x00013574        0x0 ../FPGA_Lab4_Software_bsp/\libhal_bsp.a(alt_fstat.o)
 .data          0x00013574        0x0 ../FPGA_Lab4_Software_bsp/\libhal_bsp.a(alt_irq_register.o)
 .data          0x00013574        0x0 ../FPGA_Lab4_Software_bsp/\libhal_bsp.a(alt_irq_vars.o)
 .data          0x00013574        0x0 ../FPGA_Lab4_Software_bsp/\libhal_bsp.a(alt_isatty.o)
 .data          0x00013574        0x0 ../FPGA_Lab4_Software_bsp/\libhal_bsp.a(alt_load.o)
 .data          0x00013574        0x0 ../FPGA_Lab4_Software_bsp/\libhal_bsp.a(alt_lseek.o)
 .data          0x00013574        0x0 ../FPGA_Lab4_Software_bsp/\libhal_bsp.a(alt_main.o)
 .data          0x00013574        0x0 ../FPGA_Lab4_Software_bsp/\libhal_bsp.a(alt_malloc_lock.o)
 .data          0x00013574        0x0 ../FPGA_Lab4_Software_bsp/\libhal_bsp.a(alt_printf.o)
 .data          0x00013574        0x0 ../FPGA_Lab4_Software_bsp/\libhal_bsp.a(alt_putchar.o)
 .data          0x00013574        0x0 ../FPGA_Lab4_Software_bsp/\libhal_bsp.a(alt_read.o)
 .data          0x00013574        0x0 ../FPGA_Lab4_Software_bsp/\libhal_bsp.a(alt_release_fd.o)
 .data          0x00013574        0x0 ../FPGA_Lab4_Software_bsp/\libhal_bsp.a(alt_sbrk.o)
 .data          0x00013574        0x0 ../FPGA_Lab4_Software_bsp/\libhal_bsp.a(alt_write.o)
 .data          0x00013574     0x1060 ../FPGA_Lab4_Software_bsp/\libhal_bsp.a(alt_sys_init.o)
 .data          0x000145d4        0x0 ../FPGA_Lab4_Software_bsp/\libhal_bsp.a(altera_avalon_jtag_uart_fd.o)
 .data          0x000145d4        0x0 ../FPGA_Lab4_Software_bsp/\libhal_bsp.a(altera_avalon_jtag_uart_init.o)
 .data          0x000145d4        0x0 ../FPGA_Lab4_Software_bsp/\libhal_bsp.a(altera_avalon_jtag_uart_ioctl.o)
 .data          0x000145d4        0x0 ../FPGA_Lab4_Software_bsp/\libhal_bsp.a(altera_avalon_jtag_uart_read.o)
 .data          0x000145d4        0x0 ../FPGA_Lab4_Software_bsp/\libhal_bsp.a(altera_avalon_jtag_uart_write.o)
 .data          0x000145d4        0x0 ../FPGA_Lab4_Software_bsp/\libhal_bsp.a(altera_avalon_timer_ts.o)
 .data          0x000145d4        0x0 ../FPGA_Lab4_Software_bsp/\libhal_bsp.a(altera_avalon_timer_vars.o)
 .data          0x000145d4        0x0 ../FPGA_Lab4_Software_bsp/\libhal_bsp.a(altera_up_avalon_audio.o)
 .data          0x000145d4        0x0 ../FPGA_Lab4_Software_bsp/\libhal_bsp.a(altera_up_avalon_character_lcd.o)
 .data          0x000145d4        0x0 ../FPGA_Lab4_Software_bsp/\libhal_bsp.a(altera_up_avalon_parallel_port.o)
 .data          0x000145d4        0x0 ../FPGA_Lab4_Software_bsp/\libhal_bsp.a(altera_up_avalon_ps2.o)
 .data          0x000145d4        0x0 ../FPGA_Lab4_Software_bsp/\libhal_bsp.a(altera_up_avalon_video_character_buffer_with_dma.o)
 .data          0x000145d4        0x0 ../FPGA_Lab4_Software_bsp/\libhal_bsp.a(altera_up_avalon_video_pixel_buffer_dma.o)
 .data          0x000145d4        0x0 ../FPGA_Lab4_Software_bsp/\libhal_bsp.a(alt_alarm_start.o)
 .data          0x000145d4        0x0 ../FPGA_Lab4_Software_bsp/\libhal_bsp.a(alt_dcache_flush_all.o)
 .data          0x000145d4        0x0 ../FPGA_Lab4_Software_bsp/\libhal_bsp.a(alt_dev_llist_insert.o)
 .data          0x000145d4        0x0 ../FPGA_Lab4_Software_bsp/\libhal_bsp.a(alt_do_ctors.o)
 .data          0x000145d4        0x0 ../FPGA_Lab4_Software_bsp/\libhal_bsp.a(alt_do_dtors.o)
 .data          0x000145d4        0x0 ../FPGA_Lab4_Software_bsp/\libhal_bsp.a(alt_find_dev.o)
 .data          0x000145d4        0x0 ../FPGA_Lab4_Software_bsp/\libhal_bsp.a(alt_icache_flush_all.o)
 .data          0x000145d4        0x0 ../FPGA_Lab4_Software_bsp/\libhal_bsp.a(alt_iic.o)
 .data          0x000145d4        0x0 ../FPGA_Lab4_Software_bsp/\libhal_bsp.a(alt_iic_isr_register.o)
 .data          0x000145d4        0x0 ../FPGA_Lab4_Software_bsp/\libhal_bsp.a(alt_io_redirect.o)
 .data          0x000145d4        0x0 ../FPGA_Lab4_Software_bsp/\libhal_bsp.a(alt_irq_entry.o)
 .data          0x000145d4        0x0 ../FPGA_Lab4_Software_bsp/\libhal_bsp.a(alt_irq_handler.o)
 .data          0x000145d4        0x0 ../FPGA_Lab4_Software_bsp/\libhal_bsp.a(alt_open.o)
 .data          0x000145d4        0x0 ../FPGA_Lab4_Software_bsp/\libhal_bsp.a(alt_tick.o)
 .data          0x000145d4        0x0 ../FPGA_Lab4_Software_bsp/\libhal_bsp.a(altera_nios2_qsys_irq.o)
 .data          0x000145d4        0x0 ../FPGA_Lab4_Software_bsp/\libhal_bsp.a(alt_exception_entry.o)
 .data          0x000145d4        0x0 ../FPGA_Lab4_Software_bsp/\libhal_bsp.a(alt_find_file.o)
 .data          0x000145d4        0x0 ../FPGA_Lab4_Software_bsp/\libhal_bsp.a(alt_get_fd.o)
 .data          0x000145d4        0x0 ../FPGA_Lab4_Software_bsp/\libhal_bsp.a(alt_icache_flush.o)
 .data          0x000145d4        0x0 d:/modelsim_ase/quartus/quartus cyclone ii/nios2eds/bin/gnu/h-i686-mingw32/bin/../lib/gcc/nios2-elf/4.1.2/../../../../nios2-elf/lib\libc.a(lib_a-atexit.o)
 .data          0x000145d4        0x0 d:/modelsim_ase/quartus/quartus cyclone ii/nios2eds/bin/gnu/h-i686-mingw32/bin/../lib/gcc/nios2-elf/4.1.2/../../../../nios2-elf/lib\libc.a(lib_a-exit.o)
 .data          0x000145d4        0x0 d:/modelsim_ase/quartus/quartus cyclone ii/nios2eds/bin/gnu/h-i686-mingw32/bin/../lib/gcc/nios2-elf/4.1.2/../../../../nios2-elf/lib\libc.a(lib_a-memcmp.o)
 .data          0x000145d4        0x0 d:/modelsim_ase/quartus/quartus cyclone ii/nios2eds/bin/gnu/h-i686-mingw32/bin/../lib/gcc/nios2-elf/4.1.2/../../../../nios2-elf/lib\libc.a(lib_a-putc.o)
 .data          0x000145d4        0x0 d:/modelsim_ase/quartus/quartus cyclone ii/nios2eds/bin/gnu/h-i686-mingw32/bin/../lib/gcc/nios2-elf/4.1.2/../../../../nios2-elf/lib\libc.a(lib_a-wbuf.o)
 .data          0x000145d4        0x0 d:/modelsim_ase/quartus/quartus cyclone ii/nios2eds/bin/gnu/h-i686-mingw32/bin/../lib/gcc/nios2-elf/4.1.2/../../../../nios2-elf/lib\libc.a(lib_a-__atexit.o)
 .data          0x000145d4        0x0 d:/modelsim_ase/quartus/quartus cyclone ii/nios2eds/bin/gnu/h-i686-mingw32/bin/../lib/gcc/nios2-elf/4.1.2/../../../../nios2-elf/lib\libc.a(lib_a-__call_atexit.o)
 .data          0x000145d4        0x0 ../FPGA_Lab4_Software_bsp/\libhal_bsp.a(alt_exit.o)
                0x0001c5d4                _gp = ABSOLUTE ((. + 0x8000))
                0x0001c5d4                PROVIDE (gp, _gp)
 *(.rwdata .rwdata.*)
 *(.sdata .sdata.* .gnu.linkonce.s.*)
 .sdata         0x000145d4       0x10 obj/default/audio_ISR.o
                0x000145d4                color
                0x000145d8                y_of_each_plot
                0x000145dc                width_of_screen
                0x000145e0                x_of_current_drawing_plot
 .sdata         0x000145e4        0x8 obj/default/media_interrupt_HAL.o
                0x000145e4                N
                0x000145e8                number_of_coefficients
 .sdata         0x000145ec        0x8 d:/modelsim_ase/quartus/quartus cyclone ii/nios2eds/bin/gnu/h-i686-mingw32/bin/../lib/gcc/nios2-elf/4.1.2/../../../../nios2-elf/lib\libc.a(lib_a-impure.o)
                0x000145ec                _impure_ptr
                0x000145f0                _global_impure_ptr
 .sdata         0x000145f4        0x8 d:/modelsim_ase/quartus/quartus cyclone ii/nios2eds/bin/gnu/h-i686-mingw32/bin/../lib/gcc/nios2-elf/4.1.2/../../../../nios2-elf/lib\libc.a(lib_a-locale.o)
                0x000145f4                __mb_cur_max
 .sdata         0x000145fc        0x8 d:/modelsim_ase/quartus/quartus cyclone ii/nios2eds/bin/gnu/h-i686-mingw32/bin/../lib/gcc/nios2-elf/4.1.2/../../../../nios2-elf/lib\libc.a(lib_a-mallocr.o)
                0x000145fc                __malloc_trim_threshold
                0x00014600                __malloc_sbrk_base
 .sdata         0x00014604       0x14 ../FPGA_Lab4_Software_bsp/\libhal_bsp.a(alt_dev.o)
                0x00014604                alt_fs_list
                0x0001460c                alt_dev_list
                0x00014614                alt_max_fd
 .sdata         0x00014618        0x4 ../FPGA_Lab4_Software_bsp/\libhal_bsp.a(alt_errno.o)
                0x00014618                alt_errno
 .sdata         0x0001461c        0x4 ../FPGA_Lab4_Software_bsp/\libhal_bsp.a(alt_irq_vars.o)
                0x0001461c                alt_priority_mask
 .sdata         0x00014620        0x4 ../FPGA_Lab4_Software_bsp/\libhal_bsp.a(alt_sbrk.o)
 .sdata         0x00014624        0x8 ../FPGA_Lab4_Software_bsp/\libhal_bsp.a(alt_tick.o)
                0x00014624                alt_alarm_list
 *(.sdata2 .sdata2.* .gnu.linkonce.s2.*)
                0x0001462c                . = ALIGN (0x4)
                0x0001462c                _edata = ABSOLUTE (.)
                0x0001462c                PROVIDE (edata, ABSOLUTE (.))
                0x0001462c                PROVIDE (__ram_rwdata_end, ABSOLUTE (.))
                0x0001462c                PROVIDE (__flash_rwdata_start, LOADADDR (.rwdata))

.bss            0x000161a0   0x186d7c
                0x000161a0                __bss_start = ABSOLUTE (.)
                0x000161a0                PROVIDE (__sbss_start, ABSOLUTE (.))
                0x000161a0                PROVIDE (___sbss_start, ABSOLUTE (.))
 *(.dynsbss)
 *(.sbss .sbss.* .gnu.linkonce.sb.*)
 .sbss          0x000161a0        0x4 obj/default/PS2_ISR.o
                0x000161a0                count
 .sbss          0x000161a4        0x4 obj/default/PS2_ISR.o
                0x000161a4                flag
 .sbss          0x000161a8        0x4 obj/default/audio_ISR.o
                0x000161a8                k
 .sbss          0x000161ac       0x14 obj/default/globals.o
                0x000161ac                byte2
                0x000161ad                byte3
                0x000161ae                copy_byte3
                0x000161af                byte1
                0x000161b0                copy_byte1
                0x000161b1                copy_byte2
                0x000161b4                timeout
                0x000161b8                buf_index_play
                0x000161bc                buf_index_record
 .sbss          0x000161c0       0x48 obj/default/media_interrupt_HAL.o
                0x000161c0                echo
                0x000161c4                mouse_width
                0x000161c8                prev_y_mouse
                0x000161cc                y_mouse
                0x000161d0                flag_denoise
                0x000161d4                prev_y_mouse_front
                0x000161d8                prev_y_mouse_back
                0x000161dc                max_y_mouse
                0x000161e0                prev_x_mouse
                0x000161e4                max_x_mouse
                0x000161e8                flag_play
                0x000161ec                right_button_click
                0x000161f0                left_button_click
                0x000161f4                prev_x_mouse_back
                0x000161f8                pixel_buffer_dev
                0x000161fc                x_mouse
                0x00016200                middle_button_click
                0x00016204                prev_x_mouse_front
 .sbss          0x00016208        0xc d:/modelsim_ase/quartus/quartus cyclone ii/nios2eds/bin/gnu/h-i686-mingw32/bin/../lib/gcc/nios2-elf/4.1.2/../../../../nios2-elf/lib\libc.a(lib_a-locale.o)
                0x00016208                __nlocale_changed
                0x0001620c                __mlocale_changed
                0x00016210                _PathLocale
 .sbss          0x00016214        0xc d:/modelsim_ase/quartus/quartus cyclone ii/nios2eds/bin/gnu/h-i686-mingw32/bin/../lib/gcc/nios2-elf/4.1.2/../../../../nios2-elf/lib\libc.a(lib_a-mallocr.o)
                0x00016214                __malloc_top_pad
                0x00016218                __malloc_max_sbrked_mem
                0x0001621c                __malloc_max_total_mem
 .sbss          0x00016220        0x4 d:/modelsim_ase/quartus/quartus cyclone ii/nios2eds/bin/gnu/h-i686-mingw32/bin/../lib/gcc/nios2-elf/4.1.2/../../../../nios2-elf/lib\libc.a(lib_a-int_errno.o)
                0x00016220                errno
 .sbss          0x00016224        0x4 ../FPGA_Lab4_Software_bsp/\libhal_bsp.a(alt_irq_vars.o)
                0x00016224                alt_irq_active
 .sbss          0x00016228        0xc ../FPGA_Lab4_Software_bsp/\libhal_bsp.a(alt_main.o)
                0x00016228                alt_argc
                0x0001622c                alt_argv
                0x00016230                alt_envp
 .sbss          0x00016234        0x8 ../FPGA_Lab4_Software_bsp/\libhal_bsp.a(altera_avalon_timer_vars.o)
                0x00016234                altera_avalon_timer_ts_base
                0x00016238                altera_avalon_timer_ts_freq
 .sbss          0x0001623c        0x8 ../FPGA_Lab4_Software_bsp/\libhal_bsp.a(alt_tick.o)
                0x0001623c                _alt_tick_rate
                0x00016240                _alt_nticks
 *(.sbss2 .sbss2.* .gnu.linkonce.sb2.*)
 *(.scommon)
                0x00016244                PROVIDE (__sbss_end, ABSOLUTE (.))
                0x00016244                PROVIDE (___sbss_end, ABSOLUTE (.))
 *(.dynbss)
 *(.bss .bss.* .gnu.linkonce.b.*)
 .bss           0x00016244        0x0 ../FPGA_Lab4_Software_bsp//obj/HAL/src/crt0.o
 .bss           0x00016244        0x0 obj/default/PS2_ISR.o
 .bss           0x00016244        0x0 obj/default/audio_ISR.o
 .bss           0x00016244        0x0 obj/default/globals.o
 .bss           0x00016244        0x0 obj/default/interval_timer_ISR.o
 .bss           0x00016244        0x0 obj/default/media_interrupt_HAL.o
 .bss           0x00016244        0x0 obj/default/pushbutton_ISR.o
 .bss           0x00016244        0x0 d:/modelsim_ase/quartus/quartus cyclone ii/nios2eds/bin/gnu/h-i686-mingw32/bin/../lib/gcc/nios2-elf/4.1.2\libgcc.a(_udivdi3.o)
 .bss           0x00016244        0x0 d:/modelsim_ase/quartus/quartus cyclone ii/nios2eds/bin/gnu/h-i686-mingw32/bin/../lib/gcc/nios2-elf/4.1.2\libgcc.a(_si_to_sf.o)
 .bss           0x00016244        0x0 d:/modelsim_ase/quartus/quartus cyclone ii/nios2eds/bin/gnu/h-i686-mingw32/bin/../lib/gcc/nios2-elf/4.1.2\libgcc.a(_sf_to_si.o)
 .bss           0x00016244        0x0 d:/modelsim_ase/quartus/quartus cyclone ii/nios2eds/bin/gnu/h-i686-mingw32/bin/../lib/gcc/nios2-elf/4.1.2\libgcc.a(_sf_to_df.o)
 .bss           0x00016244        0x0 d:/modelsim_ase/quartus/quartus cyclone ii/nios2eds/bin/gnu/h-i686-mingw32/bin/../lib/gcc/nios2-elf/4.1.2\libgcc.a(_usi_to_sf.o)
 .bss           0x00016244        0x0 d:/modelsim_ase/quartus/quartus cyclone ii/nios2eds/bin/gnu/h-i686-mingw32/bin/../lib/gcc/nios2-elf/4.1.2\libgcc.a(_make_df.o)
 .bss           0x00016244        0x0 d:/modelsim_ase/quartus/quartus cyclone ii/nios2eds/bin/gnu/h-i686-mingw32/bin/../lib/gcc/nios2-elf/4.1.2\libgcc.a(lib2-divmod.o)
 .bss           0x00016244        0x0 d:/modelsim_ase/quartus/quartus cyclone ii/nios2eds/bin/gnu/h-i686-mingw32/bin/../lib/gcc/nios2-elf/4.1.2\libgcc.a(_clz.o)
 .bss           0x00016244        0x0 d:/modelsim_ase/quartus/quartus cyclone ii/nios2eds/bin/gnu/h-i686-mingw32/bin/../lib/gcc/nios2-elf/4.1.2\libgcc.a(_clzsi2.o)
 .bss           0x00016244        0x0 d:/modelsim_ase/quartus/quartus cyclone ii/nios2eds/bin/gnu/h-i686-mingw32/bin/../lib/gcc/nios2-elf/4.1.2\libgcc.a(_pack_sf.o)
 .bss           0x00016244        0x0 d:/modelsim_ase/quartus/quartus cyclone ii/nios2eds/bin/gnu/h-i686-mingw32/bin/../lib/gcc/nios2-elf/4.1.2\libgcc.a(_unpack_sf.o)
 .bss           0x00016244        0x0 d:/modelsim_ase/quartus/quartus cyclone ii/nios2eds/bin/gnu/h-i686-mingw32/bin/../lib/gcc/nios2-elf/4.1.2\libgcc.a(_pack_df.o)
 .bss           0x00016244        0x0 d:/modelsim_ase/quartus/quartus cyclone ii/nios2eds/bin/gnu/h-i686-mingw32/bin/../lib/gcc/nios2-elf/4.1.2/../../../../nios2-elf/lib\libc.a(lib_a-memcpy.o)
 .bss           0x00016244        0x0 d:/modelsim_ase/quartus/quartus cyclone ii/nios2eds/bin/gnu/h-i686-mingw32/bin/../lib/gcc/nios2-elf/4.1.2/../../../../nios2-elf/lib\libc.a(lib_a-memset.o)
 .bss           0x00016244        0x0 d:/modelsim_ase/quartus/quartus cyclone ii/nios2eds/bin/gnu/h-i686-mingw32/bin/../lib/gcc/nios2-elf/4.1.2/../../../../nios2-elf/lib\libc.a(lib_a-printf.o)
 .bss           0x00016244        0x0 d:/modelsim_ase/quartus/quartus cyclone ii/nios2eds/bin/gnu/h-i686-mingw32/bin/../lib/gcc/nios2-elf/4.1.2/../../../../nios2-elf/lib\libc.a(lib_a-vfprintf.o)
 .bss           0x00016244        0x0 d:/modelsim_ase/quartus/quartus cyclone ii/nios2eds/bin/gnu/h-i686-mingw32/bin/../lib/gcc/nios2-elf/4.1.2/../../../../nios2-elf/lib\libc.a(lib_a-wsetup.o)
 .bss           0x00016244        0x0 d:/modelsim_ase/quartus/quartus cyclone ii/nios2eds/bin/gnu/h-i686-mingw32/bin/../lib/gcc/nios2-elf/4.1.2/../../../../nios2-elf/lib\libc.a(lib_a-dtoa.o)
 .bss           0x00016244        0x0 d:/modelsim_ase/quartus/quartus cyclone ii/nios2eds/bin/gnu/h-i686-mingw32/bin/../lib/gcc/nios2-elf/4.1.2/../../../../nios2-elf/lib\libc.a(lib_a-fflush.o)
 .bss           0x00016244        0x0 d:/modelsim_ase/quartus/quartus cyclone ii/nios2eds/bin/gnu/h-i686-mingw32/bin/../lib/gcc/nios2-elf/4.1.2/../../../../nios2-elf/lib\libc.a(lib_a-findfp.o)
 .bss           0x00016244        0x0 d:/modelsim_ase/quartus/quartus cyclone ii/nios2eds/bin/gnu/h-i686-mingw32/bin/../lib/gcc/nios2-elf/4.1.2/../../../../nios2-elf/lib\libc.a(lib_a-freer.o)
 .bss           0x00016244        0x0 d:/modelsim_ase/quartus/quartus cyclone ii/nios2eds/bin/gnu/h-i686-mingw32/bin/../lib/gcc/nios2-elf/4.1.2/../../../../nios2-elf/lib\libc.a(lib_a-fvwrite.o)
 .bss           0x00016244        0x0 d:/modelsim_ase/quartus/quartus cyclone ii/nios2eds/bin/gnu/h-i686-mingw32/bin/../lib/gcc/nios2-elf/4.1.2/../../../../nios2-elf/lib\libc.a(lib_a-fwalk.o)
 .bss           0x00016244        0x0 d:/modelsim_ase/quartus/quartus cyclone ii/nios2eds/bin/gnu/h-i686-mingw32/bin/../lib/gcc/nios2-elf/4.1.2/../../../../nios2-elf/lib\libc.a(lib_a-impure.o)
 .bss           0x00016244        0x0 d:/modelsim_ase/quartus/quartus cyclone ii/nios2eds/bin/gnu/h-i686-mingw32/bin/../lib/gcc/nios2-elf/4.1.2/../../../../nios2-elf/lib\libc.a(lib_a-locale.o)
 .bss           0x00016244        0x0 d:/modelsim_ase/quartus/quartus cyclone ii/nios2eds/bin/gnu/h-i686-mingw32/bin/../lib/gcc/nios2-elf/4.1.2/../../../../nios2-elf/lib\libc.a(lib_a-makebuf.o)
 .bss           0x00016244       0x28 d:/modelsim_ase/quartus/quartus cyclone ii/nios2eds/bin/gnu/h-i686-mingw32/bin/../lib/gcc/nios2-elf/4.1.2/../../../../nios2-elf/lib\libc.a(lib_a-mallocr.o)
                0x00016244                __malloc_current_mallinfo
 .bss           0x0001626c        0x0 d:/modelsim_ase/quartus/quartus cyclone ii/nios2eds/bin/gnu/h-i686-mingw32/bin/../lib/gcc/nios2-elf/4.1.2/../../../../nios2-elf/lib\libc.a(lib_a-memchr.o)
 .bss           0x0001626c        0x0 d:/modelsim_ase/quartus/quartus cyclone ii/nios2eds/bin/gnu/h-i686-mingw32/bin/../lib/gcc/nios2-elf/4.1.2/../../../../nios2-elf/lib\libc.a(lib_a-memmove.o)
 .bss           0x0001626c        0x0 d:/modelsim_ase/quartus/quartus cyclone ii/nios2eds/bin/gnu/h-i686-mingw32/bin/../lib/gcc/nios2-elf/4.1.2/../../../../nios2-elf/lib\libc.a(lib_a-mprec.o)
 .bss           0x0001626c        0x0 d:/modelsim_ase/quartus/quartus cyclone ii/nios2eds/bin/gnu/h-i686-mingw32/bin/../lib/gcc/nios2-elf/4.1.2/../../../../nios2-elf/lib\libc.a(lib_a-reallocr.o)
 .bss           0x0001626c        0x0 d:/modelsim_ase/quartus/quartus cyclone ii/nios2eds/bin/gnu/h-i686-mingw32/bin/../lib/gcc/nios2-elf/4.1.2/../../../../nios2-elf/lib\libc.a(lib_a-s_isinfd.o)
 .bss           0x0001626c        0x0 d:/modelsim_ase/quartus/quartus cyclone ii/nios2eds/bin/gnu/h-i686-mingw32/bin/../lib/gcc/nios2-elf/4.1.2/../../../../nios2-elf/lib\libc.a(lib_a-s_isnand.o)
 .bss           0x0001626c        0x0 d:/modelsim_ase/quartus/quartus cyclone ii/nios2eds/bin/gnu/h-i686-mingw32/bin/../lib/gcc/nios2-elf/4.1.2/../../../../nios2-elf/lib\libc.a(lib_a-sbrkr.o)
 .bss           0x0001626c        0x0 d:/modelsim_ase/quartus/quartus cyclone ii/nios2eds/bin/gnu/h-i686-mingw32/bin/../lib/gcc/nios2-elf/4.1.2/../../../../nios2-elf/lib\libc.a(lib_a-stdio.o)
 .bss           0x0001626c        0x0 d:/modelsim_ase/quartus/quartus cyclone ii/nios2eds/bin/gnu/h-i686-mingw32/bin/../lib/gcc/nios2-elf/4.1.2/../../../../nios2-elf/lib\libc.a(lib_a-strcmp.o)
 .bss           0x0001626c        0x0 d:/modelsim_ase/quartus/quartus cyclone ii/nios2eds/bin/gnu/h-i686-mingw32/bin/../lib/gcc/nios2-elf/4.1.2/../../../../nios2-elf/lib\libc.a(lib_a-strlen.o)
 .bss           0x0001626c        0x0 d:/modelsim_ase/quartus/quartus cyclone ii/nios2eds/bin/gnu/h-i686-mingw32/bin/../lib/gcc/nios2-elf/4.1.2/../../../../nios2-elf/lib\libc.a(lib_a-writer.o)
 .bss           0x0001626c        0x0 d:/modelsim_ase/quartus/quartus cyclone ii/nios2eds/bin/gnu/h-i686-mingw32/bin/../lib/gcc/nios2-elf/4.1.2/../../../../nios2-elf/lib\libc.a(lib_a-callocr.o)
 .bss           0x0001626c        0x0 d:/modelsim_ase/quartus/quartus cyclone ii/nios2eds/bin/gnu/h-i686-mingw32/bin/../lib/gcc/nios2-elf/4.1.2/../../../../nios2-elf/lib\libc.a(lib_a-closer.o)
 .bss           0x0001626c        0x0 d:/modelsim_ase/quartus/quartus cyclone ii/nios2eds/bin/gnu/h-i686-mingw32/bin/../lib/gcc/nios2-elf/4.1.2/../../../../nios2-elf/lib\libc.a(lib_a-fclose.o)
 .bss           0x0001626c        0x0 d:/modelsim_ase/quartus/quartus cyclone ii/nios2eds/bin/gnu/h-i686-mingw32/bin/../lib/gcc/nios2-elf/4.1.2/../../../../nios2-elf/lib\libc.a(lib_a-fstatr.o)
 .bss           0x0001626c        0x0 d:/modelsim_ase/quartus/quartus cyclone ii/nios2eds/bin/gnu/h-i686-mingw32/bin/../lib/gcc/nios2-elf/4.1.2/../../../../nios2-elf/lib\libc.a(lib_a-int_errno.o)
 .bss           0x0001626c        0x0 d:/modelsim_ase/quartus/quartus cyclone ii/nios2eds/bin/gnu/h-i686-mingw32/bin/../lib/gcc/nios2-elf/4.1.2/../../../../nios2-elf/lib\libc.a(lib_a-isattyr.o)
 .bss           0x0001626c        0x0 d:/modelsim_ase/quartus/quartus cyclone ii/nios2eds/bin/gnu/h-i686-mingw32/bin/../lib/gcc/nios2-elf/4.1.2/../../../../nios2-elf/lib\libc.a(lib_a-lseekr.o)
 .bss           0x0001626c        0x0 d:/modelsim_ase/quartus/quartus cyclone ii/nios2eds/bin/gnu/h-i686-mingw32/bin/../lib/gcc/nios2-elf/4.1.2/../../../../nios2-elf/lib\libc.a(lib_a-readr.o)
 .bss           0x0001626c        0x0 d:/modelsim_ase/quartus/quartus cyclone ii/nios2eds/bin/gnu/h-i686-mingw32/bin/../lib/gcc/nios2-elf/4.1.2\libgcc.a(_umoddi3.o)
 .bss           0x0001626c        0x0 d:/modelsim_ase/quartus/quartus cyclone ii/nios2eds/bin/gnu/h-i686-mingw32/bin/../lib/gcc/nios2-elf/4.1.2\libgcc.a(_addsub_df.o)
 .bss           0x0001626c        0x0 d:/modelsim_ase/quartus/quartus cyclone ii/nios2eds/bin/gnu/h-i686-mingw32/bin/../lib/gcc/nios2-elf/4.1.2\libgcc.a(_mul_df.o)
 .bss           0x0001626c        0x0 d:/modelsim_ase/quartus/quartus cyclone ii/nios2eds/bin/gnu/h-i686-mingw32/bin/../lib/gcc/nios2-elf/4.1.2\libgcc.a(_div_df.o)
 .bss           0x0001626c        0x0 d:/modelsim_ase/quartus/quartus cyclone ii/nios2eds/bin/gnu/h-i686-mingw32/bin/../lib/gcc/nios2-elf/4.1.2\libgcc.a(_eq_df.o)
 .bss           0x0001626c        0x0 d:/modelsim_ase/quartus/quartus cyclone ii/nios2eds/bin/gnu/h-i686-mingw32/bin/../lib/gcc/nios2-elf/4.1.2\libgcc.a(_ne_df.o)
 .bss           0x0001626c        0x0 d:/modelsim_ase/quartus/quartus cyclone ii/nios2eds/bin/gnu/h-i686-mingw32/bin/../lib/gcc/nios2-elf/4.1.2\libgcc.a(_gt_df.o)
 .bss           0x0001626c        0x0 d:/modelsim_ase/quartus/quartus cyclone ii/nios2eds/bin/gnu/h-i686-mingw32/bin/../lib/gcc/nios2-elf/4.1.2\libgcc.a(_ge_df.o)
 .bss           0x0001626c        0x0 d:/modelsim_ase/quartus/quartus cyclone ii/nios2eds/bin/gnu/h-i686-mingw32/bin/../lib/gcc/nios2-elf/4.1.2\libgcc.a(_lt_df.o)
 .bss           0x0001626c        0x0 d:/modelsim_ase/quartus/quartus cyclone ii/nios2eds/bin/gnu/h-i686-mingw32/bin/../lib/gcc/nios2-elf/4.1.2\libgcc.a(_si_to_df.o)
 .bss           0x0001626c        0x0 d:/modelsim_ase/quartus/quartus cyclone ii/nios2eds/bin/gnu/h-i686-mingw32/bin/../lib/gcc/nios2-elf/4.1.2\libgcc.a(_df_to_si.o)
 .bss           0x0001626c        0x0 d:/modelsim_ase/quartus/quartus cyclone ii/nios2eds/bin/gnu/h-i686-mingw32/bin/../lib/gcc/nios2-elf/4.1.2\libgcc.a(_thenan_df.o)
 .bss           0x0001626c        0x0 d:/modelsim_ase/quartus/quartus cyclone ii/nios2eds/bin/gnu/h-i686-mingw32/bin/../lib/gcc/nios2-elf/4.1.2\libgcc.a(_usi_to_df.o)
 .bss           0x0001626c        0x0 d:/modelsim_ase/quartus/quartus cyclone ii/nios2eds/bin/gnu/h-i686-mingw32/bin/../lib/gcc/nios2-elf/4.1.2\libgcc.a(_muldi3.o)
 .bss           0x0001626c        0x0 d:/modelsim_ase/quartus/quartus cyclone ii/nios2eds/bin/gnu/h-i686-mingw32/bin/../lib/gcc/nios2-elf/4.1.2\libgcc.a(_unpack_df.o)
 .bss           0x0001626c        0x0 d:/modelsim_ase/quartus/quartus cyclone ii/nios2eds/bin/gnu/h-i686-mingw32/bin/../lib/gcc/nios2-elf/4.1.2\libgcc.a(_fpcmp_parts_df.o)
 .bss           0x0001626c        0x0 ../FPGA_Lab4_Software_bsp/\libhal_bsp.a(alt_close.o)
 .bss           0x0001626c        0x0 ../FPGA_Lab4_Software_bsp/\libhal_bsp.a(alt_dev.o)
 .bss           0x0001626c        0x0 ../FPGA_Lab4_Software_bsp/\libhal_bsp.a(alt_errno.o)
 .bss           0x0001626c        0x0 ../FPGA_Lab4_Software_bsp/\libhal_bsp.a(alt_fstat.o)
 .bss           0x0001626c        0x0 ../FPGA_Lab4_Software_bsp/\libhal_bsp.a(alt_irq_register.o)
 .bss           0x0001626c        0x0 ../FPGA_Lab4_Software_bsp/\libhal_bsp.a(alt_irq_vars.o)
 .bss           0x0001626c        0x0 ../FPGA_Lab4_Software_bsp/\libhal_bsp.a(alt_isatty.o)
 .bss           0x0001626c        0x0 ../FPGA_Lab4_Software_bsp/\libhal_bsp.a(alt_load.o)
 .bss           0x0001626c        0x0 ../FPGA_Lab4_Software_bsp/\libhal_bsp.a(alt_lseek.o)
 .bss           0x0001626c        0x0 ../FPGA_Lab4_Software_bsp/\libhal_bsp.a(alt_main.o)
 .bss           0x0001626c        0x0 ../FPGA_Lab4_Software_bsp/\libhal_bsp.a(alt_malloc_lock.o)
 .bss           0x0001626c        0x0 ../FPGA_Lab4_Software_bsp/\libhal_bsp.a(alt_printf.o)
 .bss           0x0001626c        0x0 ../FPGA_Lab4_Software_bsp/\libhal_bsp.a(alt_putchar.o)
 .bss           0x0001626c        0x0 ../FPGA_Lab4_Software_bsp/\libhal_bsp.a(alt_read.o)
 .bss           0x0001626c        0x0 ../FPGA_Lab4_Software_bsp/\libhal_bsp.a(alt_release_fd.o)
 .bss           0x0001626c        0x0 ../FPGA_Lab4_Software_bsp/\libhal_bsp.a(alt_sbrk.o)
 .bss           0x0001626c        0x0 ../FPGA_Lab4_Software_bsp/\libhal_bsp.a(alt_write.o)
 .bss           0x0001626c        0x0 ../FPGA_Lab4_Software_bsp/\libhal_bsp.a(alt_sys_init.o)
 .bss           0x0001626c        0x0 ../FPGA_Lab4_Software_bsp/\libhal_bsp.a(altera_avalon_jtag_uart_fd.o)
 .bss           0x0001626c        0x0 ../FPGA_Lab4_Software_bsp/\libhal_bsp.a(altera_avalon_jtag_uart_init.o)
 .bss           0x0001626c        0x0 ../FPGA_Lab4_Software_bsp/\libhal_bsp.a(altera_avalon_jtag_uart_ioctl.o)
 .bss           0x0001626c        0x0 ../FPGA_Lab4_Software_bsp/\libhal_bsp.a(altera_avalon_jtag_uart_read.o)
 .bss           0x0001626c        0x0 ../FPGA_Lab4_Software_bsp/\libhal_bsp.a(altera_avalon_jtag_uart_write.o)
 .bss           0x0001626c        0x0 ../FPGA_Lab4_Software_bsp/\libhal_bsp.a(altera_avalon_timer_ts.o)
 .bss           0x0001626c        0x0 ../FPGA_Lab4_Software_bsp/\libhal_bsp.a(altera_avalon_timer_vars.o)
 .bss           0x0001626c        0x0 ../FPGA_Lab4_Software_bsp/\libhal_bsp.a(altera_up_avalon_audio.o)
 .bss           0x0001626c        0x0 ../FPGA_Lab4_Software_bsp/\libhal_bsp.a(altera_up_avalon_character_lcd.o)
 .bss           0x0001626c        0x0 ../FPGA_Lab4_Software_bsp/\libhal_bsp.a(altera_up_avalon_parallel_port.o)
 .bss           0x0001626c        0x0 ../FPGA_Lab4_Software_bsp/\libhal_bsp.a(altera_up_avalon_ps2.o)
 .bss           0x0001626c        0x0 ../FPGA_Lab4_Software_bsp/\libhal_bsp.a(altera_up_avalon_video_character_buffer_with_dma.o)
 .bss           0x0001626c        0x0 ../FPGA_Lab4_Software_bsp/\libhal_bsp.a(altera_up_avalon_video_pixel_buffer_dma.o)
 .bss           0x0001626c        0x0 ../FPGA_Lab4_Software_bsp/\libhal_bsp.a(alt_alarm_start.o)
 .bss           0x0001626c        0x0 ../FPGA_Lab4_Software_bsp/\libhal_bsp.a(alt_dcache_flush_all.o)
 .bss           0x0001626c        0x0 ../FPGA_Lab4_Software_bsp/\libhal_bsp.a(alt_dev_llist_insert.o)
 .bss           0x0001626c        0x0 ../FPGA_Lab4_Software_bsp/\libhal_bsp.a(alt_do_ctors.o)
 .bss           0x0001626c        0x0 ../FPGA_Lab4_Software_bsp/\libhal_bsp.a(alt_do_dtors.o)
 .bss           0x0001626c        0x0 ../FPGA_Lab4_Software_bsp/\libhal_bsp.a(alt_find_dev.o)
 .bss           0x0001626c        0x0 ../FPGA_Lab4_Software_bsp/\libhal_bsp.a(alt_icache_flush_all.o)
 .bss           0x0001626c        0x0 ../FPGA_Lab4_Software_bsp/\libhal_bsp.a(alt_iic.o)
 .bss           0x0001626c        0x0 ../FPGA_Lab4_Software_bsp/\libhal_bsp.a(alt_iic_isr_register.o)
 .bss           0x0001626c        0x0 ../FPGA_Lab4_Software_bsp/\libhal_bsp.a(alt_io_redirect.o)
 .bss           0x0001626c        0x0 ../FPGA_Lab4_Software_bsp/\libhal_bsp.a(alt_irq_entry.o)
 .bss           0x0001626c        0x0 ../FPGA_Lab4_Software_bsp/\libhal_bsp.a(alt_irq_handler.o)
 .bss           0x0001626c        0x0 ../FPGA_Lab4_Software_bsp/\libhal_bsp.a(alt_open.o)
 .bss           0x0001626c        0x0 ../FPGA_Lab4_Software_bsp/\libhal_bsp.a(alt_tick.o)
 .bss           0x0001626c        0x0 ../FPGA_Lab4_Software_bsp/\libhal_bsp.a(altera_nios2_qsys_irq.o)
 .bss           0x0001626c        0x0 ../FPGA_Lab4_Software_bsp/\libhal_bsp.a(alt_exception_entry.o)
 .bss           0x0001626c        0x0 ../FPGA_Lab4_Software_bsp/\libhal_bsp.a(alt_find_file.o)
 .bss           0x0001626c        0x0 ../FPGA_Lab4_Software_bsp/\libhal_bsp.a(alt_get_fd.o)
 .bss           0x0001626c        0x0 ../FPGA_Lab4_Software_bsp/\libhal_bsp.a(alt_icache_flush.o)
 .bss           0x0001626c        0x0 d:/modelsim_ase/quartus/quartus cyclone ii/nios2eds/bin/gnu/h-i686-mingw32/bin/../lib/gcc/nios2-elf/4.1.2/../../../../nios2-elf/lib\libc.a(lib_a-atexit.o)
 .bss           0x0001626c        0x0 d:/modelsim_ase/quartus/quartus cyclone ii/nios2eds/bin/gnu/h-i686-mingw32/bin/../lib/gcc/nios2-elf/4.1.2/../../../../nios2-elf/lib\libc.a(lib_a-exit.o)
 .bss           0x0001626c        0x0 d:/modelsim_ase/quartus/quartus cyclone ii/nios2eds/bin/gnu/h-i686-mingw32/bin/../lib/gcc/nios2-elf/4.1.2/../../../../nios2-elf/lib\libc.a(lib_a-memcmp.o)
 .bss           0x0001626c        0x0 d:/modelsim_ase/quartus/quartus cyclone ii/nios2eds/bin/gnu/h-i686-mingw32/bin/../lib/gcc/nios2-elf/4.1.2/../../../../nios2-elf/lib\libc.a(lib_a-putc.o)
 .bss           0x0001626c        0x0 d:/modelsim_ase/quartus/quartus cyclone ii/nios2eds/bin/gnu/h-i686-mingw32/bin/../lib/gcc/nios2-elf/4.1.2/../../../../nios2-elf/lib\libc.a(lib_a-wbuf.o)
 .bss           0x0001626c        0x0 d:/modelsim_ase/quartus/quartus cyclone ii/nios2eds/bin/gnu/h-i686-mingw32/bin/../lib/gcc/nios2-elf/4.1.2/../../../../nios2-elf/lib\libc.a(lib_a-__atexit.o)
 .bss           0x0001626c        0x0 d:/modelsim_ase/quartus/quartus cyclone ii/nios2eds/bin/gnu/h-i686-mingw32/bin/../lib/gcc/nios2-elf/4.1.2/../../../../nios2-elf/lib\libc.a(lib_a-__call_atexit.o)
 .bss           0x0001626c        0x0 ../FPGA_Lab4_Software_bsp/\libhal_bsp.a(alt_exit.o)
 *(COMMON)
 COMMON         0x0001626c   0x186a00 obj/default/audio_ISR.o
                0x0001626c                record_l_buf
                0x00077cec                play_l_buf
                0x000d976c                record_r_buf
                0x0013b1ec                play_r_buf
 COMMON         0x0019cc6c       0x20 obj/default/globals.o
                0x0019cc6c                up_dev
 COMMON         0x0019cc8c      0x100 ../FPGA_Lab4_Software_bsp/\libhal_bsp.a(alt_irq_handler.o)
                0x0019cc8c                alt_irq
 COMMON         0x0019cd8c      0x190 d:/modelsim_ase/quartus/quartus cyclone ii/nios2eds/bin/gnu/h-i686-mingw32/bin/../lib/gcc/nios2-elf/4.1.2/../../../../nios2-elf/lib\libc.a(lib_a-atexit.o)
                0x0019cd8c                _atexit0
                0x0019cf1c                . = ALIGN (0x4)
                0x0019cf1c                __bss_end = ABSOLUTE (.)

.SDRAM          0x0019cf1c        0x0
                0x0019cf1c                PROVIDE (_alt_partition_SDRAM_start, ABSOLUTE (.))
 *(.SDRAM. SDRAM.*)
                0x0019cf1c                . = ALIGN (0x4)
                0x0019cf1c                PROVIDE (_alt_partition_SDRAM_end, ABSOLUTE (.))
                0x0019cf1c                _end = ABSOLUTE (.)
                0x0019cf1c                end = ABSOLUTE (.)
                0x0019cf1c                __alt_stack_base = ABSOLUTE (.)
                0x0019cf1c                PROVIDE (_alt_partition_SDRAM_load_addr, LOADADDR (.SDRAM))

.Flash_flash_data
                0x0c000000        0x0 load address 0x0019cf1c
                0x0c000000                PROVIDE (_alt_partition_Flash_flash_data_start, ABSOLUTE (.))
 *(.Flash_flash_data. Flash_flash_data.*)
                0x0c000000                . = ALIGN (0x4)
                0x0c000000                PROVIDE (_alt_partition_Flash_flash_data_end, ABSOLUTE (.))
                0x0019cf1c                PROVIDE (_alt_partition_Flash_flash_data_load_addr, LOADADDR (.Flash_flash_data))

.stab
 *(.stab)

.stabstr
 *(.stabstr)

.stab.excl
 *(.stab.excl)

.stab.exclstr
 *(.stab.exclstr)

.stab.index
 *(.stab.index)

.stab.indexstr
 *(.stab.indexstr)

.comment        0x00000000       0x26
 *(.comment)
 .comment       0x00000000       0x26 obj/default/PS2_ISR.o
                                 0x27 (size before relaxing)
 .comment       0x00000000       0x27 obj/default/audio_ISR.o
 .comment       0x00000000       0x27 obj/default/globals.o
 .comment       0x00000000       0x27 obj/default/interval_timer_ISR.o
 .comment       0x00000000       0x27 obj/default/media_interrupt_HAL.o
 .comment       0x00000000       0x27 obj/default/pushbutton_ISR.o
 .comment       0x00000000       0x27 d:/modelsim_ase/quartus/quartus cyclone ii/nios2eds/bin/gnu/h-i686-mingw32/bin/../lib/gcc/nios2-elf/4.1.2\libgcc.a(_udivdi3.o)
 .comment       0x00000000       0x27 d:/modelsim_ase/quartus/quartus cyclone ii/nios2eds/bin/gnu/h-i686-mingw32/bin/../lib/gcc/nios2-elf/4.1.2\libgcc.a(_si_to_sf.o)
 .comment       0x00000000       0x27 d:/modelsim_ase/quartus/quartus cyclone ii/nios2eds/bin/gnu/h-i686-mingw32/bin/../lib/gcc/nios2-elf/4.1.2\libgcc.a(_sf_to_si.o)
 .comment       0x00000000       0x27 d:/modelsim_ase/quartus/quartus cyclone ii/nios2eds/bin/gnu/h-i686-mingw32/bin/../lib/gcc/nios2-elf/4.1.2\libgcc.a(_sf_to_df.o)
 .comment       0x00000000       0x27 d:/modelsim_ase/quartus/quartus cyclone ii/nios2eds/bin/gnu/h-i686-mingw32/bin/../lib/gcc/nios2-elf/4.1.2\libgcc.a(_usi_to_sf.o)
 .comment       0x00000000       0x27 d:/modelsim_ase/quartus/quartus cyclone ii/nios2eds/bin/gnu/h-i686-mingw32/bin/../lib/gcc/nios2-elf/4.1.2\libgcc.a(_make_df.o)
 .comment       0x00000000       0x27 d:/modelsim_ase/quartus/quartus cyclone ii/nios2eds/bin/gnu/h-i686-mingw32/bin/../lib/gcc/nios2-elf/4.1.2\libgcc.a(lib2-divmod.o)
 .comment       0x00000000       0x27 d:/modelsim_ase/quartus/quartus cyclone ii/nios2eds/bin/gnu/h-i686-mingw32/bin/../lib/gcc/nios2-elf/4.1.2\libgcc.a(_clz.o)
 .comment       0x00000000       0x27 d:/modelsim_ase/quartus/quartus cyclone ii/nios2eds/bin/gnu/h-i686-mingw32/bin/../lib/gcc/nios2-elf/4.1.2\libgcc.a(_clzsi2.o)
 .comment       0x00000000       0x27 d:/modelsim_ase/quartus/quartus cyclone ii/nios2eds/bin/gnu/h-i686-mingw32/bin/../lib/gcc/nios2-elf/4.1.2\libgcc.a(_pack_sf.o)
 .comment       0x00000000       0x27 d:/modelsim_ase/quartus/quartus cyclone ii/nios2eds/bin/gnu/h-i686-mingw32/bin/../lib/gcc/nios2-elf/4.1.2\libgcc.a(_unpack_sf.o)
 .comment       0x00000000       0x27 d:/modelsim_ase/quartus/quartus cyclone ii/nios2eds/bin/gnu/h-i686-mingw32/bin/../lib/gcc/nios2-elf/4.1.2\libgcc.a(_pack_df.o)
 .comment       0x00000000       0x27 d:/modelsim_ase/quartus/quartus cyclone ii/nios2eds/bin/gnu/h-i686-mingw32/bin/../lib/gcc/nios2-elf/4.1.2/../../../../nios2-elf/lib\libc.a(lib_a-memcpy.o)
 .comment       0x00000000       0x27 d:/modelsim_ase/quartus/quartus cyclone ii/nios2eds/bin/gnu/h-i686-mingw32/bin/../lib/gcc/nios2-elf/4.1.2/../../../../nios2-elf/lib\libc.a(lib_a-memset.o)
 .comment       0x00000000       0x27 d:/modelsim_ase/quartus/quartus cyclone ii/nios2eds/bin/gnu/h-i686-mingw32/bin/../lib/gcc/nios2-elf/4.1.2/../../../../nios2-elf/lib\libc.a(lib_a-printf.o)
 .comment       0x00000000       0x27 d:/modelsim_ase/quartus/quartus cyclone ii/nios2eds/bin/gnu/h-i686-mingw32/bin/../lib/gcc/nios2-elf/4.1.2/../../../../nios2-elf/lib\libc.a(lib_a-vfprintf.o)
 .comment       0x00000000       0x27 d:/modelsim_ase/quartus/quartus cyclone ii/nios2eds/bin/gnu/h-i686-mingw32/bin/../lib/gcc/nios2-elf/4.1.2/../../../../nios2-elf/lib\libc.a(lib_a-wsetup.o)
 .comment       0x00000000       0x27 d:/modelsim_ase/quartus/quartus cyclone ii/nios2eds/bin/gnu/h-i686-mingw32/bin/../lib/gcc/nios2-elf/4.1.2/../../../../nios2-elf/lib\libc.a(lib_a-dtoa.o)
 .comment       0x00000000       0x27 d:/modelsim_ase/quartus/quartus cyclone ii/nios2eds/bin/gnu/h-i686-mingw32/bin/../lib/gcc/nios2-elf/4.1.2/../../../../nios2-elf/lib\libc.a(lib_a-fflush.o)
 .comment       0x00000000       0x27 d:/modelsim_ase/quartus/quartus cyclone ii/nios2eds/bin/gnu/h-i686-mingw32/bin/../lib/gcc/nios2-elf/4.1.2/../../../../nios2-elf/lib\libc.a(lib_a-findfp.o)
 .comment       0x00000000       0x27 d:/modelsim_ase/quartus/quartus cyclone ii/nios2eds/bin/gnu/h-i686-mingw32/bin/../lib/gcc/nios2-elf/4.1.2/../../../../nios2-elf/lib\libc.a(lib_a-freer.o)
 .comment       0x00000000       0x27 d:/modelsim_ase/quartus/quartus cyclone ii/nios2eds/bin/gnu/h-i686-mingw32/bin/../lib/gcc/nios2-elf/4.1.2/../../../../nios2-elf/lib\libc.a(lib_a-fvwrite.o)
 .comment       0x00000000       0x27 d:/modelsim_ase/quartus/quartus cyclone ii/nios2eds/bin/gnu/h-i686-mingw32/bin/../lib/gcc/nios2-elf/4.1.2/../../../../nios2-elf/lib\libc.a(lib_a-fwalk.o)
 .comment       0x00000000       0x27 d:/modelsim_ase/quartus/quartus cyclone ii/nios2eds/bin/gnu/h-i686-mingw32/bin/../lib/gcc/nios2-elf/4.1.2/../../../../nios2-elf/lib\libc.a(lib_a-impure.o)
 .comment       0x00000000       0x27 d:/modelsim_ase/quartus/quartus cyclone ii/nios2eds/bin/gnu/h-i686-mingw32/bin/../lib/gcc/nios2-elf/4.1.2/../../../../nios2-elf/lib\libc.a(lib_a-locale.o)
 .comment       0x00000000       0x27 d:/modelsim_ase/quartus/quartus cyclone ii/nios2eds/bin/gnu/h-i686-mingw32/bin/../lib/gcc/nios2-elf/4.1.2/../../../../nios2-elf/lib\libc.a(lib_a-makebuf.o)
 .comment       0x00000000       0x27 d:/modelsim_ase/quartus/quartus cyclone ii/nios2eds/bin/gnu/h-i686-mingw32/bin/../lib/gcc/nios2-elf/4.1.2/../../../../nios2-elf/lib\libc.a(lib_a-mallocr.o)
 .comment       0x00000000       0x27 d:/modelsim_ase/quartus/quartus cyclone ii/nios2eds/bin/gnu/h-i686-mingw32/bin/../lib/gcc/nios2-elf/4.1.2/../../../../nios2-elf/lib\libc.a(lib_a-memchr.o)
 .comment       0x00000000       0x27 d:/modelsim_ase/quartus/quartus cyclone ii/nios2eds/bin/gnu/h-i686-mingw32/bin/../lib/gcc/nios2-elf/4.1.2/../../../../nios2-elf/lib\libc.a(lib_a-memmove.o)
 .comment       0x00000000       0x27 d:/modelsim_ase/quartus/quartus cyclone ii/nios2eds/bin/gnu/h-i686-mingw32/bin/../lib/gcc/nios2-elf/4.1.2/../../../../nios2-elf/lib\libc.a(lib_a-mprec.o)
 .comment       0x00000000       0x27 d:/modelsim_ase/quartus/quartus cyclone ii/nios2eds/bin/gnu/h-i686-mingw32/bin/../lib/gcc/nios2-elf/4.1.2/../../../../nios2-elf/lib\libc.a(lib_a-reallocr.o)
 .comment       0x00000000       0x27 d:/modelsim_ase/quartus/quartus cyclone ii/nios2eds/bin/gnu/h-i686-mingw32/bin/../lib/gcc/nios2-elf/4.1.2/../../../../nios2-elf/lib\libc.a(lib_a-s_isinfd.o)
 .comment       0x00000000       0x27 d:/modelsim_ase/quartus/quartus cyclone ii/nios2eds/bin/gnu/h-i686-mingw32/bin/../lib/gcc/nios2-elf/4.1.2/../../../../nios2-elf/lib\libc.a(lib_a-s_isnand.o)
 .comment       0x00000000       0x27 d:/modelsim_ase/quartus/quartus cyclone ii/nios2eds/bin/gnu/h-i686-mingw32/bin/../lib/gcc/nios2-elf/4.1.2/../../../../nios2-elf/lib\libc.a(lib_a-sbrkr.o)
 .comment       0x00000000       0x27 d:/modelsim_ase/quartus/quartus cyclone ii/nios2eds/bin/gnu/h-i686-mingw32/bin/../lib/gcc/nios2-elf/4.1.2/../../../../nios2-elf/lib\libc.a(lib_a-stdio.o)
 .comment       0x00000000       0x27 d:/modelsim_ase/quartus/quartus cyclone ii/nios2eds/bin/gnu/h-i686-mingw32/bin/../lib/gcc/nios2-elf/4.1.2/../../../../nios2-elf/lib\libc.a(lib_a-strcmp.o)
 .comment       0x00000000       0x27 d:/modelsim_ase/quartus/quartus cyclone ii/nios2eds/bin/gnu/h-i686-mingw32/bin/../lib/gcc/nios2-elf/4.1.2/../../../../nios2-elf/lib\libc.a(lib_a-strlen.o)
 .comment       0x00000000       0x27 d:/modelsim_ase/quartus/quartus cyclone ii/nios2eds/bin/gnu/h-i686-mingw32/bin/../lib/gcc/nios2-elf/4.1.2/../../../../nios2-elf/lib\libc.a(lib_a-writer.o)
 .comment       0x00000000       0x27 d:/modelsim_ase/quartus/quartus cyclone ii/nios2eds/bin/gnu/h-i686-mingw32/bin/../lib/gcc/nios2-elf/4.1.2/../../../../nios2-elf/lib\libc.a(lib_a-callocr.o)
 .comment       0x00000000       0x27 d:/modelsim_ase/quartus/quartus cyclone ii/nios2eds/bin/gnu/h-i686-mingw32/bin/../lib/gcc/nios2-elf/4.1.2/../../../../nios2-elf/lib\libc.a(lib_a-closer.o)
 .comment       0x00000000       0x27 d:/modelsim_ase/quartus/quartus cyclone ii/nios2eds/bin/gnu/h-i686-mingw32/bin/../lib/gcc/nios2-elf/4.1.2/../../../../nios2-elf/lib\libc.a(lib_a-fclose.o)
 .comment       0x00000000       0x27 d:/modelsim_ase/quartus/quartus cyclone ii/nios2eds/bin/gnu/h-i686-mingw32/bin/../lib/gcc/nios2-elf/4.1.2/../../../../nios2-elf/lib\libc.a(lib_a-fstatr.o)
 .comment       0x00000000       0x27 d:/modelsim_ase/quartus/quartus cyclone ii/nios2eds/bin/gnu/h-i686-mingw32/bin/../lib/gcc/nios2-elf/4.1.2/../../../../nios2-elf/lib\libc.a(lib_a-int_errno.o)
 .comment       0x00000000       0x27 d:/modelsim_ase/quartus/quartus cyclone ii/nios2eds/bin/gnu/h-i686-mingw32/bin/../lib/gcc/nios2-elf/4.1.2/../../../../nios2-elf/lib\libc.a(lib_a-isattyr.o)
 .comment       0x00000000       0x27 d:/modelsim_ase/quartus/quartus cyclone ii/nios2eds/bin/gnu/h-i686-mingw32/bin/../lib/gcc/nios2-elf/4.1.2/../../../../nios2-elf/lib\libc.a(lib_a-lseekr.o)
 .comment       0x00000000       0x27 d:/modelsim_ase/quartus/quartus cyclone ii/nios2eds/bin/gnu/h-i686-mingw32/bin/../lib/gcc/nios2-elf/4.1.2/../../../../nios2-elf/lib\libc.a(lib_a-readr.o)
 .comment       0x00000000       0x27 d:/modelsim_ase/quartus/quartus cyclone ii/nios2eds/bin/gnu/h-i686-mingw32/bin/../lib/gcc/nios2-elf/4.1.2\libgcc.a(_umoddi3.o)
 .comment       0x00000000       0x27 d:/modelsim_ase/quartus/quartus cyclone ii/nios2eds/bin/gnu/h-i686-mingw32/bin/../lib/gcc/nios2-elf/4.1.2\libgcc.a(_addsub_df.o)
 .comment       0x00000000       0x27 d:/modelsim_ase/quartus/quartus cyclone ii/nios2eds/bin/gnu/h-i686-mingw32/bin/../lib/gcc/nios2-elf/4.1.2\libgcc.a(_mul_df.o)
 .comment       0x00000000       0x27 d:/modelsim_ase/quartus/quartus cyclone ii/nios2eds/bin/gnu/h-i686-mingw32/bin/../lib/gcc/nios2-elf/4.1.2\libgcc.a(_div_df.o)
 .comment       0x00000000       0x27 d:/modelsim_ase/quartus/quartus cyclone ii/nios2eds/bin/gnu/h-i686-mingw32/bin/../lib/gcc/nios2-elf/4.1.2\libgcc.a(_eq_df.o)
 .comment       0x00000000       0x27 d:/modelsim_ase/quartus/quartus cyclone ii/nios2eds/bin/gnu/h-i686-mingw32/bin/../lib/gcc/nios2-elf/4.1.2\libgcc.a(_ne_df.o)
 .comment       0x00000000       0x27 d:/modelsim_ase/quartus/quartus cyclone ii/nios2eds/bin/gnu/h-i686-mingw32/bin/../lib/gcc/nios2-elf/4.1.2\libgcc.a(_gt_df.o)
 .comment       0x00000000       0x27 d:/modelsim_ase/quartus/quartus cyclone ii/nios2eds/bin/gnu/h-i686-mingw32/bin/../lib/gcc/nios2-elf/4.1.2\libgcc.a(_ge_df.o)
 .comment       0x00000000       0x27 d:/modelsim_ase/quartus/quartus cyclone ii/nios2eds/bin/gnu/h-i686-mingw32/bin/../lib/gcc/nios2-elf/4.1.2\libgcc.a(_lt_df.o)
 .comment       0x00000000       0x27 d:/modelsim_ase/quartus/quartus cyclone ii/nios2eds/bin/gnu/h-i686-mingw32/bin/../lib/gcc/nios2-elf/4.1.2\libgcc.a(_si_to_df.o)
 .comment       0x00000000       0x27 d:/modelsim_ase/quartus/quartus cyclone ii/nios2eds/bin/gnu/h-i686-mingw32/bin/../lib/gcc/nios2-elf/4.1.2\libgcc.a(_df_to_si.o)
 .comment       0x00000000       0x27 d:/modelsim_ase/quartus/quartus cyclone ii/nios2eds/bin/gnu/h-i686-mingw32/bin/../lib/gcc/nios2-elf/4.1.2\libgcc.a(_thenan_df.o)
 .comment       0x00000000       0x27 d:/modelsim_ase/quartus/quartus cyclone ii/nios2eds/bin/gnu/h-i686-mingw32/bin/../lib/gcc/nios2-elf/4.1.2\libgcc.a(_usi_to_df.o)
 .comment       0x00000000       0x27 d:/modelsim_ase/quartus/quartus cyclone ii/nios2eds/bin/gnu/h-i686-mingw32/bin/../lib/gcc/nios2-elf/4.1.2\libgcc.a(_muldi3.o)
 .comment       0x00000000       0x27 d:/modelsim_ase/quartus/quartus cyclone ii/nios2eds/bin/gnu/h-i686-mingw32/bin/../lib/gcc/nios2-elf/4.1.2\libgcc.a(_unpack_df.o)
 .comment       0x00000000       0x27 d:/modelsim_ase/quartus/quartus cyclone ii/nios2eds/bin/gnu/h-i686-mingw32/bin/../lib/gcc/nios2-elf/4.1.2\libgcc.a(_fpcmp_parts_df.o)
 .comment       0x00000000       0x27 ../FPGA_Lab4_Software_bsp/\libhal_bsp.a(alt_close.o)
 .comment       0x00000000       0x27 ../FPGA_Lab4_Software_bsp/\libhal_bsp.a(alt_dev.o)
 .comment       0x00000000       0x27 ../FPGA_Lab4_Software_bsp/\libhal_bsp.a(alt_errno.o)
 .comment       0x00000000       0x27 ../FPGA_Lab4_Software_bsp/\libhal_bsp.a(alt_fstat.o)
 .comment       0x00000000       0x27 ../FPGA_Lab4_Software_bsp/\libhal_bsp.a(alt_irq_register.o)
 .comment       0x00000000       0x27 ../FPGA_Lab4_Software_bsp/\libhal_bsp.a(alt_irq_vars.o)
 .comment       0x00000000       0x27 ../FPGA_Lab4_Software_bsp/\libhal_bsp.a(alt_isatty.o)
 .comment       0x00000000       0x27 ../FPGA_Lab4_Software_bsp/\libhal_bsp.a(alt_load.o)
 .comment       0x00000000       0x27 ../FPGA_Lab4_Software_bsp/\libhal_bsp.a(alt_lseek.o)
 .comment       0x00000000       0x27 ../FPGA_Lab4_Software_bsp/\libhal_bsp.a(alt_main.o)
 .comment       0x00000000       0x27 ../FPGA_Lab4_Software_bsp/\libhal_bsp.a(alt_malloc_lock.o)
 .comment       0x00000000       0x27 ../FPGA_Lab4_Software_bsp/\libhal_bsp.a(alt_printf.o)
 .comment       0x00000000       0x27 ../FPGA_Lab4_Software_bsp/\libhal_bsp.a(alt_putchar.o)
 .comment       0x00000000       0x27 ../FPGA_Lab4_Software_bsp/\libhal_bsp.a(alt_read.o)
 .comment       0x00000000       0x27 ../FPGA_Lab4_Software_bsp/\libhal_bsp.a(alt_release_fd.o)
 .comment       0x00000000       0x27 ../FPGA_Lab4_Software_bsp/\libhal_bsp.a(alt_sbrk.o)
 .comment       0x00000000       0x27 ../FPGA_Lab4_Software_bsp/\libhal_bsp.a(alt_write.o)
 .comment       0x00000000       0x27 ../FPGA_Lab4_Software_bsp/\libhal_bsp.a(alt_sys_init.o)
 .comment       0x00000000       0x27 ../FPGA_Lab4_Software_bsp/\libhal_bsp.a(altera_avalon_jtag_uart_fd.o)
 .comment       0x00000000       0x27 ../FPGA_Lab4_Software_bsp/\libhal_bsp.a(altera_avalon_jtag_uart_init.o)
 .comment       0x00000000       0x27 ../FPGA_Lab4_Software_bsp/\libhal_bsp.a(altera_avalon_jtag_uart_ioctl.o)
 .comment       0x00000000       0x27 ../FPGA_Lab4_Software_bsp/\libhal_bsp.a(altera_avalon_jtag_uart_read.o)
 .comment       0x00000000       0x27 ../FPGA_Lab4_Software_bsp/\libhal_bsp.a(altera_avalon_jtag_uart_write.o)
 .comment       0x00000000       0x27 ../FPGA_Lab4_Software_bsp/\libhal_bsp.a(altera_avalon_timer_ts.o)
 .comment       0x00000000       0x27 ../FPGA_Lab4_Software_bsp/\libhal_bsp.a(altera_avalon_timer_vars.o)
 .comment       0x00000000       0x27 ../FPGA_Lab4_Software_bsp/\libhal_bsp.a(altera_up_avalon_audio.o)
 .comment       0x00000000       0x27 ../FPGA_Lab4_Software_bsp/\libhal_bsp.a(altera_up_avalon_character_lcd.o)
 .comment       0x00000000       0x27 ../FPGA_Lab4_Software_bsp/\libhal_bsp.a(altera_up_avalon_parallel_port.o)
 .comment       0x00000000       0x27 ../FPGA_Lab4_Software_bsp/\libhal_bsp.a(altera_up_avalon_ps2.o)
 .comment       0x00000000       0x27 ../FPGA_Lab4_Software_bsp/\libhal_bsp.a(altera_up_avalon_video_character_buffer_with_dma.o)
 .comment       0x00000000       0x27 ../FPGA_Lab4_Software_bsp/\libhal_bsp.a(altera_up_avalon_video_pixel_buffer_dma.o)
 .comment       0x00000000       0x27 ../FPGA_Lab4_Software_bsp/\libhal_bsp.a(alt_alarm_start.o)
 .comment       0x00000000       0x27 ../FPGA_Lab4_Software_bsp/\libhal_bsp.a(alt_dcache_flush_all.o)
 .comment       0x00000000       0x27 ../FPGA_Lab4_Software_bsp/\libhal_bsp.a(alt_dev_llist_insert.o)
 .comment       0x00000000       0x27 ../FPGA_Lab4_Software_bsp/\libhal_bsp.a(alt_do_ctors.o)
 .comment       0x00000000       0x27 ../FPGA_Lab4_Software_bsp/\libhal_bsp.a(alt_do_dtors.o)
 .comment       0x00000000       0x27 ../FPGA_Lab4_Software_bsp/\libhal_bsp.a(alt_find_dev.o)
 .comment       0x00000000       0x27 ../FPGA_Lab4_Software_bsp/\libhal_bsp.a(alt_icache_flush_all.o)
 .comment       0x00000000       0x27 ../FPGA_Lab4_Software_bsp/\libhal_bsp.a(alt_iic.o)
 .comment       0x00000000       0x27 ../FPGA_Lab4_Software_bsp/\libhal_bsp.a(alt_iic_isr_register.o)
 .comment       0x00000000       0x27 ../FPGA_Lab4_Software_bsp/\libhal_bsp.a(alt_io_redirect.o)
 .comment       0x00000000       0x27 ../FPGA_Lab4_Software_bsp/\libhal_bsp.a(alt_irq_handler.o)
 .comment       0x00000000       0x27 ../FPGA_Lab4_Software_bsp/\libhal_bsp.a(alt_open.o)
 .comment       0x00000000       0x27 ../FPGA_Lab4_Software_bsp/\libhal_bsp.a(alt_tick.o)
 .comment       0x00000000       0x27 ../FPGA_Lab4_Software_bsp/\libhal_bsp.a(altera_nios2_qsys_irq.o)
 .comment       0x00000000       0x27 ../FPGA_Lab4_Software_bsp/\libhal_bsp.a(alt_find_file.o)
 .comment       0x00000000       0x27 ../FPGA_Lab4_Software_bsp/\libhal_bsp.a(alt_get_fd.o)
 .comment       0x00000000       0x27 ../FPGA_Lab4_Software_bsp/\libhal_bsp.a(alt_icache_flush.o)
 .comment       0x00000000       0x27 d:/modelsim_ase/quartus/quartus cyclone ii/nios2eds/bin/gnu/h-i686-mingw32/bin/../lib/gcc/nios2-elf/4.1.2/../../../../nios2-elf/lib\libc.a(lib_a-atexit.o)
 .comment       0x00000000       0x27 d:/modelsim_ase/quartus/quartus cyclone ii/nios2eds/bin/gnu/h-i686-mingw32/bin/../lib/gcc/nios2-elf/4.1.2/../../../../nios2-elf/lib\libc.a(lib_a-exit.o)
 .comment       0x00000000       0x27 d:/modelsim_ase/quartus/quartus cyclone ii/nios2eds/bin/gnu/h-i686-mingw32/bin/../lib/gcc/nios2-elf/4.1.2/../../../../nios2-elf/lib\libc.a(lib_a-memcmp.o)
 .comment       0x00000000       0x27 d:/modelsim_ase/quartus/quartus cyclone ii/nios2eds/bin/gnu/h-i686-mingw32/bin/../lib/gcc/nios2-elf/4.1.2/../../../../nios2-elf/lib\libc.a(lib_a-putc.o)
 .comment       0x00000000       0x27 d:/modelsim_ase/quartus/quartus cyclone ii/nios2eds/bin/gnu/h-i686-mingw32/bin/../lib/gcc/nios2-elf/4.1.2/../../../../nios2-elf/lib\libc.a(lib_a-wbuf.o)
 .comment       0x00000000       0x27 d:/modelsim_ase/quartus/quartus cyclone ii/nios2eds/bin/gnu/h-i686-mingw32/bin/../lib/gcc/nios2-elf/4.1.2/../../../../nios2-elf/lib\libc.a(lib_a-__atexit.o)
 .comment       0x00000000       0x27 d:/modelsim_ase/quartus/quartus cyclone ii/nios2eds/bin/gnu/h-i686-mingw32/bin/../lib/gcc/nios2-elf/4.1.2/../../../../nios2-elf/lib\libc.a(lib_a-__call_atexit.o)
 .comment       0x00000000       0x27 ../FPGA_Lab4_Software_bsp/\libhal_bsp.a(alt_exit.o)

.debug
 *(.debug)

.line
 *(.line)

.debug_srcinfo
 *(.debug_srcinfo)

.debug_sfnames
 *(.debug_sfnames)

.debug_aranges  0x00000000      0xf18
 *(.debug_aranges)
 .debug_aranges
                0x00000000       0x28 ../FPGA_Lab4_Software_bsp//obj/HAL/src/crt0.o
 .debug_aranges
                0x00000028       0x20 obj/default/PS2_ISR.o
 .debug_aranges
                0x00000048       0x20 obj/default/audio_ISR.o
 .debug_aranges
                0x00000068       0x20 obj/default/interval_timer_ISR.o
 .debug_aranges
                0x00000088       0x20 obj/default/media_interrupt_HAL.o
 .debug_aranges
                0x000000a8       0x20 obj/default/pushbutton_ISR.o
 .debug_aranges
                0x000000c8       0x20 d:/modelsim_ase/quartus/quartus cyclone ii/nios2eds/bin/gnu/h-i686-mingw32/bin/../lib/gcc/nios2-elf/4.1.2\libgcc.a(_udivdi3.o)
 .debug_aranges
                0x000000e8       0x20 d:/modelsim_ase/quartus/quartus cyclone ii/nios2eds/bin/gnu/h-i686-mingw32/bin/../lib/gcc/nios2-elf/4.1.2\libgcc.a(_si_to_sf.o)
 .debug_aranges
                0x00000108       0x20 d:/modelsim_ase/quartus/quartus cyclone ii/nios2eds/bin/gnu/h-i686-mingw32/bin/../lib/gcc/nios2-elf/4.1.2\libgcc.a(_sf_to_si.o)
 .debug_aranges
                0x00000128       0x20 d:/modelsim_ase/quartus/quartus cyclone ii/nios2eds/bin/gnu/h-i686-mingw32/bin/../lib/gcc/nios2-elf/4.1.2\libgcc.a(_sf_to_df.o)
 .debug_aranges
                0x00000148       0x20 d:/modelsim_ase/quartus/quartus cyclone ii/nios2eds/bin/gnu/h-i686-mingw32/bin/../lib/gcc/nios2-elf/4.1.2\libgcc.a(_usi_to_sf.o)
 .debug_aranges
                0x00000168       0x20 d:/modelsim_ase/quartus/quartus cyclone ii/nios2eds/bin/gnu/h-i686-mingw32/bin/../lib/gcc/nios2-elf/4.1.2\libgcc.a(_make_df.o)
 .debug_aranges
                0x00000188       0x20 d:/modelsim_ase/quartus/quartus cyclone ii/nios2eds/bin/gnu/h-i686-mingw32/bin/../lib/gcc/nios2-elf/4.1.2\libgcc.a(lib2-divmod.o)
 .debug_aranges
                0x000001a8       0x20 d:/modelsim_ase/quartus/quartus cyclone ii/nios2eds/bin/gnu/h-i686-mingw32/bin/../lib/gcc/nios2-elf/4.1.2\libgcc.a(_clzsi2.o)
 .debug_aranges
                0x000001c8       0x20 d:/modelsim_ase/quartus/quartus cyclone ii/nios2eds/bin/gnu/h-i686-mingw32/bin/../lib/gcc/nios2-elf/4.1.2\libgcc.a(_pack_sf.o)
 .debug_aranges
                0x000001e8       0x20 d:/modelsim_ase/quartus/quartus cyclone ii/nios2eds/bin/gnu/h-i686-mingw32/bin/../lib/gcc/nios2-elf/4.1.2\libgcc.a(_unpack_sf.o)
 .debug_aranges
                0x00000208       0x20 d:/modelsim_ase/quartus/quartus cyclone ii/nios2eds/bin/gnu/h-i686-mingw32/bin/../lib/gcc/nios2-elf/4.1.2\libgcc.a(_pack_df.o)
 .debug_aranges
                0x00000228       0x20 d:/modelsim_ase/quartus/quartus cyclone ii/nios2eds/bin/gnu/h-i686-mingw32/bin/../lib/gcc/nios2-elf/4.1.2/../../../../nios2-elf/lib\libc.a(lib_a-memcpy.o)
 .debug_aranges
                0x00000248       0x20 d:/modelsim_ase/quartus/quartus cyclone ii/nios2eds/bin/gnu/h-i686-mingw32/bin/../lib/gcc/nios2-elf/4.1.2/../../../../nios2-elf/lib\libc.a(lib_a-memset.o)
 .debug_aranges
                0x00000268       0x20 d:/modelsim_ase/quartus/quartus cyclone ii/nios2eds/bin/gnu/h-i686-mingw32/bin/../lib/gcc/nios2-elf/4.1.2/../../../../nios2-elf/lib\libc.a(lib_a-printf.o)
 .debug_aranges
                0x00000288       0x20 d:/modelsim_ase/quartus/quartus cyclone ii/nios2eds/bin/gnu/h-i686-mingw32/bin/../lib/gcc/nios2-elf/4.1.2/../../../../nios2-elf/lib\libc.a(lib_a-vfprintf.o)
 .debug_aranges
                0x000002a8       0x20 d:/modelsim_ase/quartus/quartus cyclone ii/nios2eds/bin/gnu/h-i686-mingw32/bin/../lib/gcc/nios2-elf/4.1.2/../../../../nios2-elf/lib\libc.a(lib_a-wsetup.o)
 .debug_aranges
                0x000002c8       0x20 d:/modelsim_ase/quartus/quartus cyclone ii/nios2eds/bin/gnu/h-i686-mingw32/bin/../lib/gcc/nios2-elf/4.1.2/../../../../nios2-elf/lib\libc.a(lib_a-dtoa.o)
 .debug_aranges
                0x000002e8       0x20 d:/modelsim_ase/quartus/quartus cyclone ii/nios2eds/bin/gnu/h-i686-mingw32/bin/../lib/gcc/nios2-elf/4.1.2/../../../../nios2-elf/lib\libc.a(lib_a-fflush.o)
 .debug_aranges
                0x00000308       0x20 d:/modelsim_ase/quartus/quartus cyclone ii/nios2eds/bin/gnu/h-i686-mingw32/bin/../lib/gcc/nios2-elf/4.1.2/../../../../nios2-elf/lib\libc.a(lib_a-findfp.o)
 .debug_aranges
                0x00000328       0x20 d:/modelsim_ase/quartus/quartus cyclone ii/nios2eds/bin/gnu/h-i686-mingw32/bin/../lib/gcc/nios2-elf/4.1.2/../../../../nios2-elf/lib\libc.a(lib_a-freer.o)
 .debug_aranges
                0x00000348       0x20 d:/modelsim_ase/quartus/quartus cyclone ii/nios2eds/bin/gnu/h-i686-mingw32/bin/../lib/gcc/nios2-elf/4.1.2/../../../../nios2-elf/lib\libc.a(lib_a-fvwrite.o)
 .debug_aranges
                0x00000368       0x20 d:/modelsim_ase/quartus/quartus cyclone ii/nios2eds/bin/gnu/h-i686-mingw32/bin/../lib/gcc/nios2-elf/4.1.2/../../../../nios2-elf/lib\libc.a(lib_a-fwalk.o)
 .debug_aranges
                0x00000388       0x20 d:/modelsim_ase/quartus/quartus cyclone ii/nios2eds/bin/gnu/h-i686-mingw32/bin/../lib/gcc/nios2-elf/4.1.2/../../../../nios2-elf/lib\libc.a(lib_a-locale.o)
 .debug_aranges
                0x000003a8       0x20 d:/modelsim_ase/quartus/quartus cyclone ii/nios2eds/bin/gnu/h-i686-mingw32/bin/../lib/gcc/nios2-elf/4.1.2/../../../../nios2-elf/lib\libc.a(lib_a-makebuf.o)
 .debug_aranges
                0x000003c8       0x20 d:/modelsim_ase/quartus/quartus cyclone ii/nios2eds/bin/gnu/h-i686-mingw32/bin/../lib/gcc/nios2-elf/4.1.2/../../../../nios2-elf/lib\libc.a(lib_a-mallocr.o)
 .debug_aranges
                0x000003e8       0x20 d:/modelsim_ase/quartus/quartus cyclone ii/nios2eds/bin/gnu/h-i686-mingw32/bin/../lib/gcc/nios2-elf/4.1.2/../../../../nios2-elf/lib\libc.a(lib_a-memchr.o)
 .debug_aranges
                0x00000408       0x20 d:/modelsim_ase/quartus/quartus cyclone ii/nios2eds/bin/gnu/h-i686-mingw32/bin/../lib/gcc/nios2-elf/4.1.2/../../../../nios2-elf/lib\libc.a(lib_a-memmove.o)
 .debug_aranges
                0x00000428       0x20 d:/modelsim_ase/quartus/quartus cyclone ii/nios2eds/bin/gnu/h-i686-mingw32/bin/../lib/gcc/nios2-elf/4.1.2/../../../../nios2-elf/lib\libc.a(lib_a-mprec.o)
 .debug_aranges
                0x00000448       0x20 d:/modelsim_ase/quartus/quartus cyclone ii/nios2eds/bin/gnu/h-i686-mingw32/bin/../lib/gcc/nios2-elf/4.1.2/../../../../nios2-elf/lib\libc.a(lib_a-reallocr.o)
 .debug_aranges
                0x00000468       0x20 d:/modelsim_ase/quartus/quartus cyclone ii/nios2eds/bin/gnu/h-i686-mingw32/bin/../lib/gcc/nios2-elf/4.1.2/../../../../nios2-elf/lib\libc.a(lib_a-s_isinfd.o)
 .debug_aranges
                0x00000488       0x20 d:/modelsim_ase/quartus/quartus cyclone ii/nios2eds/bin/gnu/h-i686-mingw32/bin/../lib/gcc/nios2-elf/4.1.2/../../../../nios2-elf/lib\libc.a(lib_a-s_isnand.o)
 .debug_aranges
                0x000004a8       0x20 d:/modelsim_ase/quartus/quartus cyclone ii/nios2eds/bin/gnu/h-i686-mingw32/bin/../lib/gcc/nios2-elf/4.1.2/../../../../nios2-elf/lib\libc.a(lib_a-sbrkr.o)
 .debug_aranges
                0x000004c8       0x20 d:/modelsim_ase/quartus/quartus cyclone ii/nios2eds/bin/gnu/h-i686-mingw32/bin/../lib/gcc/nios2-elf/4.1.2/../../../../nios2-elf/lib\libc.a(lib_a-stdio.o)
 .debug_aranges
                0x000004e8       0x20 d:/modelsim_ase/quartus/quartus cyclone ii/nios2eds/bin/gnu/h-i686-mingw32/bin/../lib/gcc/nios2-elf/4.1.2/../../../../nios2-elf/lib\libc.a(lib_a-strcmp.o)
 .debug_aranges
                0x00000508       0x20 d:/modelsim_ase/quartus/quartus cyclone ii/nios2eds/bin/gnu/h-i686-mingw32/bin/../lib/gcc/nios2-elf/4.1.2/../../../../nios2-elf/lib\libc.a(lib_a-strlen.o)
 .debug_aranges
                0x00000528       0x20 d:/modelsim_ase/quartus/quartus cyclone ii/nios2eds/bin/gnu/h-i686-mingw32/bin/../lib/gcc/nios2-elf/4.1.2/../../../../nios2-elf/lib\libc.a(lib_a-writer.o)
 .debug_aranges
                0x00000548       0x20 d:/modelsim_ase/quartus/quartus cyclone ii/nios2eds/bin/gnu/h-i686-mingw32/bin/../lib/gcc/nios2-elf/4.1.2/../../../../nios2-elf/lib\libc.a(lib_a-callocr.o)
 .debug_aranges
                0x00000568       0x20 d:/modelsim_ase/quartus/quartus cyclone ii/nios2eds/bin/gnu/h-i686-mingw32/bin/../lib/gcc/nios2-elf/4.1.2/../../../../nios2-elf/lib\libc.a(lib_a-closer.o)
 .debug_aranges
                0x00000588       0x20 d:/modelsim_ase/quartus/quartus cyclone ii/nios2eds/bin/gnu/h-i686-mingw32/bin/../lib/gcc/nios2-elf/4.1.2/../../../../nios2-elf/lib\libc.a(lib_a-fclose.o)
 .debug_aranges
                0x000005a8       0x20 d:/modelsim_ase/quartus/quartus cyclone ii/nios2eds/bin/gnu/h-i686-mingw32/bin/../lib/gcc/nios2-elf/4.1.2/../../../../nios2-elf/lib\libc.a(lib_a-fstatr.o)
 .debug_aranges
                0x000005c8       0x20 d:/modelsim_ase/quartus/quartus cyclone ii/nios2eds/bin/gnu/h-i686-mingw32/bin/../lib/gcc/nios2-elf/4.1.2/../../../../nios2-elf/lib\libc.a(lib_a-isattyr.o)
 .debug_aranges
                0x000005e8       0x20 d:/modelsim_ase/quartus/quartus cyclone ii/nios2eds/bin/gnu/h-i686-mingw32/bin/../lib/gcc/nios2-elf/4.1.2/../../../../nios2-elf/lib\libc.a(lib_a-lseekr.o)
 .debug_aranges
                0x00000608       0x20 d:/modelsim_ase/quartus/quartus cyclone ii/nios2eds/bin/gnu/h-i686-mingw32/bin/../lib/gcc/nios2-elf/4.1.2/../../../../nios2-elf/lib\libc.a(lib_a-readr.o)
 .debug_aranges
                0x00000628       0x20 d:/modelsim_ase/quartus/quartus cyclone ii/nios2eds/bin/gnu/h-i686-mingw32/bin/../lib/gcc/nios2-elf/4.1.2\libgcc.a(_umoddi3.o)
 .debug_aranges
                0x00000648       0x20 d:/modelsim_ase/quartus/quartus cyclone ii/nios2eds/bin/gnu/h-i686-mingw32/bin/../lib/gcc/nios2-elf/4.1.2\libgcc.a(_addsub_df.o)
 .debug_aranges
                0x00000668       0x20 d:/modelsim_ase/quartus/quartus cyclone ii/nios2eds/bin/gnu/h-i686-mingw32/bin/../lib/gcc/nios2-elf/4.1.2\libgcc.a(_mul_df.o)
 .debug_aranges
                0x00000688       0x20 d:/modelsim_ase/quartus/quartus cyclone ii/nios2eds/bin/gnu/h-i686-mingw32/bin/../lib/gcc/nios2-elf/4.1.2\libgcc.a(_div_df.o)
 .debug_aranges
                0x000006a8       0x20 d:/modelsim_ase/quartus/quartus cyclone ii/nios2eds/bin/gnu/h-i686-mingw32/bin/../lib/gcc/nios2-elf/4.1.2\libgcc.a(_eq_df.o)
 .debug_aranges
                0x000006c8       0x20 d:/modelsim_ase/quartus/quartus cyclone ii/nios2eds/bin/gnu/h-i686-mingw32/bin/../lib/gcc/nios2-elf/4.1.2\libgcc.a(_ne_df.o)
 .debug_aranges
                0x000006e8       0x20 d:/modelsim_ase/quartus/quartus cyclone ii/nios2eds/bin/gnu/h-i686-mingw32/bin/../lib/gcc/nios2-elf/4.1.2\libgcc.a(_gt_df.o)
 .debug_aranges
                0x00000708       0x20 d:/modelsim_ase/quartus/quartus cyclone ii/nios2eds/bin/gnu/h-i686-mingw32/bin/../lib/gcc/nios2-elf/4.1.2\libgcc.a(_ge_df.o)
 .debug_aranges
                0x00000728       0x20 d:/modelsim_ase/quartus/quartus cyclone ii/nios2eds/bin/gnu/h-i686-mingw32/bin/../lib/gcc/nios2-elf/4.1.2\libgcc.a(_lt_df.o)
 .debug_aranges
                0x00000748       0x20 d:/modelsim_ase/quartus/quartus cyclone ii/nios2eds/bin/gnu/h-i686-mingw32/bin/../lib/gcc/nios2-elf/4.1.2\libgcc.a(_si_to_df.o)
 .debug_aranges
                0x00000768       0x20 d:/modelsim_ase/quartus/quartus cyclone ii/nios2eds/bin/gnu/h-i686-mingw32/bin/../lib/gcc/nios2-elf/4.1.2\libgcc.a(_df_to_si.o)
 .debug_aranges
                0x00000788       0x20 d:/modelsim_ase/quartus/quartus cyclone ii/nios2eds/bin/gnu/h-i686-mingw32/bin/../lib/gcc/nios2-elf/4.1.2\libgcc.a(_usi_to_df.o)
 .debug_aranges
                0x000007a8       0x20 d:/modelsim_ase/quartus/quartus cyclone ii/nios2eds/bin/gnu/h-i686-mingw32/bin/../lib/gcc/nios2-elf/4.1.2\libgcc.a(_muldi3.o)
 .debug_aranges
                0x000007c8       0x20 d:/modelsim_ase/quartus/quartus cyclone ii/nios2eds/bin/gnu/h-i686-mingw32/bin/../lib/gcc/nios2-elf/4.1.2\libgcc.a(_unpack_df.o)
 .debug_aranges
                0x000007e8       0x20 d:/modelsim_ase/quartus/quartus cyclone ii/nios2eds/bin/gnu/h-i686-mingw32/bin/../lib/gcc/nios2-elf/4.1.2\libgcc.a(_fpcmp_parts_df.o)
 .debug_aranges
                0x00000808       0x20 ../FPGA_Lab4_Software_bsp/\libhal_bsp.a(alt_close.o)
 .debug_aranges
                0x00000828       0x20 ../FPGA_Lab4_Software_bsp/\libhal_bsp.a(alt_dev.o)
 .debug_aranges
                0x00000848       0x20 ../FPGA_Lab4_Software_bsp/\libhal_bsp.a(alt_fstat.o)
 .debug_aranges
                0x00000868       0x20 ../FPGA_Lab4_Software_bsp/\libhal_bsp.a(alt_irq_register.o)
 .debug_aranges
                0x00000888       0x20 ../FPGA_Lab4_Software_bsp/\libhal_bsp.a(alt_isatty.o)
 .debug_aranges
                0x000008a8       0x20 ../FPGA_Lab4_Software_bsp/\libhal_bsp.a(alt_load.o)
 .debug_aranges
                0x000008c8       0x20 ../FPGA_Lab4_Software_bsp/\libhal_bsp.a(alt_lseek.o)
 .debug_aranges
                0x000008e8       0x20 ../FPGA_Lab4_Software_bsp/\libhal_bsp.a(alt_main.o)
 .debug_aranges
                0x00000908       0x20 ../FPGA_Lab4_Software_bsp/\libhal_bsp.a(alt_malloc_lock.o)
 .debug_aranges
                0x00000928       0x20 ../FPGA_Lab4_Software_bsp/\libhal_bsp.a(alt_printf.o)
 .debug_aranges
                0x00000948       0x20 ../FPGA_Lab4_Software_bsp/\libhal_bsp.a(alt_putchar.o)
 .debug_aranges
                0x00000968       0x20 ../FPGA_Lab4_Software_bsp/\libhal_bsp.a(alt_read.o)
 .debug_aranges
                0x00000988       0x20 ../FPGA_Lab4_Software_bsp/\libhal_bsp.a(alt_release_fd.o)
 .debug_aranges
                0x000009a8       0x20 ../FPGA_Lab4_Software_bsp/\libhal_bsp.a(alt_sbrk.o)
 .debug_aranges
                0x000009c8       0x20 ../FPGA_Lab4_Software_bsp/\libhal_bsp.a(alt_write.o)
 .debug_aranges
                0x000009e8       0x20 ../FPGA_Lab4_Software_bsp/\libhal_bsp.a(alt_sys_init.o)
 .debug_aranges
                0x00000a08       0x20 ../FPGA_Lab4_Software_bsp/\libhal_bsp.a(altera_avalon_jtag_uart_fd.o)
 .debug_aranges
                0x00000a28       0x20 ../FPGA_Lab4_Software_bsp/\libhal_bsp.a(altera_avalon_jtag_uart_init.o)
 .debug_aranges
                0x00000a48       0x20 ../FPGA_Lab4_Software_bsp/\libhal_bsp.a(altera_avalon_jtag_uart_ioctl.o)
 .debug_aranges
                0x00000a68       0x20 ../FPGA_Lab4_Software_bsp/\libhal_bsp.a(altera_avalon_jtag_uart_read.o)
 .debug_aranges
                0x00000a88       0x20 ../FPGA_Lab4_Software_bsp/\libhal_bsp.a(altera_avalon_jtag_uart_write.o)
 .debug_aranges
                0x00000aa8       0x20 ../FPGA_Lab4_Software_bsp/\libhal_bsp.a(altera_avalon_timer_ts.o)
 .debug_aranges
                0x00000ac8       0x20 ../FPGA_Lab4_Software_bsp/\libhal_bsp.a(altera_up_avalon_audio.o)
 .debug_aranges
                0x00000ae8       0x20 ../FPGA_Lab4_Software_bsp/\libhal_bsp.a(altera_up_avalon_character_lcd.o)
 .debug_aranges
                0x00000b08       0x20 ../FPGA_Lab4_Software_bsp/\libhal_bsp.a(altera_up_avalon_parallel_port.o)
 .debug_aranges
                0x00000b28       0x20 ../FPGA_Lab4_Software_bsp/\libhal_bsp.a(altera_up_avalon_ps2.o)
 .debug_aranges
                0x00000b48       0x20 ../FPGA_Lab4_Software_bsp/\libhal_bsp.a(altera_up_avalon_video_character_buffer_with_dma.o)
 .debug_aranges
                0x00000b68       0x20 ../FPGA_Lab4_Software_bsp/\libhal_bsp.a(altera_up_avalon_video_pixel_buffer_dma.o)
 .debug_aranges
                0x00000b88       0x20 ../FPGA_Lab4_Software_bsp/\libhal_bsp.a(alt_alarm_start.o)
 .debug_aranges
                0x00000ba8       0x20 ../FPGA_Lab4_Software_bsp/\libhal_bsp.a(alt_dcache_flush_all.o)
 .debug_aranges
                0x00000bc8       0x20 ../FPGA_Lab4_Software_bsp/\libhal_bsp.a(alt_dev_llist_insert.o)
 .debug_aranges
                0x00000be8       0x20 ../FPGA_Lab4_Software_bsp/\libhal_bsp.a(alt_do_ctors.o)
 .debug_aranges
                0x00000c08       0x20 ../FPGA_Lab4_Software_bsp/\libhal_bsp.a(alt_do_dtors.o)
 .debug_aranges
                0x00000c28       0x20 ../FPGA_Lab4_Software_bsp/\libhal_bsp.a(alt_find_dev.o)
 .debug_aranges
                0x00000c48       0x20 ../FPGA_Lab4_Software_bsp/\libhal_bsp.a(alt_icache_flush_all.o)
 .debug_aranges
                0x00000c68       0x20 ../FPGA_Lab4_Software_bsp/\libhal_bsp.a(alt_iic.o)
 .debug_aranges
                0x00000c88       0x20 ../FPGA_Lab4_Software_bsp/\libhal_bsp.a(alt_iic_isr_register.o)
 .debug_aranges
                0x00000ca8       0x20 ../FPGA_Lab4_Software_bsp/\libhal_bsp.a(alt_io_redirect.o)
 .debug_aranges
                0x00000cc8       0x30 ../FPGA_Lab4_Software_bsp/\libhal_bsp.a(alt_irq_entry.o)
 .debug_aranges
                0x00000cf8       0x28 ../FPGA_Lab4_Software_bsp/\libhal_bsp.a(alt_irq_handler.o)
 .debug_aranges
                0x00000d20       0x20 ../FPGA_Lab4_Software_bsp/\libhal_bsp.a(alt_open.o)
 .debug_aranges
                0x00000d40       0x20 ../FPGA_Lab4_Software_bsp/\libhal_bsp.a(alt_tick.o)
 .debug_aranges
                0x00000d60       0x20 ../FPGA_Lab4_Software_bsp/\libhal_bsp.a(altera_nios2_qsys_irq.o)
 .debug_aranges
                0x00000d80       0x38 ../FPGA_Lab4_Software_bsp/\libhal_bsp.a(alt_exception_entry.o)
 .debug_aranges
                0x00000db8       0x20 ../FPGA_Lab4_Software_bsp/\libhal_bsp.a(alt_find_file.o)
 .debug_aranges
                0x00000dd8       0x20 ../FPGA_Lab4_Software_bsp/\libhal_bsp.a(alt_get_fd.o)
 .debug_aranges
                0x00000df8       0x20 ../FPGA_Lab4_Software_bsp/\libhal_bsp.a(alt_icache_flush.o)
 .debug_aranges
                0x00000e18       0x20 d:/modelsim_ase/quartus/quartus cyclone ii/nios2eds/bin/gnu/h-i686-mingw32/bin/../lib/gcc/nios2-elf/4.1.2/../../../../nios2-elf/lib\libc.a(lib_a-atexit.o)
 .debug_aranges
                0x00000e38       0x20 d:/modelsim_ase/quartus/quartus cyclone ii/nios2eds/bin/gnu/h-i686-mingw32/bin/../lib/gcc/nios2-elf/4.1.2/../../../../nios2-elf/lib\libc.a(lib_a-exit.o)
 .debug_aranges
                0x00000e58       0x20 d:/modelsim_ase/quartus/quartus cyclone ii/nios2eds/bin/gnu/h-i686-mingw32/bin/../lib/gcc/nios2-elf/4.1.2/../../../../nios2-elf/lib\libc.a(lib_a-memcmp.o)
 .debug_aranges
                0x00000e78       0x20 d:/modelsim_ase/quartus/quartus cyclone ii/nios2eds/bin/gnu/h-i686-mingw32/bin/../lib/gcc/nios2-elf/4.1.2/../../../../nios2-elf/lib\libc.a(lib_a-putc.o)
 .debug_aranges
                0x00000e98       0x20 d:/modelsim_ase/quartus/quartus cyclone ii/nios2eds/bin/gnu/h-i686-mingw32/bin/../lib/gcc/nios2-elf/4.1.2/../../../../nios2-elf/lib\libc.a(lib_a-wbuf.o)
 .debug_aranges
                0x00000eb8       0x20 d:/modelsim_ase/quartus/quartus cyclone ii/nios2eds/bin/gnu/h-i686-mingw32/bin/../lib/gcc/nios2-elf/4.1.2/../../../../nios2-elf/lib\libc.a(lib_a-__atexit.o)
 .debug_aranges
                0x00000ed8       0x20 d:/modelsim_ase/quartus/quartus cyclone ii/nios2eds/bin/gnu/h-i686-mingw32/bin/../lib/gcc/nios2-elf/4.1.2/../../../../nios2-elf/lib\libc.a(lib_a-__call_atexit.o)
 .debug_aranges
                0x00000ef8       0x20 ../FPGA_Lab4_Software_bsp/\libhal_bsp.a(alt_exit.o)

.debug_pubnames
                0x00000000     0x2274
 *(.debug_pubnames)
 .debug_pubnames
                0x00000000       0x31 obj/default/PS2_ISR.o
 .debug_pubnames
                0x00000031       0xb5 obj/default/audio_ISR.o
 .debug_pubnames
                0x000000e6       0x9c obj/default/globals.o
 .debug_pubnames
                0x00000182       0x29 obj/default/interval_timer_ISR.o
 .debug_pubnames
                0x000001ab      0x2bc obj/default/media_interrupt_HAL.o
 .debug_pubnames
                0x00000467       0x25 obj/default/pushbutton_ISR.o
 .debug_pubnames
                0x0000048c       0x20 d:/modelsim_ase/quartus/quartus cyclone ii/nios2eds/bin/gnu/h-i686-mingw32/bin/../lib/gcc/nios2-elf/4.1.2\libgcc.a(_udivdi3.o)
 .debug_pubnames
                0x000004ac       0x22 d:/modelsim_ase/quartus/quartus cyclone ii/nios2eds/bin/gnu/h-i686-mingw32/bin/../lib/gcc/nios2-elf/4.1.2\libgcc.a(_si_to_sf.o)
 .debug_pubnames
                0x000004ce       0x20 d:/modelsim_ase/quartus/quartus cyclone ii/nios2eds/bin/gnu/h-i686-mingw32/bin/../lib/gcc/nios2-elf/4.1.2\libgcc.a(_sf_to_si.o)
 .debug_pubnames
                0x000004ee       0x24 d:/modelsim_ase/quartus/quartus cyclone ii/nios2eds/bin/gnu/h-i686-mingw32/bin/../lib/gcc/nios2-elf/4.1.2\libgcc.a(_sf_to_df.o)
 .debug_pubnames
                0x00000512       0x24 d:/modelsim_ase/quartus/quartus cyclone ii/nios2eds/bin/gnu/h-i686-mingw32/bin/../lib/gcc/nios2-elf/4.1.2\libgcc.a(_usi_to_sf.o)
 .debug_pubnames
                0x00000536       0x20 d:/modelsim_ase/quartus/quartus cyclone ii/nios2eds/bin/gnu/h-i686-mingw32/bin/../lib/gcc/nios2-elf/4.1.2\libgcc.a(_make_df.o)
 .debug_pubnames
                0x00000556       0x48 d:/modelsim_ase/quartus/quartus cyclone ii/nios2eds/bin/gnu/h-i686-mingw32/bin/../lib/gcc/nios2-elf/4.1.2\libgcc.a(lib2-divmod.o)
 .debug_pubnames
                0x0000059e       0x20 d:/modelsim_ase/quartus/quartus cyclone ii/nios2eds/bin/gnu/h-i686-mingw32/bin/../lib/gcc/nios2-elf/4.1.2\libgcc.a(_clz.o)
 .debug_pubnames
                0x000005be       0x1f d:/modelsim_ase/quartus/quartus cyclone ii/nios2eds/bin/gnu/h-i686-mingw32/bin/../lib/gcc/nios2-elf/4.1.2\libgcc.a(_clzsi2.o)
 .debug_pubnames
                0x000005dd       0x1f d:/modelsim_ase/quartus/quartus cyclone ii/nios2eds/bin/gnu/h-i686-mingw32/bin/../lib/gcc/nios2-elf/4.1.2\libgcc.a(_pack_sf.o)
 .debug_pubnames
                0x000005fc       0x21 d:/modelsim_ase/quartus/quartus cyclone ii/nios2eds/bin/gnu/h-i686-mingw32/bin/../lib/gcc/nios2-elf/4.1.2\libgcc.a(_unpack_sf.o)
 .debug_pubnames
                0x0000061d       0x1f d:/modelsim_ase/quartus/quartus cyclone ii/nios2eds/bin/gnu/h-i686-mingw32/bin/../lib/gcc/nios2-elf/4.1.2\libgcc.a(_pack_df.o)
 .debug_pubnames
                0x0000063c       0x1d d:/modelsim_ase/quartus/quartus cyclone ii/nios2eds/bin/gnu/h-i686-mingw32/bin/../lib/gcc/nios2-elf/4.1.2/../../../../nios2-elf/lib\libc.a(lib_a-memcpy.o)
 .debug_pubnames
                0x00000659       0x1d d:/modelsim_ase/quartus/quartus cyclone ii/nios2eds/bin/gnu/h-i686-mingw32/bin/../lib/gcc/nios2-elf/4.1.2/../../../../nios2-elf/lib\libc.a(lib_a-memset.o)
 .debug_pubnames
                0x00000676       0x2b d:/modelsim_ase/quartus/quartus cyclone ii/nios2eds/bin/gnu/h-i686-mingw32/bin/../lib/gcc/nios2-elf/4.1.2/../../../../nios2-elf/lib\libc.a(lib_a-printf.o)
 .debug_pubnames
                0x000006a1       0x45 d:/modelsim_ase/quartus/quartus cyclone ii/nios2eds/bin/gnu/h-i686-mingw32/bin/../lib/gcc/nios2-elf/4.1.2/../../../../nios2-elf/lib\libc.a(lib_a-vfprintf.o)
 .debug_pubnames
                0x000006e6       0x22 d:/modelsim_ase/quartus/quartus cyclone ii/nios2eds/bin/gnu/h-i686-mingw32/bin/../lib/gcc/nios2-elf/4.1.2/../../../../nios2-elf/lib\libc.a(lib_a-wsetup.o)
 .debug_pubnames
                0x00000708       0x1e d:/modelsim_ase/quartus/quartus cyclone ii/nios2eds/bin/gnu/h-i686-mingw32/bin/../lib/gcc/nios2-elf/4.1.2/../../../../nios2-elf/lib\libc.a(lib_a-dtoa.o)
 .debug_pubnames
                0x00000726       0x2b d:/modelsim_ase/quartus/quartus cyclone ii/nios2eds/bin/gnu/h-i686-mingw32/bin/../lib/gcc/nios2-elf/4.1.2/../../../../nios2-elf/lib\libc.a(lib_a-fflush.o)
 .debug_pubnames
                0x00000751       0xdb d:/modelsim_ase/quartus/quartus cyclone ii/nios2eds/bin/gnu/h-i686-mingw32/bin/../lib/gcc/nios2-elf/4.1.2/../../../../nios2-elf/lib\libc.a(lib_a-findfp.o)
 .debug_pubnames
                0x0000082c       0x31 d:/modelsim_ase/quartus/quartus cyclone ii/nios2eds/bin/gnu/h-i686-mingw32/bin/../lib/gcc/nios2-elf/4.1.2/../../../../nios2-elf/lib\libc.a(lib_a-freer.o)
 .debug_pubnames
                0x0000085d       0x23 d:/modelsim_ase/quartus/quartus cyclone ii/nios2eds/bin/gnu/h-i686-mingw32/bin/../lib/gcc/nios2-elf/4.1.2/../../../../nios2-elf/lib\libc.a(lib_a-fvwrite.o)
 .debug_pubnames
                0x00000880       0x2e d:/modelsim_ase/quartus/quartus cyclone ii/nios2eds/bin/gnu/h-i686-mingw32/bin/../lib/gcc/nios2-elf/4.1.2/../../../../nios2-elf/lib\libc.a(lib_a-fwalk.o)
 .debug_pubnames
                0x000008ae       0x39 d:/modelsim_ase/quartus/quartus cyclone ii/nios2eds/bin/gnu/h-i686-mingw32/bin/../lib/gcc/nios2-elf/4.1.2/../../../../nios2-elf/lib\libc.a(lib_a-impure.o)
 .debug_pubnames
                0x000008e7       0xc3 d:/modelsim_ase/quartus/quartus cyclone ii/nios2eds/bin/gnu/h-i686-mingw32/bin/../lib/gcc/nios2-elf/4.1.2/../../../../nios2-elf/lib\libc.a(lib_a-locale.o)
 .debug_pubnames
                0x000009aa       0x23 d:/modelsim_ase/quartus/quartus cyclone ii/nios2eds/bin/gnu/h-i686-mingw32/bin/../lib/gcc/nios2-elf/4.1.2/../../../../nios2-elf/lib\libc.a(lib_a-makebuf.o)
 .debug_pubnames
                0x000009cd       0xce d:/modelsim_ase/quartus/quartus cyclone ii/nios2eds/bin/gnu/h-i686-mingw32/bin/../lib/gcc/nios2-elf/4.1.2/../../../../nios2-elf/lib\libc.a(lib_a-mallocr.o)
 .debug_pubnames
                0x00000a9b       0x1d d:/modelsim_ase/quartus/quartus cyclone ii/nios2eds/bin/gnu/h-i686-mingw32/bin/../lib/gcc/nios2-elf/4.1.2/../../../../nios2-elf/lib\libc.a(lib_a-memchr.o)
 .debug_pubnames
                0x00000ab8       0x1e d:/modelsim_ase/quartus/quartus cyclone ii/nios2eds/bin/gnu/h-i686-mingw32/bin/../lib/gcc/nios2-elf/4.1.2/../../../../nios2-elf/lib\libc.a(lib_a-memmove.o)
 .debug_pubnames
                0x00000ad6      0x13a d:/modelsim_ase/quartus/quartus cyclone ii/nios2eds/bin/gnu/h-i686-mingw32/bin/../lib/gcc/nios2-elf/4.1.2/../../../../nios2-elf/lib\libc.a(lib_a-mprec.o)
 .debug_pubnames
                0x00000c10       0x21 d:/modelsim_ase/quartus/quartus cyclone ii/nios2eds/bin/gnu/h-i686-mingw32/bin/../lib/gcc/nios2-elf/4.1.2/../../../../nios2-elf/lib\libc.a(lib_a-reallocr.o)
 .debug_pubnames
                0x00000c31       0x1f d:/modelsim_ase/quartus/quartus cyclone ii/nios2eds/bin/gnu/h-i686-mingw32/bin/../lib/gcc/nios2-elf/4.1.2/../../../../nios2-elf/lib\libc.a(lib_a-s_isinfd.o)
 .debug_pubnames
                0x00000c50       0x1f d:/modelsim_ase/quartus/quartus cyclone ii/nios2eds/bin/gnu/h-i686-mingw32/bin/../lib/gcc/nios2-elf/4.1.2/../../../../nios2-elf/lib\libc.a(lib_a-s_isnand.o)
 .debug_pubnames
                0x00000c6f       0x1e d:/modelsim_ase/quartus/quartus cyclone ii/nios2eds/bin/gnu/h-i686-mingw32/bin/../lib/gcc/nios2-elf/4.1.2/../../../../nios2-elf/lib\libc.a(lib_a-sbrkr.o)
 .debug_pubnames
                0x00000c8d       0x44 d:/modelsim_ase/quartus/quartus cyclone ii/nios2eds/bin/gnu/h-i686-mingw32/bin/../lib/gcc/nios2-elf/4.1.2/../../../../nios2-elf/lib\libc.a(lib_a-stdio.o)
 .debug_pubnames
                0x00000cd1       0x1d d:/modelsim_ase/quartus/quartus cyclone ii/nios2eds/bin/gnu/h-i686-mingw32/bin/../lib/gcc/nios2-elf/4.1.2/../../../../nios2-elf/lib\libc.a(lib_a-strcmp.o)
 .debug_pubnames
                0x00000cee       0x1d d:/modelsim_ase/quartus/quartus cyclone ii/nios2eds/bin/gnu/h-i686-mingw32/bin/../lib/gcc/nios2-elf/4.1.2/../../../../nios2-elf/lib\libc.a(lib_a-strlen.o)
 .debug_pubnames
                0x00000d0b       0x1f d:/modelsim_ase/quartus/quartus cyclone ii/nios2eds/bin/gnu/h-i686-mingw32/bin/../lib/gcc/nios2-elf/4.1.2/../../../../nios2-elf/lib\libc.a(lib_a-writer.o)
 .debug_pubnames
                0x00000d2a       0x20 d:/modelsim_ase/quartus/quartus cyclone ii/nios2eds/bin/gnu/h-i686-mingw32/bin/../lib/gcc/nios2-elf/4.1.2/../../../../nios2-elf/lib\libc.a(lib_a-callocr.o)
 .debug_pubnames
                0x00000d4a       0x1f d:/modelsim_ase/quartus/quartus cyclone ii/nios2eds/bin/gnu/h-i686-mingw32/bin/../lib/gcc/nios2-elf/4.1.2/../../../../nios2-elf/lib\libc.a(lib_a-closer.o)
 .debug_pubnames
                0x00000d69       0x2b d:/modelsim_ase/quartus/quartus cyclone ii/nios2eds/bin/gnu/h-i686-mingw32/bin/../lib/gcc/nios2-elf/4.1.2/../../../../nios2-elf/lib\libc.a(lib_a-fclose.o)
 .debug_pubnames
                0x00000d94       0x1f d:/modelsim_ase/quartus/quartus cyclone ii/nios2eds/bin/gnu/h-i686-mingw32/bin/../lib/gcc/nios2-elf/4.1.2/../../../../nios2-elf/lib\libc.a(lib_a-fstatr.o)
 .debug_pubnames
                0x00000db3       0x1c d:/modelsim_ase/quartus/quartus cyclone ii/nios2eds/bin/gnu/h-i686-mingw32/bin/../lib/gcc/nios2-elf/4.1.2/../../../../nios2-elf/lib\libc.a(lib_a-int_errno.o)
 .debug_pubnames
                0x00000dcf       0x20 d:/modelsim_ase/quartus/quartus cyclone ii/nios2eds/bin/gnu/h-i686-mingw32/bin/../lib/gcc/nios2-elf/4.1.2/../../../../nios2-elf/lib\libc.a(lib_a-isattyr.o)
 .debug_pubnames
                0x00000def       0x1f d:/modelsim_ase/quartus/quartus cyclone ii/nios2eds/bin/gnu/h-i686-mingw32/bin/../lib/gcc/nios2-elf/4.1.2/../../../../nios2-elf/lib\libc.a(lib_a-lseekr.o)
 .debug_pubnames
                0x00000e0e       0x1e d:/modelsim_ase/quartus/quartus cyclone ii/nios2eds/bin/gnu/h-i686-mingw32/bin/../lib/gcc/nios2-elf/4.1.2/../../../../nios2-elf/lib\libc.a(lib_a-readr.o)
 .debug_pubnames
                0x00000e2c       0x20 d:/modelsim_ase/quartus/quartus cyclone ii/nios2eds/bin/gnu/h-i686-mingw32/bin/../lib/gcc/nios2-elf/4.1.2\libgcc.a(_umoddi3.o)
 .debug_pubnames
                0x00000e4c       0x2c d:/modelsim_ase/quartus/quartus cyclone ii/nios2eds/bin/gnu/h-i686-mingw32/bin/../lib/gcc/nios2-elf/4.1.2\libgcc.a(_addsub_df.o)
 .debug_pubnames
                0x00000e78       0x1f d:/modelsim_ase/quartus/quartus cyclone ii/nios2eds/bin/gnu/h-i686-mingw32/bin/../lib/gcc/nios2-elf/4.1.2\libgcc.a(_mul_df.o)
 .debug_pubnames
                0x00000e97       0x1f d:/modelsim_ase/quartus/quartus cyclone ii/nios2eds/bin/gnu/h-i686-mingw32/bin/../lib/gcc/nios2-elf/4.1.2\libgcc.a(_div_df.o)
 .debug_pubnames
                0x00000eb6       0x1e d:/modelsim_ase/quartus/quartus cyclone ii/nios2eds/bin/gnu/h-i686-mingw32/bin/../lib/gcc/nios2-elf/4.1.2\libgcc.a(_eq_df.o)
 .debug_pubnames
                0x00000ed4       0x1e d:/modelsim_ase/quartus/quartus cyclone ii/nios2eds/bin/gnu/h-i686-mingw32/bin/../lib/gcc/nios2-elf/4.1.2\libgcc.a(_ne_df.o)
 .debug_pubnames
                0x00000ef2       0x1e d:/modelsim_ase/quartus/quartus cyclone ii/nios2eds/bin/gnu/h-i686-mingw32/bin/../lib/gcc/nios2-elf/4.1.2\libgcc.a(_gt_df.o)
 .debug_pubnames
                0x00000f10       0x1e d:/modelsim_ase/quartus/quartus cyclone ii/nios2eds/bin/gnu/h-i686-mingw32/bin/../lib/gcc/nios2-elf/4.1.2\libgcc.a(_ge_df.o)
 .debug_pubnames
                0x00000f2e       0x1e d:/modelsim_ase/quartus/quartus cyclone ii/nios2eds/bin/gnu/h-i686-mingw32/bin/../lib/gcc/nios2-elf/4.1.2\libgcc.a(_lt_df.o)
 .debug_pubnames
                0x00000f4c       0x22 d:/modelsim_ase/quartus/quartus cyclone ii/nios2eds/bin/gnu/h-i686-mingw32/bin/../lib/gcc/nios2-elf/4.1.2\libgcc.a(_si_to_df.o)
 .debug_pubnames
                0x00000f6e       0x20 d:/modelsim_ase/quartus/quartus cyclone ii/nios2eds/bin/gnu/h-i686-mingw32/bin/../lib/gcc/nios2-elf/4.1.2\libgcc.a(_df_to_si.o)
 .debug_pubnames
                0x00000f8e       0x22 d:/modelsim_ase/quartus/quartus cyclone ii/nios2eds/bin/gnu/h-i686-mingw32/bin/../lib/gcc/nios2-elf/4.1.2\libgcc.a(_thenan_df.o)
 .debug_pubnames
                0x00000fb0       0x24 d:/modelsim_ase/quartus/quartus cyclone ii/nios2eds/bin/gnu/h-i686-mingw32/bin/../lib/gcc/nios2-elf/4.1.2\libgcc.a(_usi_to_df.o)
 .debug_pubnames
                0x00000fd4       0x1f d:/modelsim_ase/quartus/quartus cyclone ii/nios2eds/bin/gnu/h-i686-mingw32/bin/../lib/gcc/nios2-elf/4.1.2\libgcc.a(_muldi3.o)
 .debug_pubnames
                0x00000ff3       0x21 d:/modelsim_ase/quartus/quartus cyclone ii/nios2eds/bin/gnu/h-i686-mingw32/bin/../lib/gcc/nios2-elf/4.1.2\libgcc.a(_unpack_df.o)
 .debug_pubnames
                0x00001014       0x26 d:/modelsim_ase/quartus/quartus cyclone ii/nios2eds/bin/gnu/h-i686-mingw32/bin/../lib/gcc/nios2-elf/4.1.2\libgcc.a(_fpcmp_parts_df.o)
 .debug_pubnames
                0x0000103a       0x1c ../FPGA_Lab4_Software_bsp/\libhal_bsp.a(alt_close.o)
 .debug_pubnames
                0x00001056       0x63 ../FPGA_Lab4_Software_bsp/\libhal_bsp.a(alt_dev.o)
 .debug_pubnames
                0x000010b9       0x20 ../FPGA_Lab4_Software_bsp/\libhal_bsp.a(alt_errno.o)
 .debug_pubnames
                0x000010d9       0x1c ../FPGA_Lab4_Software_bsp/\libhal_bsp.a(alt_fstat.o)
 .debug_pubnames
                0x000010f5       0x27 ../FPGA_Lab4_Software_bsp/\libhal_bsp.a(alt_irq_register.o)
 .debug_pubnames
                0x0000111c       0x3b ../FPGA_Lab4_Software_bsp/\libhal_bsp.a(alt_irq_vars.o)
 .debug_pubnames
                0x00001157       0x1d ../FPGA_Lab4_Software_bsp/\libhal_bsp.a(alt_isatty.o)
 .debug_pubnames
                0x00001174       0x1f ../FPGA_Lab4_Software_bsp/\libhal_bsp.a(alt_load.o)
 .debug_pubnames
                0x00001193       0x1c ../FPGA_Lab4_Software_bsp/\libhal_bsp.a(alt_lseek.o)
 .debug_pubnames
                0x000011af       0x46 ../FPGA_Lab4_Software_bsp/\libhal_bsp.a(alt_main.o)
 .debug_pubnames
                0x000011f5       0x38 ../FPGA_Lab4_Software_bsp/\libhal_bsp.a(alt_malloc_lock.o)
 .debug_pubnames
                0x0000122d       0x21 ../FPGA_Lab4_Software_bsp/\libhal_bsp.a(alt_printf.o)
 .debug_pubnames
                0x0000124e       0x22 ../FPGA_Lab4_Software_bsp/\libhal_bsp.a(alt_putchar.o)
 .debug_pubnames
                0x00001270       0x1b ../FPGA_Lab4_Software_bsp/\libhal_bsp.a(alt_read.o)
 .debug_pubnames
                0x0000128b       0x25 ../FPGA_Lab4_Software_bsp/\libhal_bsp.a(alt_release_fd.o)
 .debug_pubnames
                0x000012b0       0x1b ../FPGA_Lab4_Software_bsp/\libhal_bsp.a(alt_sbrk.o)
 .debug_pubnames
                0x000012cb       0x1c ../FPGA_Lab4_Software_bsp/\libhal_bsp.a(alt_write.o)
 .debug_pubnames
                0x000012e7       0x34 ../FPGA_Lab4_Software_bsp/\libhal_bsp.a(alt_sys_init.o)
 .debug_pubnames
                0x0000131b       0xa5 ../FPGA_Lab4_Software_bsp/\libhal_bsp.a(altera_avalon_jtag_uart_fd.o)
 .debug_pubnames
                0x000013c0       0x55 ../FPGA_Lab4_Software_bsp/\libhal_bsp.a(altera_avalon_jtag_uart_init.o)
 .debug_pubnames
                0x00001415       0x34 ../FPGA_Lab4_Software_bsp/\libhal_bsp.a(altera_avalon_jtag_uart_ioctl.o)
 .debug_pubnames
                0x00001449       0x33 ../FPGA_Lab4_Software_bsp/\libhal_bsp.a(altera_avalon_jtag_uart_read.o)
 .debug_pubnames
                0x0000147c       0x34 ../FPGA_Lab4_Software_bsp/\libhal_bsp.a(altera_avalon_jtag_uart_write.o)
 .debug_pubnames
                0x000014b0       0x53 ../FPGA_Lab4_Software_bsp/\libhal_bsp.a(altera_avalon_timer_ts.o)
 .debug_pubnames
                0x00001503       0x52 ../FPGA_Lab4_Software_bsp/\libhal_bsp.a(altera_avalon_timer_vars.o)
 .debug_pubnames
                0x00001555      0x25e ../FPGA_Lab4_Software_bsp/\libhal_bsp.a(altera_up_avalon_audio.o)
 .debug_pubnames
                0x000017b3      0x1cd ../FPGA_Lab4_Software_bsp/\libhal_bsp.a(altera_up_avalon_character_lcd.o)
 .debug_pubnames
                0x00001980       0x34 ../FPGA_Lab4_Software_bsp/\libhal_bsp.a(altera_up_avalon_parallel_port.o)
 .debug_pubnames
                0x000019b4      0x1ed ../FPGA_Lab4_Software_bsp/\libhal_bsp.a(altera_up_avalon_ps2.o)
 .debug_pubnames
                0x00001ba1       0xa5 ../FPGA_Lab4_Software_bsp/\libhal_bsp.a(altera_up_avalon_video_character_buffer_with_dma.o)
 .debug_pubnames
                0x00001c46      0x1f1 ../FPGA_Lab4_Software_bsp/\libhal_bsp.a(altera_up_avalon_video_pixel_buffer_dma.o)
 .debug_pubnames
                0x00001e37       0x26 ../FPGA_Lab4_Software_bsp/\libhal_bsp.a(alt_alarm_start.o)
 .debug_pubnames
                0x00001e5d       0x2b ../FPGA_Lab4_Software_bsp/\libhal_bsp.a(alt_dcache_flush_all.o)
 .debug_pubnames
                0x00001e88       0x2b ../FPGA_Lab4_Software_bsp/\libhal_bsp.a(alt_dev_llist_insert.o)
 .debug_pubnames
                0x00001eb3       0x20 ../FPGA_Lab4_Software_bsp/\libhal_bsp.a(alt_do_ctors.o)
 .debug_pubnames
                0x00001ed3       0x20 ../FPGA_Lab4_Software_bsp/\libhal_bsp.a(alt_do_dtors.o)
 .debug_pubnames
                0x00001ef3       0x23 ../FPGA_Lab4_Software_bsp/\libhal_bsp.a(alt_find_dev.o)
 .debug_pubnames
                0x00001f16       0x2b ../FPGA_Lab4_Software_bsp/\libhal_bsp.a(alt_icache_flush_all.o)
 .debug_pubnames
                0x00001f41       0x6e ../FPGA_Lab4_Software_bsp/\libhal_bsp.a(alt_iic.o)
 .debug_pubnames
                0x00001faf       0x2b ../FPGA_Lab4_Software_bsp/\libhal_bsp.a(alt_iic_isr_register.o)
 .debug_pubnames
                0x00001fda       0x26 ../FPGA_Lab4_Software_bsp/\libhal_bsp.a(alt_io_redirect.o)
 .debug_pubnames
                0x00002000       0x32 ../FPGA_Lab4_Software_bsp/\libhal_bsp.a(alt_irq_handler.o)
 .debug_pubnames
                0x00002032       0x1b ../FPGA_Lab4_Software_bsp/\libhal_bsp.a(alt_open.o)
 .debug_pubnames
                0x0000204d       0x68 ../FPGA_Lab4_Software_bsp/\libhal_bsp.a(alt_tick.o)
 .debug_pubnames
                0x000020b5       0x31 ../FPGA_Lab4_Software_bsp/\libhal_bsp.a(altera_nios2_qsys_irq.o)
 .debug_pubnames
                0x000020e6       0x24 ../FPGA_Lab4_Software_bsp/\libhal_bsp.a(alt_find_file.o)
 .debug_pubnames
                0x0000210a       0x21 ../FPGA_Lab4_Software_bsp/\libhal_bsp.a(alt_get_fd.o)
 .debug_pubnames
                0x0000212b       0x27 ../FPGA_Lab4_Software_bsp/\libhal_bsp.a(alt_icache_flush.o)
 .debug_pubnames
                0x00002152       0x2a d:/modelsim_ase/quartus/quartus cyclone ii/nios2eds/bin/gnu/h-i686-mingw32/bin/../lib/gcc/nios2-elf/4.1.2/../../../../nios2-elf/lib\libc.a(lib_a-atexit.o)
 .debug_pubnames
                0x0000217c       0x1b d:/modelsim_ase/quartus/quartus cyclone ii/nios2eds/bin/gnu/h-i686-mingw32/bin/../lib/gcc/nios2-elf/4.1.2/../../../../nios2-elf/lib\libc.a(lib_a-exit.o)
 .debug_pubnames
                0x00002197       0x1d d:/modelsim_ase/quartus/quartus cyclone ii/nios2eds/bin/gnu/h-i686-mingw32/bin/../lib/gcc/nios2-elf/4.1.2/../../../../nios2-elf/lib\libc.a(lib_a-memcmp.o)
 .debug_pubnames
                0x000021b4       0x27 d:/modelsim_ase/quartus/quartus cyclone ii/nios2eds/bin/gnu/h-i686-mingw32/bin/../lib/gcc/nios2-elf/4.1.2/../../../../nios2-elf/lib\libc.a(lib_a-putc.o)
 .debug_pubnames
                0x000021db       0x2c d:/modelsim_ase/quartus/quartus cyclone ii/nios2eds/bin/gnu/h-i686-mingw32/bin/../lib/gcc/nios2-elf/4.1.2/../../../../nios2-elf/lib\libc.a(lib_a-wbuf.o)
 .debug_pubnames
                0x00002207       0x2a d:/modelsim_ase/quartus/quartus cyclone ii/nios2eds/bin/gnu/h-i686-mingw32/bin/../lib/gcc/nios2-elf/4.1.2/../../../../nios2-elf/lib\libc.a(lib_a-__atexit.o)
 .debug_pubnames
                0x00002231       0x27 d:/modelsim_ase/quartus/quartus cyclone ii/nios2eds/bin/gnu/h-i686-mingw32/bin/../lib/gcc/nios2-elf/4.1.2/../../../../nios2-elf/lib\libc.a(lib_a-__call_atexit.o)
 .debug_pubnames
                0x00002258       0x1c ../FPGA_Lab4_Software_bsp/\libhal_bsp.a(alt_exit.o)

.debug_info     0x00000000    0x2dae8
 *(.debug_info .gnu.linkonce.wi.*)
 .debug_info    0x00000000       0x9e ../FPGA_Lab4_Software_bsp//obj/HAL/src/crt0.o
 .debug_info    0x0000009e      0x8d1 obj/default/PS2_ISR.o
 .debug_info    0x0000096f      0xa20 obj/default/audio_ISR.o
 .debug_info    0x0000138f      0x8df obj/default/globals.o
 .debug_info    0x00001c6e      0x878 obj/default/interval_timer_ISR.o
 .debug_info    0x000024e6     0x179e obj/default/media_interrupt_HAL.o
 .debug_info    0x00003c84      0x88a obj/default/pushbutton_ISR.o
 .debug_info    0x0000450e      0x724 d:/modelsim_ase/quartus/quartus cyclone ii/nios2eds/bin/gnu/h-i686-mingw32/bin/../lib/gcc/nios2-elf/4.1.2\libgcc.a(_udivdi3.o)
 .debug_info    0x00004c32      0x214 d:/modelsim_ase/quartus/quartus cyclone ii/nios2eds/bin/gnu/h-i686-mingw32/bin/../lib/gcc/nios2-elf/4.1.2\libgcc.a(_si_to_sf.o)
 .debug_info    0x00004e46      0x2c1 d:/modelsim_ase/quartus/quartus cyclone ii/nios2eds/bin/gnu/h-i686-mingw32/bin/../lib/gcc/nios2-elf/4.1.2\libgcc.a(_sf_to_si.o)
 .debug_info    0x00005107      0x245 d:/modelsim_ase/quartus/quartus cyclone ii/nios2eds/bin/gnu/h-i686-mingw32/bin/../lib/gcc/nios2-elf/4.1.2\libgcc.a(_sf_to_df.o)
 .debug_info    0x0000534c      0x213 d:/modelsim_ase/quartus/quartus cyclone ii/nios2eds/bin/gnu/h-i686-mingw32/bin/../lib/gcc/nios2-elf/4.1.2\libgcc.a(_usi_to_sf.o)
 .debug_info    0x0000555f      0x1d6 d:/modelsim_ase/quartus/quartus cyclone ii/nios2eds/bin/gnu/h-i686-mingw32/bin/../lib/gcc/nios2-elf/4.1.2\libgcc.a(_make_df.o)
 .debug_info    0x00005735      0x21c d:/modelsim_ase/quartus/quartus cyclone ii/nios2eds/bin/gnu/h-i686-mingw32/bin/../lib/gcc/nios2-elf/4.1.2\libgcc.a(lib2-divmod.o)
 .debug_info    0x00005951       0xc9 d:/modelsim_ase/quartus/quartus cyclone ii/nios2eds/bin/gnu/h-i686-mingw32/bin/../lib/gcc/nios2-elf/4.1.2\libgcc.a(_clz.o)
 .debug_info    0x00005a1a      0x130 d:/modelsim_ase/quartus/quartus cyclone ii/nios2eds/bin/gnu/h-i686-mingw32/bin/../lib/gcc/nios2-elf/4.1.2\libgcc.a(_clzsi2.o)
 .debug_info    0x00005b4a      0x2f2 d:/modelsim_ase/quartus/quartus cyclone ii/nios2eds/bin/gnu/h-i686-mingw32/bin/../lib/gcc/nios2-elf/4.1.2\libgcc.a(_pack_sf.o)
 .debug_info    0x00005e3c      0x25a d:/modelsim_ase/quartus/quartus cyclone ii/nios2eds/bin/gnu/h-i686-mingw32/bin/../lib/gcc/nios2-elf/4.1.2\libgcc.a(_unpack_sf.o)
 .debug_info    0x00006096      0x2fc d:/modelsim_ase/quartus/quartus cyclone ii/nios2eds/bin/gnu/h-i686-mingw32/bin/../lib/gcc/nios2-elf/4.1.2\libgcc.a(_pack_df.o)
 .debug_info    0x00006392      0x106 d:/modelsim_ase/quartus/quartus cyclone ii/nios2eds/bin/gnu/h-i686-mingw32/bin/../lib/gcc/nios2-elf/4.1.2/../../../../nios2-elf/lib\libc.a(lib_a-memcpy.o)
 .debug_info    0x00006498      0x113 d:/modelsim_ase/quartus/quartus cyclone ii/nios2eds/bin/gnu/h-i686-mingw32/bin/../lib/gcc/nios2-elf/4.1.2/../../../../nios2-elf/lib\libc.a(lib_a-memset.o)
 .debug_info    0x000065ab      0x9d1 d:/modelsim_ase/quartus/quartus cyclone ii/nios2eds/bin/gnu/h-i686-mingw32/bin/../lib/gcc/nios2-elf/4.1.2/../../../../nios2-elf/lib\libc.a(lib_a-printf.o)
 .debug_info    0x00006f7c     0x10d5 d:/modelsim_ase/quartus/quartus cyclone ii/nios2eds/bin/gnu/h-i686-mingw32/bin/../lib/gcc/nios2-elf/4.1.2/../../../../nios2-elf/lib\libc.a(lib_a-vfprintf.o)
 .debug_info    0x00008051      0x95d d:/modelsim_ase/quartus/quartus cyclone ii/nios2eds/bin/gnu/h-i686-mingw32/bin/../lib/gcc/nios2-elf/4.1.2/../../../../nios2-elf/lib\libc.a(lib_a-wsetup.o)
 .debug_info    0x000089ae      0xd6f d:/modelsim_ase/quartus/quartus cyclone ii/nios2eds/bin/gnu/h-i686-mingw32/bin/../lib/gcc/nios2-elf/4.1.2/../../../../nios2-elf/lib\libc.a(lib_a-dtoa.o)
 .debug_info    0x0000971d      0x9fe d:/modelsim_ase/quartus/quartus cyclone ii/nios2eds/bin/gnu/h-i686-mingw32/bin/../lib/gcc/nios2-elf/4.1.2/../../../../nios2-elf/lib\libc.a(lib_a-fflush.o)
 .debug_info    0x0000a11b      0xb72 d:/modelsim_ase/quartus/quartus cyclone ii/nios2eds/bin/gnu/h-i686-mingw32/bin/../lib/gcc/nios2-elf/4.1.2/../../../../nios2-elf/lib\libc.a(lib_a-findfp.o)
 .debug_info    0x0000ac8d      0xbc9 d:/modelsim_ase/quartus/quartus cyclone ii/nios2eds/bin/gnu/h-i686-mingw32/bin/../lib/gcc/nios2-elf/4.1.2/../../../../nios2-elf/lib\libc.a(lib_a-freer.o)
 .debug_info    0x0000b856      0xa88 d:/modelsim_ase/quartus/quartus cyclone ii/nios2eds/bin/gnu/h-i686-mingw32/bin/../lib/gcc/nios2-elf/4.1.2/../../../../nios2-elf/lib\libc.a(lib_a-fvwrite.o)
 .debug_info    0x0000c2de      0xaed d:/modelsim_ase/quartus/quartus cyclone ii/nios2eds/bin/gnu/h-i686-mingw32/bin/../lib/gcc/nios2-elf/4.1.2/../../../../nios2-elf/lib\libc.a(lib_a-fwalk.o)
 .debug_info    0x0000cdcb      0x93d d:/modelsim_ase/quartus/quartus cyclone ii/nios2eds/bin/gnu/h-i686-mingw32/bin/../lib/gcc/nios2-elf/4.1.2/../../../../nios2-elf/lib\libc.a(lib_a-impure.o)
 .debug_info    0x0000d708      0xb97 d:/modelsim_ase/quartus/quartus cyclone ii/nios2eds/bin/gnu/h-i686-mingw32/bin/../lib/gcc/nios2-elf/4.1.2/../../../../nios2-elf/lib\libc.a(lib_a-locale.o)
 .debug_info    0x0000e29f      0xb1a d:/modelsim_ase/quartus/quartus cyclone ii/nios2eds/bin/gnu/h-i686-mingw32/bin/../lib/gcc/nios2-elf/4.1.2/../../../../nios2-elf/lib\libc.a(lib_a-makebuf.o)
 .debug_info    0x0000edb9      0xcd0 d:/modelsim_ase/quartus/quartus cyclone ii/nios2eds/bin/gnu/h-i686-mingw32/bin/../lib/gcc/nios2-elf/4.1.2/../../../../nios2-elf/lib\libc.a(lib_a-mallocr.o)
 .debug_info    0x0000fa89      0x138 d:/modelsim_ase/quartus/quartus cyclone ii/nios2eds/bin/gnu/h-i686-mingw32/bin/../lib/gcc/nios2-elf/4.1.2/../../../../nios2-elf/lib\libc.a(lib_a-memchr.o)
 .debug_info    0x0000fbc1      0x13e d:/modelsim_ase/quartus/quartus cyclone ii/nios2eds/bin/gnu/h-i686-mingw32/bin/../lib/gcc/nios2-elf/4.1.2/../../../../nios2-elf/lib\libc.a(lib_a-memmove.o)
 .debug_info    0x0000fcff     0x1437 d:/modelsim_ase/quartus/quartus cyclone ii/nios2eds/bin/gnu/h-i686-mingw32/bin/../lib/gcc/nios2-elf/4.1.2/../../../../nios2-elf/lib\libc.a(lib_a-mprec.o)
 .debug_info    0x00011136      0xbd7 d:/modelsim_ase/quartus/quartus cyclone ii/nios2eds/bin/gnu/h-i686-mingw32/bin/../lib/gcc/nios2-elf/4.1.2/../../../../nios2-elf/lib\libc.a(lib_a-reallocr.o)
 .debug_info    0x00011d0d       0xd7 d:/modelsim_ase/quartus/quartus cyclone ii/nios2eds/bin/gnu/h-i686-mingw32/bin/../lib/gcc/nios2-elf/4.1.2/../../../../nios2-elf/lib\libc.a(lib_a-s_isinfd.o)
 .debug_info    0x00011de4       0xd5 d:/modelsim_ase/quartus/quartus cyclone ii/nios2eds/bin/gnu/h-i686-mingw32/bin/../lib/gcc/nios2-elf/4.1.2/../../../../nios2-elf/lib\libc.a(lib_a-s_isnand.o)
 .debug_info    0x00011eb9      0x962 d:/modelsim_ase/quartus/quartus cyclone ii/nios2eds/bin/gnu/h-i686-mingw32/bin/../lib/gcc/nios2-elf/4.1.2/../../../../nios2-elf/lib\libc.a(lib_a-sbrkr.o)
 .debug_info    0x0001281b      0xaac d:/modelsim_ase/quartus/quartus cyclone ii/nios2eds/bin/gnu/h-i686-mingw32/bin/../lib/gcc/nios2-elf/4.1.2/../../../../nios2-elf/lib\libc.a(lib_a-stdio.o)
 .debug_info    0x000132c7       0xdd d:/modelsim_ase/quartus/quartus cyclone ii/nios2eds/bin/gnu/h-i686-mingw32/bin/../lib/gcc/nios2-elf/4.1.2/../../../../nios2-elf/lib\libc.a(lib_a-strcmp.o)
 .debug_info    0x000133a4       0xdb d:/modelsim_ase/quartus/quartus cyclone ii/nios2eds/bin/gnu/h-i686-mingw32/bin/../lib/gcc/nios2-elf/4.1.2/../../../../nios2-elf/lib\libc.a(lib_a-strlen.o)
 .debug_info    0x0001347f      0x993 d:/modelsim_ase/quartus/quartus cyclone ii/nios2eds/bin/gnu/h-i686-mingw32/bin/../lib/gcc/nios2-elf/4.1.2/../../../../nios2-elf/lib\libc.a(lib_a-writer.o)
 .debug_info    0x00013e12      0xa1b d:/modelsim_ase/quartus/quartus cyclone ii/nios2eds/bin/gnu/h-i686-mingw32/bin/../lib/gcc/nios2-elf/4.1.2/../../../../nios2-elf/lib\libc.a(lib_a-callocr.o)
 .debug_info    0x0001482d      0x958 d:/modelsim_ase/quartus/quartus cyclone ii/nios2eds/bin/gnu/h-i686-mingw32/bin/../lib/gcc/nios2-elf/4.1.2/../../../../nios2-elf/lib\libc.a(lib_a-closer.o)
 .debug_info    0x00015185      0x994 d:/modelsim_ase/quartus/quartus cyclone ii/nios2eds/bin/gnu/h-i686-mingw32/bin/../lib/gcc/nios2-elf/4.1.2/../../../../nios2-elf/lib\libc.a(lib_a-fclose.o)
 .debug_info    0x00015b19      0xafc d:/modelsim_ase/quartus/quartus cyclone ii/nios2eds/bin/gnu/h-i686-mingw32/bin/../lib/gcc/nios2-elf/4.1.2/../../../../nios2-elf/lib\libc.a(lib_a-fstatr.o)
 .debug_info    0x00016615       0x8c d:/modelsim_ase/quartus/quartus cyclone ii/nios2eds/bin/gnu/h-i686-mingw32/bin/../lib/gcc/nios2-elf/4.1.2/../../../../nios2-elf/lib\libc.a(lib_a-int_errno.o)
 .debug_info    0x000166a1      0x958 d:/modelsim_ase/quartus/quartus cyclone ii/nios2eds/bin/gnu/h-i686-mingw32/bin/../lib/gcc/nios2-elf/4.1.2/../../../../nios2-elf/lib\libc.a(lib_a-isattyr.o)
 .debug_info    0x00016ff9      0x981 d:/modelsim_ase/quartus/quartus cyclone ii/nios2eds/bin/gnu/h-i686-mingw32/bin/../lib/gcc/nios2-elf/4.1.2/../../../../nios2-elf/lib\libc.a(lib_a-lseekr.o)
 .debug_info    0x0001797a      0x98c d:/modelsim_ase/quartus/quartus cyclone ii/nios2eds/bin/gnu/h-i686-mingw32/bin/../lib/gcc/nios2-elf/4.1.2/../../../../nios2-elf/lib\libc.a(lib_a-readr.o)
 .debug_info    0x00018306      0x751 d:/modelsim_ase/quartus/quartus cyclone ii/nios2eds/bin/gnu/h-i686-mingw32/bin/../lib/gcc/nios2-elf/4.1.2\libgcc.a(_umoddi3.o)
 .debug_info    0x00018a57      0x493 d:/modelsim_ase/quartus/quartus cyclone ii/nios2eds/bin/gnu/h-i686-mingw32/bin/../lib/gcc/nios2-elf/4.1.2\libgcc.a(_addsub_df.o)
 .debug_info    0x00018eea      0x488 d:/modelsim_ase/quartus/quartus cyclone ii/nios2eds/bin/gnu/h-i686-mingw32/bin/../lib/gcc/nios2-elf/4.1.2\libgcc.a(_mul_df.o)
 .debug_info    0x00019372      0x39b d:/modelsim_ase/quartus/quartus cyclone ii/nios2eds/bin/gnu/h-i686-mingw32/bin/../lib/gcc/nios2-elf/4.1.2\libgcc.a(_div_df.o)
 .debug_info    0x0001970d      0x29d d:/modelsim_ase/quartus/quartus cyclone ii/nios2eds/bin/gnu/h-i686-mingw32/bin/../lib/gcc/nios2-elf/4.1.2\libgcc.a(_eq_df.o)
 .debug_info    0x000199aa      0x29d d:/modelsim_ase/quartus/quartus cyclone ii/nios2eds/bin/gnu/h-i686-mingw32/bin/../lib/gcc/nios2-elf/4.1.2\libgcc.a(_ne_df.o)
 .debug_info    0x00019c47      0x29d d:/modelsim_ase/quartus/quartus cyclone ii/nios2eds/bin/gnu/h-i686-mingw32/bin/../lib/gcc/nios2-elf/4.1.2\libgcc.a(_gt_df.o)
 .debug_info    0x00019ee4      0x29d d:/modelsim_ase/quartus/quartus cyclone ii/nios2eds/bin/gnu/h-i686-mingw32/bin/../lib/gcc/nios2-elf/4.1.2\libgcc.a(_ge_df.o)
 .debug_info    0x0001a181      0x29d d:/modelsim_ase/quartus/quartus cyclone ii/nios2eds/bin/gnu/h-i686-mingw32/bin/../lib/gcc/nios2-elf/4.1.2\libgcc.a(_lt_df.o)
 .debug_info    0x0001a41e      0x218 d:/modelsim_ase/quartus/quartus cyclone ii/nios2eds/bin/gnu/h-i686-mingw32/bin/../lib/gcc/nios2-elf/4.1.2\libgcc.a(_si_to_df.o)
 .debug_info    0x0001a636      0x2cd d:/modelsim_ase/quartus/quartus cyclone ii/nios2eds/bin/gnu/h-i686-mingw32/bin/../lib/gcc/nios2-elf/4.1.2\libgcc.a(_df_to_si.o)
 .debug_info    0x0001a903      0x164 d:/modelsim_ase/quartus/quartus cyclone ii/nios2eds/bin/gnu/h-i686-mingw32/bin/../lib/gcc/nios2-elf/4.1.2\libgcc.a(_thenan_df.o)
 .debug_info    0x0001aa67      0x213 d:/modelsim_ase/quartus/quartus cyclone ii/nios2eds/bin/gnu/h-i686-mingw32/bin/../lib/gcc/nios2-elf/4.1.2\libgcc.a(_usi_to_df.o)
 .debug_info    0x0001ac7a      0x215 d:/modelsim_ase/quartus/quartus cyclone ii/nios2eds/bin/gnu/h-i686-mingw32/bin/../lib/gcc/nios2-elf/4.1.2\libgcc.a(_muldi3.o)
 .debug_info    0x0001ae8f      0x268 d:/modelsim_ase/quartus/quartus cyclone ii/nios2eds/bin/gnu/h-i686-mingw32/bin/../lib/gcc/nios2-elf/4.1.2\libgcc.a(_unpack_df.o)
 .debug_info    0x0001b0f7      0x21b d:/modelsim_ase/quartus/quartus cyclone ii/nios2eds/bin/gnu/h-i686-mingw32/bin/../lib/gcc/nios2-elf/4.1.2\libgcc.a(_fpcmp_parts_df.o)
 .debug_info    0x0001b312      0x48a ../FPGA_Lab4_Software_bsp/\libhal_bsp.a(alt_close.o)
 .debug_info    0x0001b79c      0x6a2 ../FPGA_Lab4_Software_bsp/\libhal_bsp.a(alt_dev.o)
 .debug_info    0x0001be3e      0x187 ../FPGA_Lab4_Software_bsp/\libhal_bsp.a(alt_errno.o)
 .debug_info    0x0001bfc5      0x683 ../FPGA_Lab4_Software_bsp/\libhal_bsp.a(alt_fstat.o)
 .debug_info    0x0001c648      0x44d ../FPGA_Lab4_Software_bsp/\libhal_bsp.a(alt_irq_register.o)
 .debug_info    0x0001ca95      0x18a ../FPGA_Lab4_Software_bsp/\libhal_bsp.a(alt_irq_vars.o)
 .debug_info    0x0001cc1f      0x689 ../FPGA_Lab4_Software_bsp/\libhal_bsp.a(alt_isatty.o)
 .debug_info    0x0001d2a8      0x2b0 ../FPGA_Lab4_Software_bsp/\libhal_bsp.a(alt_load.o)
 .debug_info    0x0001d558      0x4bd ../FPGA_Lab4_Software_bsp/\libhal_bsp.a(alt_lseek.o)
 .debug_info    0x0001da15      0x248 ../FPGA_Lab4_Software_bsp/\libhal_bsp.a(alt_main.o)
 .debug_info    0x0001dc5d      0xc3b ../FPGA_Lab4_Software_bsp/\libhal_bsp.a(alt_malloc_lock.o)
 .debug_info    0x0001e898      0x1cb ../FPGA_Lab4_Software_bsp/\libhal_bsp.a(alt_printf.o)
 .debug_info    0x0001ea63      0xc1f ../FPGA_Lab4_Software_bsp/\libhal_bsp.a(alt_putchar.o)
 .debug_info    0x0001f682      0x6ad ../FPGA_Lab4_Software_bsp/\libhal_bsp.a(alt_read.o)
 .debug_info    0x0001fd2f      0x415 ../FPGA_Lab4_Software_bsp/\libhal_bsp.a(alt_release_fd.o)
 .debug_info    0x00020144      0x2da ../FPGA_Lab4_Software_bsp/\libhal_bsp.a(alt_sbrk.o)
 .debug_info    0x0002041e      0x6b6 ../FPGA_Lab4_Software_bsp/\libhal_bsp.a(alt_write.o)
 .debug_info    0x00020ad4      0x743 ../FPGA_Lab4_Software_bsp/\libhal_bsp.a(alt_sys_init.o)
 .debug_info    0x00021217      0x7fc ../FPGA_Lab4_Software_bsp/\libhal_bsp.a(altera_avalon_jtag_uart_fd.o)
 .debug_info    0x00021a13      0x624 ../FPGA_Lab4_Software_bsp/\libhal_bsp.a(altera_avalon_jtag_uart_init.o)
 .debug_info    0x00022037      0x466 ../FPGA_Lab4_Software_bsp/\libhal_bsp.a(altera_avalon_jtag_uart_ioctl.o)
 .debug_info    0x0002249d      0x569 ../FPGA_Lab4_Software_bsp/\libhal_bsp.a(altera_avalon_jtag_uart_read.o)
 .debug_info    0x00022a06      0x561 ../FPGA_Lab4_Software_bsp/\libhal_bsp.a(altera_avalon_jtag_uart_write.o)
 .debug_info    0x00022f67      0x2e4 ../FPGA_Lab4_Software_bsp/\libhal_bsp.a(altera_avalon_timer_ts.o)
 .debug_info    0x0002324b      0x22a ../FPGA_Lab4_Software_bsp/\libhal_bsp.a(altera_avalon_timer_vars.o)
 .debug_info    0x00023475      0xaf7 ../FPGA_Lab4_Software_bsp/\libhal_bsp.a(altera_up_avalon_audio.o)
 .debug_info    0x00023f6c      0x90c ../FPGA_Lab4_Software_bsp/\libhal_bsp.a(altera_up_avalon_character_lcd.o)
 .debug_info    0x00024878      0x4b1 ../FPGA_Lab4_Software_bsp/\libhal_bsp.a(altera_up_avalon_parallel_port.o)
 .debug_info    0x00024d29      0xb10 ../FPGA_Lab4_Software_bsp/\libhal_bsp.a(altera_up_avalon_ps2.o)
 .debug_info    0x00025839      0x6b5 ../FPGA_Lab4_Software_bsp/\libhal_bsp.a(altera_up_avalon_video_character_buffer_with_dma.o)
 .debug_info    0x00025eee      0xea1 ../FPGA_Lab4_Software_bsp/\libhal_bsp.a(altera_up_avalon_video_pixel_buffer_dma.o)
 .debug_info    0x00026d8f      0x465 ../FPGA_Lab4_Software_bsp/\libhal_bsp.a(alt_alarm_start.o)
 .debug_info    0x000271f4      0x17f ../FPGA_Lab4_Software_bsp/\libhal_bsp.a(alt_dcache_flush_all.o)
 .debug_info    0x00027373      0x2da ../FPGA_Lab4_Software_bsp/\libhal_bsp.a(alt_dev_llist_insert.o)
 .debug_info    0x0002764d      0x132 ../FPGA_Lab4_Software_bsp/\libhal_bsp.a(alt_do_ctors.o)
 .debug_info    0x0002777f      0x131 ../FPGA_Lab4_Software_bsp/\libhal_bsp.a(alt_do_dtors.o)
 .debug_info    0x000278b0      0x43b ../FPGA_Lab4_Software_bsp/\libhal_bsp.a(alt_find_dev.o)
 .debug_info    0x00027ceb      0x17f ../FPGA_Lab4_Software_bsp/\libhal_bsp.a(alt_icache_flush_all.o)
 .debug_info    0x00027e6a      0x4b6 ../FPGA_Lab4_Software_bsp/\libhal_bsp.a(alt_iic.o)
 .debug_info    0x00028320      0x337 ../FPGA_Lab4_Software_bsp/\libhal_bsp.a(alt_iic_isr_register.o)
 .debug_info    0x00028657      0x6b8 ../FPGA_Lab4_Software_bsp/\libhal_bsp.a(alt_io_redirect.o)
 .debug_info    0x00028d0f       0xa7 ../FPGA_Lab4_Software_bsp/\libhal_bsp.a(alt_irq_entry.o)
 .debug_info    0x00028db6      0x298 ../FPGA_Lab4_Software_bsp/\libhal_bsp.a(alt_irq_handler.o)
 .debug_info    0x0002904e      0x548 ../FPGA_Lab4_Software_bsp/\libhal_bsp.a(alt_open.o)
 .debug_info    0x00029596      0x421 ../FPGA_Lab4_Software_bsp/\libhal_bsp.a(alt_tick.o)
 .debug_info    0x000299b7      0x186 ../FPGA_Lab4_Software_bsp/\libhal_bsp.a(altera_nios2_qsys_irq.o)
 .debug_info    0x00029b3d       0xad ../FPGA_Lab4_Software_bsp/\libhal_bsp.a(alt_exception_entry.o)
 .debug_info    0x00029bea      0x442 ../FPGA_Lab4_Software_bsp/\libhal_bsp.a(alt_find_file.o)
 .debug_info    0x0002a02c      0x483 ../FPGA_Lab4_Software_bsp/\libhal_bsp.a(alt_get_fd.o)
 .debug_info    0x0002a4af      0x1c7 ../FPGA_Lab4_Software_bsp/\libhal_bsp.a(alt_icache_flush.o)
 .debug_info    0x0002a676      0x181 d:/modelsim_ase/quartus/quartus cyclone ii/nios2eds/bin/gnu/h-i686-mingw32/bin/../lib/gcc/nios2-elf/4.1.2/../../../../nios2-elf/lib\libc.a(lib_a-atexit.o)
 .debug_info    0x0002a7f7      0x93f d:/modelsim_ase/quartus/quartus cyclone ii/nios2eds/bin/gnu/h-i686-mingw32/bin/../lib/gcc/nios2-elf/4.1.2/../../../../nios2-elf/lib\libc.a(lib_a-exit.o)
 .debug_info    0x0002b136      0x115 d:/modelsim_ase/quartus/quartus cyclone ii/nios2eds/bin/gnu/h-i686-mingw32/bin/../lib/gcc/nios2-elf/4.1.2/../../../../nios2-elf/lib\libc.a(lib_a-memcmp.o)
 .debug_info    0x0002b24b      0x9c1 d:/modelsim_ase/quartus/quartus cyclone ii/nios2eds/bin/gnu/h-i686-mingw32/bin/../lib/gcc/nios2-elf/4.1.2/../../../../nios2-elf/lib\libc.a(lib_a-putc.o)
 .debug_info    0x0002bc0c      0x9ae d:/modelsim_ase/quartus/quartus cyclone ii/nios2eds/bin/gnu/h-i686-mingw32/bin/../lib/gcc/nios2-elf/4.1.2/../../../../nios2-elf/lib\libc.a(lib_a-wbuf.o)
 .debug_info    0x0002c5ba      0x99c d:/modelsim_ase/quartus/quartus cyclone ii/nios2eds/bin/gnu/h-i686-mingw32/bin/../lib/gcc/nios2-elf/4.1.2/../../../../nios2-elf/lib\libc.a(lib_a-__atexit.o)
 .debug_info    0x0002cf56      0x9e2 d:/modelsim_ase/quartus/quartus cyclone ii/nios2eds/bin/gnu/h-i686-mingw32/bin/../lib/gcc/nios2-elf/4.1.2/../../../../nios2-elf/lib\libc.a(lib_a-__call_atexit.o)
 .debug_info    0x0002d938      0x1b0 ../FPGA_Lab4_Software_bsp/\libhal_bsp.a(alt_exit.o)

.debug_abbrev   0x00000000     0x95bf
 *(.debug_abbrev)
 .debug_abbrev  0x00000000       0x12 ../FPGA_Lab4_Software_bsp//obj/HAL/src/crt0.o
 .debug_abbrev  0x00000012      0x126 obj/default/PS2_ISR.o
 .debug_abbrev  0x00000138      0x152 obj/default/audio_ISR.o
 .debug_abbrev  0x0000028a       0xf1 obj/default/globals.o
 .debug_abbrev  0x0000037b      0x115 obj/default/interval_timer_ISR.o
 .debug_abbrev  0x00000490      0x1e5 obj/default/media_interrupt_HAL.o
 .debug_abbrev  0x00000675      0x124 obj/default/pushbutton_ISR.o
 .debug_abbrev  0x00000799      0x16b d:/modelsim_ase/quartus/quartus cyclone ii/nios2eds/bin/gnu/h-i686-mingw32/bin/../lib/gcc/nios2-elf/4.1.2\libgcc.a(_udivdi3.o)
 .debug_abbrev  0x00000904      0x13d d:/modelsim_ase/quartus/quartus cyclone ii/nios2eds/bin/gnu/h-i686-mingw32/bin/../lib/gcc/nios2-elf/4.1.2\libgcc.a(_si_to_sf.o)
 .debug_abbrev  0x00000a41      0x176 d:/modelsim_ase/quartus/quartus cyclone ii/nios2eds/bin/gnu/h-i686-mingw32/bin/../lib/gcc/nios2-elf/4.1.2\libgcc.a(_sf_to_si.o)
 .debug_abbrev  0x00000bb7      0x128 d:/modelsim_ase/quartus/quartus cyclone ii/nios2eds/bin/gnu/h-i686-mingw32/bin/../lib/gcc/nios2-elf/4.1.2\libgcc.a(_sf_to_df.o)
 .debug_abbrev  0x00000cdf      0x155 d:/modelsim_ase/quartus/quartus cyclone ii/nios2eds/bin/gnu/h-i686-mingw32/bin/../lib/gcc/nios2-elf/4.1.2\libgcc.a(_usi_to_sf.o)
 .debug_abbrev  0x00000e34      0x10f d:/modelsim_ase/quartus/quartus cyclone ii/nios2eds/bin/gnu/h-i686-mingw32/bin/../lib/gcc/nios2-elf/4.1.2\libgcc.a(_make_df.o)
 .debug_abbrev  0x00000f43       0xe0 d:/modelsim_ase/quartus/quartus cyclone ii/nios2eds/bin/gnu/h-i686-mingw32/bin/../lib/gcc/nios2-elf/4.1.2\libgcc.a(lib2-divmod.o)
 .debug_abbrev  0x00001023       0x61 d:/modelsim_ase/quartus/quartus cyclone ii/nios2eds/bin/gnu/h-i686-mingw32/bin/../lib/gcc/nios2-elf/4.1.2\libgcc.a(_clz.o)
 .debug_abbrev  0x00001084       0xb9 d:/modelsim_ase/quartus/quartus cyclone ii/nios2eds/bin/gnu/h-i686-mingw32/bin/../lib/gcc/nios2-elf/4.1.2\libgcc.a(_clzsi2.o)
 .debug_abbrev  0x0000113d      0x1aa d:/modelsim_ase/quartus/quartus cyclone ii/nios2eds/bin/gnu/h-i686-mingw32/bin/../lib/gcc/nios2-elf/4.1.2\libgcc.a(_pack_sf.o)
 .debug_abbrev  0x000012e7      0x158 d:/modelsim_ase/quartus/quartus cyclone ii/nios2eds/bin/gnu/h-i686-mingw32/bin/../lib/gcc/nios2-elf/4.1.2\libgcc.a(_unpack_sf.o)
 .debug_abbrev  0x0000143f      0x1b1 d:/modelsim_ase/quartus/quartus cyclone ii/nios2eds/bin/gnu/h-i686-mingw32/bin/../lib/gcc/nios2-elf/4.1.2\libgcc.a(_pack_df.o)
 .debug_abbrev  0x000015f0       0xb5 d:/modelsim_ase/quartus/quartus cyclone ii/nios2eds/bin/gnu/h-i686-mingw32/bin/../lib/gcc/nios2-elf/4.1.2/../../../../nios2-elf/lib\libc.a(lib_a-memcpy.o)
 .debug_abbrev  0x000016a5       0xb8 d:/modelsim_ase/quartus/quartus cyclone ii/nios2eds/bin/gnu/h-i686-mingw32/bin/../lib/gcc/nios2-elf/4.1.2/../../../../nios2-elf/lib\libc.a(lib_a-memset.o)
 .debug_abbrev  0x0000175d      0x191 d:/modelsim_ase/quartus/quartus cyclone ii/nios2eds/bin/gnu/h-i686-mingw32/bin/../lib/gcc/nios2-elf/4.1.2/../../../../nios2-elf/lib\libc.a(lib_a-printf.o)
 .debug_abbrev  0x000018ee      0x30a d:/modelsim_ase/quartus/quartus cyclone ii/nios2eds/bin/gnu/h-i686-mingw32/bin/../lib/gcc/nios2-elf/4.1.2/../../../../nios2-elf/lib\libc.a(lib_a-vfprintf.o)
 .debug_abbrev  0x00001bf8      0x170 d:/modelsim_ase/quartus/quartus cyclone ii/nios2eds/bin/gnu/h-i686-mingw32/bin/../lib/gcc/nios2-elf/4.1.2/../../../../nios2-elf/lib\libc.a(lib_a-wsetup.o)
 .debug_abbrev  0x00001d68      0x232 d:/modelsim_ase/quartus/quartus cyclone ii/nios2eds/bin/gnu/h-i686-mingw32/bin/../lib/gcc/nios2-elf/4.1.2/../../../../nios2-elf/lib\libc.a(lib_a-dtoa.o)
 .debug_abbrev  0x00001f9a      0x1c6 d:/modelsim_ase/quartus/quartus cyclone ii/nios2eds/bin/gnu/h-i686-mingw32/bin/../lib/gcc/nios2-elf/4.1.2/../../../../nios2-elf/lib\libc.a(lib_a-fflush.o)
 .debug_abbrev  0x00002160      0x24c d:/modelsim_ase/quartus/quartus cyclone ii/nios2eds/bin/gnu/h-i686-mingw32/bin/../lib/gcc/nios2-elf/4.1.2/../../../../nios2-elf/lib\libc.a(lib_a-findfp.o)
 .debug_abbrev  0x000023ac      0x1d9 d:/modelsim_ase/quartus/quartus cyclone ii/nios2eds/bin/gnu/h-i686-mingw32/bin/../lib/gcc/nios2-elf/4.1.2/../../../../nios2-elf/lib\libc.a(lib_a-freer.o)
 .debug_abbrev  0x00002585      0x1a3 d:/modelsim_ase/quartus/quartus cyclone ii/nios2eds/bin/gnu/h-i686-mingw32/bin/../lib/gcc/nios2-elf/4.1.2/../../../../nios2-elf/lib\libc.a(lib_a-fvwrite.o)
 .debug_abbrev  0x00002728      0x1e3 d:/modelsim_ase/quartus/quartus cyclone ii/nios2eds/bin/gnu/h-i686-mingw32/bin/../lib/gcc/nios2-elf/4.1.2/../../../../nios2-elf/lib\libc.a(lib_a-fwalk.o)
 .debug_abbrev  0x0000290b      0x157 d:/modelsim_ase/quartus/quartus cyclone ii/nios2eds/bin/gnu/h-i686-mingw32/bin/../lib/gcc/nios2-elf/4.1.2/../../../../nios2-elf/lib\libc.a(lib_a-impure.o)
 .debug_abbrev  0x00002a62      0x1ed d:/modelsim_ase/quartus/quartus cyclone ii/nios2eds/bin/gnu/h-i686-mingw32/bin/../lib/gcc/nios2-elf/4.1.2/../../../../nios2-elf/lib\libc.a(lib_a-locale.o)
 .debug_abbrev  0x00002c4f      0x197 d:/modelsim_ase/quartus/quartus cyclone ii/nios2eds/bin/gnu/h-i686-mingw32/bin/../lib/gcc/nios2-elf/4.1.2/../../../../nios2-elf/lib\libc.a(lib_a-makebuf.o)
 .debug_abbrev  0x00002de6      0x216 d:/modelsim_ase/quartus/quartus cyclone ii/nios2eds/bin/gnu/h-i686-mingw32/bin/../lib/gcc/nios2-elf/4.1.2/../../../../nios2-elf/lib\libc.a(lib_a-mallocr.o)
 .debug_abbrev  0x00002ffc       0xb5 d:/modelsim_ase/quartus/quartus cyclone ii/nios2eds/bin/gnu/h-i686-mingw32/bin/../lib/gcc/nios2-elf/4.1.2/../../../../nios2-elf/lib\libc.a(lib_a-memchr.o)
 .debug_abbrev  0x000030b1       0xb5 d:/modelsim_ase/quartus/quartus cyclone ii/nios2eds/bin/gnu/h-i686-mingw32/bin/../lib/gcc/nios2-elf/4.1.2/../../../../nios2-elf/lib\libc.a(lib_a-memmove.o)
 .debug_abbrev  0x00003166      0x297 d:/modelsim_ase/quartus/quartus cyclone ii/nios2eds/bin/gnu/h-i686-mingw32/bin/../lib/gcc/nios2-elf/4.1.2/../../../../nios2-elf/lib\libc.a(lib_a-mprec.o)
 .debug_abbrev  0x000033fd      0x1c3 d:/modelsim_ase/quartus/quartus cyclone ii/nios2eds/bin/gnu/h-i686-mingw32/bin/../lib/gcc/nios2-elf/4.1.2/../../../../nios2-elf/lib\libc.a(lib_a-reallocr.o)
 .debug_abbrev  0x000035c0       0x79 d:/modelsim_ase/quartus/quartus cyclone ii/nios2eds/bin/gnu/h-i686-mingw32/bin/../lib/gcc/nios2-elf/4.1.2/../../../../nios2-elf/lib\libc.a(lib_a-s_isinfd.o)
 .debug_abbrev  0x00003639       0x79 d:/modelsim_ase/quartus/quartus cyclone ii/nios2eds/bin/gnu/h-i686-mingw32/bin/../lib/gcc/nios2-elf/4.1.2/../../../../nios2-elf/lib\libc.a(lib_a-s_isnand.o)
 .debug_abbrev  0x000036b2      0x18c d:/modelsim_ase/quartus/quartus cyclone ii/nios2eds/bin/gnu/h-i686-mingw32/bin/../lib/gcc/nios2-elf/4.1.2/../../../../nios2-elf/lib\libc.a(lib_a-sbrkr.o)
 .debug_abbrev  0x0000383e      0x1c9 d:/modelsim_ase/quartus/quartus cyclone ii/nios2eds/bin/gnu/h-i686-mingw32/bin/../lib/gcc/nios2-elf/4.1.2/../../../../nios2-elf/lib\libc.a(lib_a-stdio.o)
 .debug_abbrev  0x00003a07       0x80 d:/modelsim_ase/quartus/quartus cyclone ii/nios2eds/bin/gnu/h-i686-mingw32/bin/../lib/gcc/nios2-elf/4.1.2/../../../../nios2-elf/lib\libc.a(lib_a-strcmp.o)
 .debug_abbrev  0x00003a87       0x8b d:/modelsim_ase/quartus/quartus cyclone ii/nios2eds/bin/gnu/h-i686-mingw32/bin/../lib/gcc/nios2-elf/4.1.2/../../../../nios2-elf/lib\libc.a(lib_a-strlen.o)
 .debug_abbrev  0x00003b12      0x184 d:/modelsim_ase/quartus/quartus cyclone ii/nios2eds/bin/gnu/h-i686-mingw32/bin/../lib/gcc/nios2-elf/4.1.2/../../../../nios2-elf/lib\libc.a(lib_a-writer.o)
 .debug_abbrev  0x00003c96      0x1b8 d:/modelsim_ase/quartus/quartus cyclone ii/nios2eds/bin/gnu/h-i686-mingw32/bin/../lib/gcc/nios2-elf/4.1.2/../../../../nios2-elf/lib\libc.a(lib_a-callocr.o)
 .debug_abbrev  0x00003e4e      0x17f d:/modelsim_ase/quartus/quartus cyclone ii/nios2eds/bin/gnu/h-i686-mingw32/bin/../lib/gcc/nios2-elf/4.1.2/../../../../nios2-elf/lib\libc.a(lib_a-closer.o)
 .debug_abbrev  0x00003fcd      0x1a7 d:/modelsim_ase/quartus/quartus cyclone ii/nios2eds/bin/gnu/h-i686-mingw32/bin/../lib/gcc/nios2-elf/4.1.2/../../../../nios2-elf/lib\libc.a(lib_a-fclose.o)
 .debug_abbrev  0x00004174      0x18e d:/modelsim_ase/quartus/quartus cyclone ii/nios2eds/bin/gnu/h-i686-mingw32/bin/../lib/gcc/nios2-elf/4.1.2/../../../../nios2-elf/lib\libc.a(lib_a-fstatr.o)
 .debug_abbrev  0x00004302       0x3b d:/modelsim_ase/quartus/quartus cyclone ii/nios2eds/bin/gnu/h-i686-mingw32/bin/../lib/gcc/nios2-elf/4.1.2/../../../../nios2-elf/lib\libc.a(lib_a-int_errno.o)
 .debug_abbrev  0x0000433d      0x17f d:/modelsim_ase/quartus/quartus cyclone ii/nios2eds/bin/gnu/h-i686-mingw32/bin/../lib/gcc/nios2-elf/4.1.2/../../../../nios2-elf/lib\libc.a(lib_a-isattyr.o)
 .debug_abbrev  0x000044bc      0x18e d:/modelsim_ase/quartus/quartus cyclone ii/nios2eds/bin/gnu/h-i686-mingw32/bin/../lib/gcc/nios2-elf/4.1.2/../../../../nios2-elf/lib\libc.a(lib_a-lseekr.o)
 .debug_abbrev  0x0000464a      0x17f d:/modelsim_ase/quartus/quartus cyclone ii/nios2eds/bin/gnu/h-i686-mingw32/bin/../lib/gcc/nios2-elf/4.1.2/../../../../nios2-elf/lib\libc.a(lib_a-readr.o)
 .debug_abbrev  0x000047c9      0x18e d:/modelsim_ase/quartus/quartus cyclone ii/nios2eds/bin/gnu/h-i686-mingw32/bin/../lib/gcc/nios2-elf/4.1.2\libgcc.a(_umoddi3.o)
 .debug_abbrev  0x00004957      0x1d2 d:/modelsim_ase/quartus/quartus cyclone ii/nios2eds/bin/gnu/h-i686-mingw32/bin/../lib/gcc/nios2-elf/4.1.2\libgcc.a(_addsub_df.o)
 .debug_abbrev  0x00004b29      0x204 d:/modelsim_ase/quartus/quartus cyclone ii/nios2eds/bin/gnu/h-i686-mingw32/bin/../lib/gcc/nios2-elf/4.1.2\libgcc.a(_mul_df.o)
 .debug_abbrev  0x00004d2d      0x1e3 d:/modelsim_ase/quartus/quartus cyclone ii/nios2eds/bin/gnu/h-i686-mingw32/bin/../lib/gcc/nios2-elf/4.1.2\libgcc.a(_div_df.o)
 .debug_abbrev  0x00004f10      0x151 d:/modelsim_ase/quartus/quartus cyclone ii/nios2eds/bin/gnu/h-i686-mingw32/bin/../lib/gcc/nios2-elf/4.1.2\libgcc.a(_eq_df.o)
 .debug_abbrev  0x00005061      0x151 d:/modelsim_ase/quartus/quartus cyclone ii/nios2eds/bin/gnu/h-i686-mingw32/bin/../lib/gcc/nios2-elf/4.1.2\libgcc.a(_ne_df.o)
 .debug_abbrev  0x000051b2      0x151 d:/modelsim_ase/quartus/quartus cyclone ii/nios2eds/bin/gnu/h-i686-mingw32/bin/../lib/gcc/nios2-elf/4.1.2\libgcc.a(_gt_df.o)
 .debug_abbrev  0x00005303      0x151 d:/modelsim_ase/quartus/quartus cyclone ii/nios2eds/bin/gnu/h-i686-mingw32/bin/../lib/gcc/nios2-elf/4.1.2\libgcc.a(_ge_df.o)
 .debug_abbrev  0x00005454      0x151 d:/modelsim_ase/quartus/quartus cyclone ii/nios2eds/bin/gnu/h-i686-mingw32/bin/../lib/gcc/nios2-elf/4.1.2\libgcc.a(_lt_df.o)
 .debug_abbrev  0x000055a5      0x13f d:/modelsim_ase/quartus/quartus cyclone ii/nios2eds/bin/gnu/h-i686-mingw32/bin/../lib/gcc/nios2-elf/4.1.2\libgcc.a(_si_to_df.o)
 .debug_abbrev  0x000056e4      0x176 d:/modelsim_ase/quartus/quartus cyclone ii/nios2eds/bin/gnu/h-i686-mingw32/bin/../lib/gcc/nios2-elf/4.1.2\libgcc.a(_df_to_si.o)
 .debug_abbrev  0x0000585a       0xba d:/modelsim_ase/quartus/quartus cyclone ii/nios2eds/bin/gnu/h-i686-mingw32/bin/../lib/gcc/nios2-elf/4.1.2\libgcc.a(_thenan_df.o)
 .debug_abbrev  0x00005914      0x155 d:/modelsim_ase/quartus/quartus cyclone ii/nios2eds/bin/gnu/h-i686-mingw32/bin/../lib/gcc/nios2-elf/4.1.2\libgcc.a(_usi_to_df.o)
 .debug_abbrev  0x00005a69       0xee d:/modelsim_ase/quartus/quartus cyclone ii/nios2eds/bin/gnu/h-i686-mingw32/bin/../lib/gcc/nios2-elf/4.1.2\libgcc.a(_muldi3.o)
 .debug_abbrev  0x00005b57      0x149 d:/modelsim_ase/quartus/quartus cyclone ii/nios2eds/bin/gnu/h-i686-mingw32/bin/../lib/gcc/nios2-elf/4.1.2\libgcc.a(_unpack_df.o)
 .debug_abbrev  0x00005ca0      0x132 d:/modelsim_ase/quartus/quartus cyclone ii/nios2eds/bin/gnu/h-i686-mingw32/bin/../lib/gcc/nios2-elf/4.1.2\libgcc.a(_fpcmp_parts_df.o)
 .debug_abbrev  0x00005dd2       0xfb ../FPGA_Lab4_Software_bsp/\libhal_bsp.a(alt_close.o)
 .debug_abbrev  0x00005ecd       0xc7 ../FPGA_Lab4_Software_bsp/\libhal_bsp.a(alt_dev.o)
 .debug_abbrev  0x00005f94       0x5e ../FPGA_Lab4_Software_bsp/\libhal_bsp.a(alt_errno.o)
 .debug_abbrev  0x00005ff2       0xfb ../FPGA_Lab4_Software_bsp/\libhal_bsp.a(alt_fstat.o)
 .debug_abbrev  0x000060ed      0x180 ../FPGA_Lab4_Software_bsp/\libhal_bsp.a(alt_irq_register.o)
 .debug_abbrev  0x0000626d       0x44 ../FPGA_Lab4_Software_bsp/\libhal_bsp.a(alt_irq_vars.o)
 .debug_abbrev  0x000062b1       0xfb ../FPGA_Lab4_Software_bsp/\libhal_bsp.a(alt_isatty.o)
 .debug_abbrev  0x000063ac       0x88 ../FPGA_Lab4_Software_bsp/\libhal_bsp.a(alt_load.o)
 .debug_abbrev  0x00006434       0xfb ../FPGA_Lab4_Software_bsp/\libhal_bsp.a(alt_lseek.o)
 .debug_abbrev  0x0000652f       0xb7 ../FPGA_Lab4_Software_bsp/\libhal_bsp.a(alt_main.o)
 .debug_abbrev  0x000065e6      0x181 ../FPGA_Lab4_Software_bsp/\libhal_bsp.a(alt_malloc_lock.o)
 .debug_abbrev  0x00006767       0x91 ../FPGA_Lab4_Software_bsp/\libhal_bsp.a(alt_printf.o)
 .debug_abbrev  0x000067f8      0x17f ../FPGA_Lab4_Software_bsp/\libhal_bsp.a(alt_putchar.o)
 .debug_abbrev  0x00006977       0xfb ../FPGA_Lab4_Software_bsp/\libhal_bsp.a(alt_read.o)
 .debug_abbrev  0x00006a72       0xc1 ../FPGA_Lab4_Software_bsp/\libhal_bsp.a(alt_release_fd.o)
 .debug_abbrev  0x00006b33      0x115 ../FPGA_Lab4_Software_bsp/\libhal_bsp.a(alt_sbrk.o)
 .debug_abbrev  0x00006c48      0x100 ../FPGA_Lab4_Software_bsp/\libhal_bsp.a(alt_write.o)
 .debug_abbrev  0x00006d48      0x142 ../FPGA_Lab4_Software_bsp/\libhal_bsp.a(alt_sys_init.o)
 .debug_abbrev  0x00006e8a       0xf7 ../FPGA_Lab4_Software_bsp/\libhal_bsp.a(altera_avalon_jtag_uart_fd.o)
 .debug_abbrev  0x00006f81      0x17c ../FPGA_Lab4_Software_bsp/\libhal_bsp.a(altera_avalon_jtag_uart_init.o)
 .debug_abbrev  0x000070fd       0xf0 ../FPGA_Lab4_Software_bsp/\libhal_bsp.a(altera_avalon_jtag_uart_ioctl.o)
 .debug_abbrev  0x000071ed      0x191 ../FPGA_Lab4_Software_bsp/\libhal_bsp.a(altera_avalon_jtag_uart_read.o)
 .debug_abbrev  0x0000737e      0x18d ../FPGA_Lab4_Software_bsp/\libhal_bsp.a(altera_avalon_jtag_uart_write.o)
 .debug_abbrev  0x0000750b       0xbe ../FPGA_Lab4_Software_bsp/\libhal_bsp.a(altera_avalon_timer_ts.o)
 .debug_abbrev  0x000075c9       0x87 ../FPGA_Lab4_Software_bsp/\libhal_bsp.a(altera_avalon_timer_vars.o)
 .debug_abbrev  0x00007650      0x164 ../FPGA_Lab4_Software_bsp/\libhal_bsp.a(altera_up_avalon_audio.o)
 .debug_abbrev  0x000077b4      0x127 ../FPGA_Lab4_Software_bsp/\libhal_bsp.a(altera_up_avalon_character_lcd.o)
 .debug_abbrev  0x000078db       0xf2 ../FPGA_Lab4_Software_bsp/\libhal_bsp.a(altera_up_avalon_parallel_port.o)
 .debug_abbrev  0x000079cd      0x16d ../FPGA_Lab4_Software_bsp/\libhal_bsp.a(altera_up_avalon_ps2.o)
 .debug_abbrev  0x00007b3a      0x111 ../FPGA_Lab4_Software_bsp/\libhal_bsp.a(altera_up_avalon_video_character_buffer_with_dma.o)
 .debug_abbrev  0x00007c4b      0x196 ../FPGA_Lab4_Software_bsp/\libhal_bsp.a(altera_up_avalon_video_pixel_buffer_dma.o)
 .debug_abbrev  0x00007de1      0x172 ../FPGA_Lab4_Software_bsp/\libhal_bsp.a(alt_alarm_start.o)
 .debug_abbrev  0x00007f53       0x3f ../FPGA_Lab4_Software_bsp/\libhal_bsp.a(alt_dcache_flush_all.o)
 .debug_abbrev  0x00007f92       0xf6 ../FPGA_Lab4_Software_bsp/\libhal_bsp.a(alt_dev_llist_insert.o)
 .debug_abbrev  0x00008088       0x76 ../FPGA_Lab4_Software_bsp/\libhal_bsp.a(alt_do_ctors.o)
 .debug_abbrev  0x000080fe       0x76 ../FPGA_Lab4_Software_bsp/\libhal_bsp.a(alt_do_dtors.o)
 .debug_abbrev  0x00008174       0xcf ../FPGA_Lab4_Software_bsp/\libhal_bsp.a(alt_find_dev.o)
 .debug_abbrev  0x00008243       0x3f ../FPGA_Lab4_Software_bsp/\libhal_bsp.a(alt_icache_flush_all.o)
 .debug_abbrev  0x00008282      0x134 ../FPGA_Lab4_Software_bsp/\libhal_bsp.a(alt_iic.o)
 .debug_abbrev  0x000083b6      0x14e ../FPGA_Lab4_Software_bsp/\libhal_bsp.a(alt_iic_isr_register.o)
 .debug_abbrev  0x00008504       0xf0 ../FPGA_Lab4_Software_bsp/\libhal_bsp.a(alt_io_redirect.o)
 .debug_abbrev  0x000085f4       0x12 ../FPGA_Lab4_Software_bsp/\libhal_bsp.a(alt_irq_entry.o)
 .debug_abbrev  0x00008606      0x10c ../FPGA_Lab4_Software_bsp/\libhal_bsp.a(alt_irq_handler.o)
 .debug_abbrev  0x00008712      0x112 ../FPGA_Lab4_Software_bsp/\libhal_bsp.a(alt_open.o)
 .debug_abbrev  0x00008824      0x150 ../FPGA_Lab4_Software_bsp/\libhal_bsp.a(alt_tick.o)
 .debug_abbrev  0x00008974       0x3f ../FPGA_Lab4_Software_bsp/\libhal_bsp.a(altera_nios2_qsys_irq.o)
 .debug_abbrev  0x000089b3       0x12 ../FPGA_Lab4_Software_bsp/\libhal_bsp.a(alt_exception_entry.o)
 .debug_abbrev  0x000089c5       0xcf ../FPGA_Lab4_Software_bsp/\libhal_bsp.a(alt_find_file.o)
 .debug_abbrev  0x00008a94       0xfb ../FPGA_Lab4_Software_bsp/\libhal_bsp.a(alt_get_fd.o)
 .debug_abbrev  0x00008b8f       0x7a ../FPGA_Lab4_Software_bsp/\libhal_bsp.a(alt_icache_flush.o)
 .debug_abbrev  0x00008c09       0xb7 d:/modelsim_ase/quartus/quartus cyclone ii/nios2eds/bin/gnu/h-i686-mingw32/bin/../lib/gcc/nios2-elf/4.1.2/../../../../nios2-elf/lib\libc.a(lib_a-atexit.o)
 .debug_abbrev  0x00008cc0      0x16e d:/modelsim_ase/quartus/quartus cyclone ii/nios2eds/bin/gnu/h-i686-mingw32/bin/../lib/gcc/nios2-elf/4.1.2/../../../../nios2-elf/lib\libc.a(lib_a-exit.o)
 .debug_abbrev  0x00008e2e       0x7c d:/modelsim_ase/quartus/quartus cyclone ii/nios2eds/bin/gnu/h-i686-mingw32/bin/../lib/gcc/nios2-elf/4.1.2/../../../../nios2-elf/lib\libc.a(lib_a-memcmp.o)
 .debug_abbrev  0x00008eaa      0x17f d:/modelsim_ase/quartus/quartus cyclone ii/nios2eds/bin/gnu/h-i686-mingw32/bin/../lib/gcc/nios2-elf/4.1.2/../../../../nios2-elf/lib\libc.a(lib_a-putc.o)
 .debug_abbrev  0x00009029      0x198 d:/modelsim_ase/quartus/quartus cyclone ii/nios2eds/bin/gnu/h-i686-mingw32/bin/../lib/gcc/nios2-elf/4.1.2/../../../../nios2-elf/lib\libc.a(lib_a-wbuf.o)
 .debug_abbrev  0x000091c1      0x1ae d:/modelsim_ase/quartus/quartus cyclone ii/nios2eds/bin/gnu/h-i686-mingw32/bin/../lib/gcc/nios2-elf/4.1.2/../../../../nios2-elf/lib\libc.a(lib_a-__atexit.o)
 .debug_abbrev  0x0000936f      0x1de d:/modelsim_ase/quartus/quartus cyclone ii/nios2eds/bin/gnu/h-i686-mingw32/bin/../lib/gcc/nios2-elf/4.1.2/../../../../nios2-elf/lib\libc.a(lib_a-__call_atexit.o)
 .debug_abbrev  0x0000954d       0x72 ../FPGA_Lab4_Software_bsp/\libhal_bsp.a(alt_exit.o)

.debug_line     0x00000000    0x19258
 *(.debug_line)
 .debug_line    0x00000000       0x6c ../FPGA_Lab4_Software_bsp//obj/HAL/src/crt0.o
 .debug_line    0x0000006c      0x3f9 obj/default/PS2_ISR.o
 .debug_line    0x00000465      0x4eb obj/default/audio_ISR.o
 .debug_line    0x00000950      0x36f obj/default/globals.o
 .debug_line    0x00000cbf      0x3ac obj/default/interval_timer_ISR.o
 .debug_line    0x0000106b      0xc5d obj/default/media_interrupt_HAL.o
 .debug_line    0x00001cc8      0x3e0 obj/default/pushbutton_ISR.o
 .debug_line    0x000020a8      0x2f2 d:/modelsim_ase/quartus/quartus cyclone ii/nios2eds/bin/gnu/h-i686-mingw32/bin/../lib/gcc/nios2-elf/4.1.2\libgcc.a(_udivdi3.o)
 .debug_line    0x0000239a      0x187 d:/modelsim_ase/quartus/quartus cyclone ii/nios2eds/bin/gnu/h-i686-mingw32/bin/../lib/gcc/nios2-elf/4.1.2\libgcc.a(_si_to_sf.o)
 .debug_line    0x00002521      0x141 d:/modelsim_ase/quartus/quartus cyclone ii/nios2eds/bin/gnu/h-i686-mingw32/bin/../lib/gcc/nios2-elf/4.1.2\libgcc.a(_sf_to_si.o)
 .debug_line    0x00002662       0xd1 d:/modelsim_ase/quartus/quartus cyclone ii/nios2eds/bin/gnu/h-i686-mingw32/bin/../lib/gcc/nios2-elf/4.1.2\libgcc.a(_sf_to_df.o)
 .debug_line    0x00002733      0x183 d:/modelsim_ase/quartus/quartus cyclone ii/nios2eds/bin/gnu/h-i686-mingw32/bin/../lib/gcc/nios2-elf/4.1.2\libgcc.a(_usi_to_sf.o)
 .debug_line    0x000028b6       0xe9 d:/modelsim_ase/quartus/quartus cyclone ii/nios2eds/bin/gnu/h-i686-mingw32/bin/../lib/gcc/nios2-elf/4.1.2\libgcc.a(_make_df.o)
 .debug_line    0x0000299f      0x24f d:/modelsim_ase/quartus/quartus cyclone ii/nios2eds/bin/gnu/h-i686-mingw32/bin/../lib/gcc/nios2-elf/4.1.2\libgcc.a(lib2-divmod.o)
 .debug_line    0x00002bee       0xaa d:/modelsim_ase/quartus/quartus cyclone ii/nios2eds/bin/gnu/h-i686-mingw32/bin/../lib/gcc/nios2-elf/4.1.2\libgcc.a(_clz.o)
 .debug_line    0x00002c98      0x105 d:/modelsim_ase/quartus/quartus cyclone ii/nios2eds/bin/gnu/h-i686-mingw32/bin/../lib/gcc/nios2-elf/4.1.2\libgcc.a(_clzsi2.o)
 .debug_line    0x00002d9d      0x1ca d:/modelsim_ase/quartus/quartus cyclone ii/nios2eds/bin/gnu/h-i686-mingw32/bin/../lib/gcc/nios2-elf/4.1.2\libgcc.a(_pack_sf.o)
 .debug_line    0x00002f67      0x197 d:/modelsim_ase/quartus/quartus cyclone ii/nios2eds/bin/gnu/h-i686-mingw32/bin/../lib/gcc/nios2-elf/4.1.2\libgcc.a(_unpack_sf.o)
 .debug_line    0x000030fe      0x222 d:/modelsim_ase/quartus/quartus cyclone ii/nios2eds/bin/gnu/h-i686-mingw32/bin/../lib/gcc/nios2-elf/4.1.2\libgcc.a(_pack_df.o)
 .debug_line    0x00003320      0x1ac d:/modelsim_ase/quartus/quartus cyclone ii/nios2eds/bin/gnu/h-i686-mingw32/bin/../lib/gcc/nios2-elf/4.1.2/../../../../nios2-elf/lib\libc.a(lib_a-memcpy.o)
 .debug_line    0x000034cc      0x301 d:/modelsim_ase/quartus/quartus cyclone ii/nios2eds/bin/gnu/h-i686-mingw32/bin/../lib/gcc/nios2-elf/4.1.2/../../../../nios2-elf/lib\libc.a(lib_a-memset.o)
 .debug_line    0x000037cd      0x29b d:/modelsim_ase/quartus/quartus cyclone ii/nios2eds/bin/gnu/h-i686-mingw32/bin/../lib/gcc/nios2-elf/4.1.2/../../../../nios2-elf/lib\libc.a(lib_a-printf.o)
 .debug_line    0x00003a68     0x110c d:/modelsim_ase/quartus/quartus cyclone ii/nios2eds/bin/gnu/h-i686-mingw32/bin/../lib/gcc/nios2-elf/4.1.2/../../../../nios2-elf/lib\libc.a(lib_a-vfprintf.o)
 .debug_line    0x00004b74      0x2f0 d:/modelsim_ase/quartus/quartus cyclone ii/nios2eds/bin/gnu/h-i686-mingw32/bin/../lib/gcc/nios2-elf/4.1.2/../../../../nios2-elf/lib\libc.a(lib_a-wsetup.o)
 .debug_line    0x00004e64     0x12c6 d:/modelsim_ase/quartus/quartus cyclone ii/nios2eds/bin/gnu/h-i686-mingw32/bin/../lib/gcc/nios2-elf/4.1.2/../../../../nios2-elf/lib\libc.a(lib_a-dtoa.o)
 .debug_line    0x0000612a      0x40d d:/modelsim_ase/quartus/quartus cyclone ii/nios2eds/bin/gnu/h-i686-mingw32/bin/../lib/gcc/nios2-elf/4.1.2/../../../../nios2-elf/lib\libc.a(lib_a-fflush.o)
 .debug_line    0x00006537      0x601 d:/modelsim_ase/quartus/quartus cyclone ii/nios2eds/bin/gnu/h-i686-mingw32/bin/../lib/gcc/nios2-elf/4.1.2/../../../../nios2-elf/lib\libc.a(lib_a-findfp.o)
 .debug_line    0x00006b38      0x5eb d:/modelsim_ase/quartus/quartus cyclone ii/nios2eds/bin/gnu/h-i686-mingw32/bin/../lib/gcc/nios2-elf/4.1.2/../../../../nios2-elf/lib\libc.a(lib_a-freer.o)
 .debug_line    0x00007123      0x641 d:/modelsim_ase/quartus/quartus cyclone ii/nios2eds/bin/gnu/h-i686-mingw32/bin/../lib/gcc/nios2-elf/4.1.2/../../../../nios2-elf/lib\libc.a(lib_a-fvwrite.o)
 .debug_line    0x00007764      0x34a d:/modelsim_ase/quartus/quartus cyclone ii/nios2eds/bin/gnu/h-i686-mingw32/bin/../lib/gcc/nios2-elf/4.1.2/../../../../nios2-elf/lib\libc.a(lib_a-fwalk.o)
 .debug_line    0x00007aae      0x22d d:/modelsim_ase/quartus/quartus cyclone ii/nios2eds/bin/gnu/h-i686-mingw32/bin/../lib/gcc/nios2-elf/4.1.2/../../../../nios2-elf/lib\libc.a(lib_a-impure.o)
 .debug_line    0x00007cdb      0x2c8 d:/modelsim_ase/quartus/quartus cyclone ii/nios2eds/bin/gnu/h-i686-mingw32/bin/../lib/gcc/nios2-elf/4.1.2/../../../../nios2-elf/lib\libc.a(lib_a-locale.o)
 .debug_line    0x00007fa3      0x3c3 d:/modelsim_ase/quartus/quartus cyclone ii/nios2eds/bin/gnu/h-i686-mingw32/bin/../lib/gcc/nios2-elf/4.1.2/../../../../nios2-elf/lib\libc.a(lib_a-makebuf.o)
 .debug_line    0x00008366      0x80a d:/modelsim_ase/quartus/quartus cyclone ii/nios2eds/bin/gnu/h-i686-mingw32/bin/../lib/gcc/nios2-elf/4.1.2/../../../../nios2-elf/lib\libc.a(lib_a-mallocr.o)
 .debug_line    0x00008b70      0x303 d:/modelsim_ase/quartus/quartus cyclone ii/nios2eds/bin/gnu/h-i686-mingw32/bin/../lib/gcc/nios2-elf/4.1.2/../../../../nios2-elf/lib\libc.a(lib_a-memchr.o)
 .debug_line    0x00008e73      0x30a d:/modelsim_ase/quartus/quartus cyclone ii/nios2eds/bin/gnu/h-i686-mingw32/bin/../lib/gcc/nios2-elf/4.1.2/../../../../nios2-elf/lib\libc.a(lib_a-memmove.o)
 .debug_line    0x0000917d     0x1243 d:/modelsim_ase/quartus/quartus cyclone ii/nios2eds/bin/gnu/h-i686-mingw32/bin/../lib/gcc/nios2-elf/4.1.2/../../../../nios2-elf/lib\libc.a(lib_a-mprec.o)
 .debug_line    0x0000a3c0      0x58a d:/modelsim_ase/quartus/quartus cyclone ii/nios2eds/bin/gnu/h-i686-mingw32/bin/../lib/gcc/nios2-elf/4.1.2/../../../../nios2-elf/lib\libc.a(lib_a-reallocr.o)
 .debug_line    0x0000a94a      0x222 d:/modelsim_ase/quartus/quartus cyclone ii/nios2eds/bin/gnu/h-i686-mingw32/bin/../lib/gcc/nios2-elf/4.1.2/../../../../nios2-elf/lib\libc.a(lib_a-s_isinfd.o)
 .debug_line    0x0000ab6c      0x21a d:/modelsim_ase/quartus/quartus cyclone ii/nios2eds/bin/gnu/h-i686-mingw32/bin/../lib/gcc/nios2-elf/4.1.2/../../../../nios2-elf/lib\libc.a(lib_a-s_isnand.o)
 .debug_line    0x0000ad86      0x299 d:/modelsim_ase/quartus/quartus cyclone ii/nios2eds/bin/gnu/h-i686-mingw32/bin/../lib/gcc/nios2-elf/4.1.2/../../../../nios2-elf/lib\libc.a(lib_a-sbrkr.o)
 .debug_line    0x0000b01f      0x38c d:/modelsim_ase/quartus/quartus cyclone ii/nios2eds/bin/gnu/h-i686-mingw32/bin/../lib/gcc/nios2-elf/4.1.2/../../../../nios2-elf/lib\libc.a(lib_a-stdio.o)
 .debug_line    0x0000b3ab      0x2d5 d:/modelsim_ase/quartus/quartus cyclone ii/nios2eds/bin/gnu/h-i686-mingw32/bin/../lib/gcc/nios2-elf/4.1.2/../../../../nios2-elf/lib\libc.a(lib_a-strcmp.o)
 .debug_line    0x0000b680      0x26d d:/modelsim_ase/quartus/quartus cyclone ii/nios2eds/bin/gnu/h-i686-mingw32/bin/../lib/gcc/nios2-elf/4.1.2/../../../../nios2-elf/lib\libc.a(lib_a-strlen.o)
 .debug_line    0x0000b8ed      0x29a d:/modelsim_ase/quartus/quartus cyclone ii/nios2eds/bin/gnu/h-i686-mingw32/bin/../lib/gcc/nios2-elf/4.1.2/../../../../nios2-elf/lib\libc.a(lib_a-writer.o)
 .debug_line    0x0000bb87      0x25c d:/modelsim_ase/quartus/quartus cyclone ii/nios2eds/bin/gnu/h-i686-mingw32/bin/../lib/gcc/nios2-elf/4.1.2/../../../../nios2-elf/lib\libc.a(lib_a-callocr.o)
 .debug_line    0x0000bde3      0x29a d:/modelsim_ase/quartus/quartus cyclone ii/nios2eds/bin/gnu/h-i686-mingw32/bin/../lib/gcc/nios2-elf/4.1.2/../../../../nios2-elf/lib\libc.a(lib_a-closer.o)
 .debug_line    0x0000c07d      0x2e8 d:/modelsim_ase/quartus/quartus cyclone ii/nios2eds/bin/gnu/h-i686-mingw32/bin/../lib/gcc/nios2-elf/4.1.2/../../../../nios2-elf/lib\libc.a(lib_a-fclose.o)
 .debug_line    0x0000c365      0x264 d:/modelsim_ase/quartus/quartus cyclone ii/nios2eds/bin/gnu/h-i686-mingw32/bin/../lib/gcc/nios2-elf/4.1.2/../../../../nios2-elf/lib\libc.a(lib_a-fstatr.o)
 .debug_line    0x0000c5c9      0x1df d:/modelsim_ase/quartus/quartus cyclone ii/nios2eds/bin/gnu/h-i686-mingw32/bin/../lib/gcc/nios2-elf/4.1.2/../../../../nios2-elf/lib\libc.a(lib_a-int_errno.o)
 .debug_line    0x0000c7a8      0x29b d:/modelsim_ase/quartus/quartus cyclone ii/nios2eds/bin/gnu/h-i686-mingw32/bin/../lib/gcc/nios2-elf/4.1.2/../../../../nios2-elf/lib\libc.a(lib_a-isattyr.o)
 .debug_line    0x0000ca43      0x29a d:/modelsim_ase/quartus/quartus cyclone ii/nios2eds/bin/gnu/h-i686-mingw32/bin/../lib/gcc/nios2-elf/4.1.2/../../../../nios2-elf/lib\libc.a(lib_a-lseekr.o)
 .debug_line    0x0000ccdd      0x299 d:/modelsim_ase/quartus/quartus cyclone ii/nios2eds/bin/gnu/h-i686-mingw32/bin/../lib/gcc/nios2-elf/4.1.2/../../../../nios2-elf/lib\libc.a(lib_a-readr.o)
 .debug_line    0x0000cf76      0x37d d:/modelsim_ase/quartus/quartus cyclone ii/nios2eds/bin/gnu/h-i686-mingw32/bin/../lib/gcc/nios2-elf/4.1.2\libgcc.a(_umoddi3.o)
 .debug_line    0x0000d2f3      0x430 d:/modelsim_ase/quartus/quartus cyclone ii/nios2eds/bin/gnu/h-i686-mingw32/bin/../lib/gcc/nios2-elf/4.1.2\libgcc.a(_addsub_df.o)
 .debug_line    0x0000d723      0x3e5 d:/modelsim_ase/quartus/quartus cyclone ii/nios2eds/bin/gnu/h-i686-mingw32/bin/../lib/gcc/nios2-elf/4.1.2\libgcc.a(_mul_df.o)
 .debug_line    0x0000db08      0x301 d:/modelsim_ase/quartus/quartus cyclone ii/nios2eds/bin/gnu/h-i686-mingw32/bin/../lib/gcc/nios2-elf/4.1.2\libgcc.a(_div_df.o)
 .debug_line    0x0000de09      0x129 d:/modelsim_ase/quartus/quartus cyclone ii/nios2eds/bin/gnu/h-i686-mingw32/bin/../lib/gcc/nios2-elf/4.1.2\libgcc.a(_eq_df.o)
 .debug_line    0x0000df32      0x129 d:/modelsim_ase/quartus/quartus cyclone ii/nios2eds/bin/gnu/h-i686-mingw32/bin/../lib/gcc/nios2-elf/4.1.2\libgcc.a(_ne_df.o)
 .debug_line    0x0000e05b      0x129 d:/modelsim_ase/quartus/quartus cyclone ii/nios2eds/bin/gnu/h-i686-mingw32/bin/../lib/gcc/nios2-elf/4.1.2\libgcc.a(_gt_df.o)
 .debug_line    0x0000e184      0x129 d:/modelsim_ase/quartus/quartus cyclone ii/nios2eds/bin/gnu/h-i686-mingw32/bin/../lib/gcc/nios2-elf/4.1.2\libgcc.a(_ge_df.o)
 .debug_line    0x0000e2ad      0x129 d:/modelsim_ase/quartus/quartus cyclone ii/nios2eds/bin/gnu/h-i686-mingw32/bin/../lib/gcc/nios2-elf/4.1.2\libgcc.a(_lt_df.o)
 .debug_line    0x0000e3d6      0x175 d:/modelsim_ase/quartus/quartus cyclone ii/nios2eds/bin/gnu/h-i686-mingw32/bin/../lib/gcc/nios2-elf/4.1.2\libgcc.a(_si_to_df.o)
 .debug_line    0x0000e54b      0x149 d:/modelsim_ase/quartus/quartus cyclone ii/nios2eds/bin/gnu/h-i686-mingw32/bin/../lib/gcc/nios2-elf/4.1.2\libgcc.a(_df_to_si.o)
 .debug_line    0x0000e694       0x94 d:/modelsim_ase/quartus/quartus cyclone ii/nios2eds/bin/gnu/h-i686-mingw32/bin/../lib/gcc/nios2-elf/4.1.2\libgcc.a(_thenan_df.o)
 .debug_line    0x0000e728      0x189 d:/modelsim_ase/quartus/quartus cyclone ii/nios2eds/bin/gnu/h-i686-mingw32/bin/../lib/gcc/nios2-elf/4.1.2\libgcc.a(_usi_to_df.o)
 .debug_line    0x0000e8b1      0x11f d:/modelsim_ase/quartus/quartus cyclone ii/nios2eds/bin/gnu/h-i686-mingw32/bin/../lib/gcc/nios2-elf/4.1.2\libgcc.a(_muldi3.o)
 .debug_line    0x0000e9d0      0x1e4 d:/modelsim_ase/quartus/quartus cyclone ii/nios2eds/bin/gnu/h-i686-mingw32/bin/../lib/gcc/nios2-elf/4.1.2\libgcc.a(_unpack_df.o)
 .debug_line    0x0000ebb4      0x187 d:/modelsim_ase/quartus/quartus cyclone ii/nios2eds/bin/gnu/h-i686-mingw32/bin/../lib/gcc/nios2-elf/4.1.2\libgcc.a(_fpcmp_parts_df.o)
 .debug_line    0x0000ed3b      0x2cb ../FPGA_Lab4_Software_bsp/\libhal_bsp.a(alt_close.o)
 .debug_line    0x0000f006      0x286 ../FPGA_Lab4_Software_bsp/\libhal_bsp.a(alt_dev.o)
 .debug_line    0x0000f28c      0x1dc ../FPGA_Lab4_Software_bsp/\libhal_bsp.a(alt_errno.o)
 .debug_line    0x0000f468      0x2d3 ../FPGA_Lab4_Software_bsp/\libhal_bsp.a(alt_fstat.o)
 .debug_line    0x0000f73b      0x335 ../FPGA_Lab4_Software_bsp/\libhal_bsp.a(alt_irq_register.o)
 .debug_line    0x0000fa70       0x72 ../FPGA_Lab4_Software_bsp/\libhal_bsp.a(alt_irq_vars.o)
 .debug_line    0x0000fae2      0x2d4 ../FPGA_Lab4_Software_bsp/\libhal_bsp.a(alt_isatty.o)
 .debug_line    0x0000fdb6      0x249 ../FPGA_Lab4_Software_bsp/\libhal_bsp.a(alt_load.o)
 .debug_line    0x0000ffff      0x2d3 ../FPGA_Lab4_Software_bsp/\libhal_bsp.a(alt_lseek.o)
 .debug_line    0x000102d2      0x2fc ../FPGA_Lab4_Software_bsp/\libhal_bsp.a(alt_main.o)
 .debug_line    0x000105ce      0x25a ../FPGA_Lab4_Software_bsp/\libhal_bsp.a(alt_malloc_lock.o)
 .debug_line    0x00010828      0x1f3 ../FPGA_Lab4_Software_bsp/\libhal_bsp.a(alt_printf.o)
 .debug_line    0x00010a1b      0x1fc ../FPGA_Lab4_Software_bsp/\libhal_bsp.a(alt_putchar.o)
 .debug_line    0x00010c17      0x2fa ../FPGA_Lab4_Software_bsp/\libhal_bsp.a(alt_read.o)
 .debug_line    0x00010f11       0xed ../FPGA_Lab4_Software_bsp/\libhal_bsp.a(alt_release_fd.o)
 .debug_line    0x00010ffe      0x293 ../FPGA_Lab4_Software_bsp/\libhal_bsp.a(alt_sbrk.o)
 .debug_line    0x00011291      0x2fb ../FPGA_Lab4_Software_bsp/\libhal_bsp.a(alt_write.o)
 .debug_line    0x0001158c      0x2f9 ../FPGA_Lab4_Software_bsp/\libhal_bsp.a(alt_sys_init.o)
 .debug_line    0x00011885      0x230 ../FPGA_Lab4_Software_bsp/\libhal_bsp.a(altera_avalon_jtag_uart_fd.o)
 .debug_line    0x00011ab5      0x4dd ../FPGA_Lab4_Software_bsp/\libhal_bsp.a(altera_avalon_jtag_uart_init.o)
 .debug_line    0x00011f92      0x349 ../FPGA_Lab4_Software_bsp/\libhal_bsp.a(altera_avalon_jtag_uart_ioctl.o)
 .debug_line    0x000122db      0x429 ../FPGA_Lab4_Software_bsp/\libhal_bsp.a(altera_avalon_jtag_uart_read.o)
 .debug_line    0x00012704      0x437 ../FPGA_Lab4_Software_bsp/\libhal_bsp.a(altera_avalon_jtag_uart_write.o)
 .debug_line    0x00012b3b      0x362 ../FPGA_Lab4_Software_bsp/\libhal_bsp.a(altera_avalon_timer_ts.o)
 .debug_line    0x00012e9d      0x28d ../FPGA_Lab4_Software_bsp/\libhal_bsp.a(altera_avalon_timer_vars.o)
 .debug_line    0x0001312a      0x5a7 ../FPGA_Lab4_Software_bsp/\libhal_bsp.a(altera_up_avalon_audio.o)
 .debug_line    0x000136d1      0x4b8 ../FPGA_Lab4_Software_bsp/\libhal_bsp.a(altera_up_avalon_character_lcd.o)
 .debug_line    0x00013b89      0x2a8 ../FPGA_Lab4_Software_bsp/\libhal_bsp.a(altera_up_avalon_parallel_port.o)
 .debug_line    0x00013e31      0x627 ../FPGA_Lab4_Software_bsp/\libhal_bsp.a(altera_up_avalon_ps2.o)
 .debug_line    0x00014458      0x3c7 ../FPGA_Lab4_Software_bsp/\libhal_bsp.a(altera_up_avalon_video_character_buffer_with_dma.o)
 .debug_line    0x0001481f      0xbbd ../FPGA_Lab4_Software_bsp/\libhal_bsp.a(altera_up_avalon_video_pixel_buffer_dma.o)
 .debug_line    0x000153dc      0x30e ../FPGA_Lab4_Software_bsp/\libhal_bsp.a(alt_alarm_start.o)
 .debug_line    0x000156ea      0x1e7 ../FPGA_Lab4_Software_bsp/\libhal_bsp.a(alt_dcache_flush_all.o)
 .debug_line    0x000158d1      0x28c ../FPGA_Lab4_Software_bsp/\libhal_bsp.a(alt_dev_llist_insert.o)
 .debug_line    0x00015b5d       0x83 ../FPGA_Lab4_Software_bsp/\libhal_bsp.a(alt_do_ctors.o)
 .debug_line    0x00015be0       0x83 ../FPGA_Lab4_Software_bsp/\libhal_bsp.a(alt_do_dtors.o)
 .debug_line    0x00015c63      0x29d ../FPGA_Lab4_Software_bsp/\libhal_bsp.a(alt_find_dev.o)
 .debug_line    0x00015f00      0x1ef ../FPGA_Lab4_Software_bsp/\libhal_bsp.a(alt_icache_flush_all.o)
 .debug_line    0x000160ef      0x2fa ../FPGA_Lab4_Software_bsp/\libhal_bsp.a(alt_iic.o)
 .debug_line    0x000163e9      0x27b ../FPGA_Lab4_Software_bsp/\libhal_bsp.a(alt_iic_isr_register.o)
 .debug_line    0x00016664      0x2e6 ../FPGA_Lab4_Software_bsp/\libhal_bsp.a(alt_io_redirect.o)
 .debug_line    0x0001694a       0x6b ../FPGA_Lab4_Software_bsp/\libhal_bsp.a(alt_irq_entry.o)
 .debug_line    0x000169b5      0x27a ../FPGA_Lab4_Software_bsp/\libhal_bsp.a(alt_irq_handler.o)
 .debug_line    0x00016c2f      0x331 ../FPGA_Lab4_Software_bsp/\libhal_bsp.a(alt_open.o)
 .debug_line    0x00016f60      0x30e ../FPGA_Lab4_Software_bsp/\libhal_bsp.a(alt_tick.o)
 .debug_line    0x0001726e      0x200 ../FPGA_Lab4_Software_bsp/\libhal_bsp.a(altera_nios2_qsys_irq.o)
 .debug_line    0x0001746e       0xab ../FPGA_Lab4_Software_bsp/\libhal_bsp.a(alt_exception_entry.o)
 .debug_line    0x00017519      0x2ae ../FPGA_Lab4_Software_bsp/\libhal_bsp.a(alt_find_file.o)
 .debug_line    0x000177c7      0x2c9 ../FPGA_Lab4_Software_bsp/\libhal_bsp.a(alt_get_fd.o)
 .debug_line    0x00017a90      0x22b ../FPGA_Lab4_Software_bsp/\libhal_bsp.a(alt_icache_flush.o)
 .debug_line    0x00017cbb      0x200 d:/modelsim_ase/quartus/quartus cyclone ii/nios2eds/bin/gnu/h-i686-mingw32/bin/../lib/gcc/nios2-elf/4.1.2/../../../../nios2-elf/lib\libc.a(lib_a-atexit.o)
 .debug_line    0x00017ebb      0x238 d:/modelsim_ase/quartus/quartus cyclone ii/nios2eds/bin/gnu/h-i686-mingw32/bin/../lib/gcc/nios2-elf/4.1.2/../../../../nios2-elf/lib\libc.a(lib_a-exit.o)
 .debug_line    0x000180f3      0x29f d:/modelsim_ase/quartus/quartus cyclone ii/nios2eds/bin/gnu/h-i686-mingw32/bin/../lib/gcc/nios2-elf/4.1.2/../../../../nios2-elf/lib\libc.a(lib_a-memcmp.o)
 .debug_line    0x00018392      0x2c4 d:/modelsim_ase/quartus/quartus cyclone ii/nios2eds/bin/gnu/h-i686-mingw32/bin/../lib/gcc/nios2-elf/4.1.2/../../../../nios2-elf/lib\libc.a(lib_a-putc.o)
 .debug_line    0x00018656      0x350 d:/modelsim_ase/quartus/quartus cyclone ii/nios2eds/bin/gnu/h-i686-mingw32/bin/../lib/gcc/nios2-elf/4.1.2/../../../../nios2-elf/lib\libc.a(lib_a-wbuf.o)
 .debug_line    0x000189a6      0x313 d:/modelsim_ase/quartus/quartus cyclone ii/nios2eds/bin/gnu/h-i686-mingw32/bin/../lib/gcc/nios2-elf/4.1.2/../../../../nios2-elf/lib\libc.a(lib_a-__atexit.o)
 .debug_line    0x00018cb9      0x367 d:/modelsim_ase/quartus/quartus cyclone ii/nios2eds/bin/gnu/h-i686-mingw32/bin/../lib/gcc/nios2-elf/4.1.2/../../../../nios2-elf/lib\libc.a(lib_a-__call_atexit.o)
 .debug_line    0x00019020      0x238 ../FPGA_Lab4_Software_bsp/\libhal_bsp.a(alt_exit.o)

.debug_frame    0x00000000     0x23e0
 *(.debug_frame)
 .debug_frame   0x00000000       0x2c obj/default/PS2_ISR.o
 .debug_frame   0x0000002c       0x2c obj/default/audio_ISR.o
 .debug_frame   0x00000058       0x2c obj/default/interval_timer_ISR.o
 .debug_frame   0x00000084      0x1a8 obj/default/media_interrupt_HAL.o
 .debug_frame   0x0000022c       0x2c obj/default/pushbutton_ISR.o
 .debug_frame   0x00000258       0x38 d:/modelsim_ase/quartus/quartus cyclone ii/nios2eds/bin/gnu/h-i686-mingw32/bin/../lib/gcc/nios2-elf/4.1.2\libgcc.a(_udivdi3.o)
 .debug_frame   0x00000290       0x28 d:/modelsim_ase/quartus/quartus cyclone ii/nios2eds/bin/gnu/h-i686-mingw32/bin/../lib/gcc/nios2-elf/4.1.2\libgcc.a(_si_to_sf.o)
 .debug_frame   0x000002b8       0x28 d:/modelsim_ase/quartus/quartus cyclone ii/nios2eds/bin/gnu/h-i686-mingw32/bin/../lib/gcc/nios2-elf/4.1.2\libgcc.a(_sf_to_si.o)
 .debug_frame   0x000002e0       0x28 d:/modelsim_ase/quartus/quartus cyclone ii/nios2eds/bin/gnu/h-i686-mingw32/bin/../lib/gcc/nios2-elf/4.1.2\libgcc.a(_sf_to_df.o)
 .debug_frame   0x00000308       0x2c d:/modelsim_ase/quartus/quartus cyclone ii/nios2eds/bin/gnu/h-i686-mingw32/bin/../lib/gcc/nios2-elf/4.1.2\libgcc.a(_usi_to_sf.o)
 .debug_frame   0x00000334       0x28 d:/modelsim_ase/quartus/quartus cyclone ii/nios2eds/bin/gnu/h-i686-mingw32/bin/../lib/gcc/nios2-elf/4.1.2\libgcc.a(_make_df.o)
 .debug_frame   0x0000035c       0x70 d:/modelsim_ase/quartus/quartus cyclone ii/nios2eds/bin/gnu/h-i686-mingw32/bin/../lib/gcc/nios2-elf/4.1.2\libgcc.a(lib2-divmod.o)
 .debug_frame   0x000003cc       0x20 d:/modelsim_ase/quartus/quartus cyclone ii/nios2eds/bin/gnu/h-i686-mingw32/bin/../lib/gcc/nios2-elf/4.1.2\libgcc.a(_clzsi2.o)
 .debug_frame   0x000003ec       0x20 d:/modelsim_ase/quartus/quartus cyclone ii/nios2eds/bin/gnu/h-i686-mingw32/bin/../lib/gcc/nios2-elf/4.1.2\libgcc.a(_pack_sf.o)
 .debug_frame   0x0000040c       0x20 d:/modelsim_ase/quartus/quartus cyclone ii/nios2eds/bin/gnu/h-i686-mingw32/bin/../lib/gcc/nios2-elf/4.1.2\libgcc.a(_unpack_sf.o)
 .debug_frame   0x0000042c       0x2c d:/modelsim_ase/quartus/quartus cyclone ii/nios2eds/bin/gnu/h-i686-mingw32/bin/../lib/gcc/nios2-elf/4.1.2\libgcc.a(_pack_df.o)
 .debug_frame   0x00000458       0x20 d:/modelsim_ase/quartus/quartus cyclone ii/nios2eds/bin/gnu/h-i686-mingw32/bin/../lib/gcc/nios2-elf/4.1.2/../../../../nios2-elf/lib\libc.a(lib_a-memcpy.o)
 .debug_frame   0x00000478       0x20 d:/modelsim_ase/quartus/quartus cyclone ii/nios2eds/bin/gnu/h-i686-mingw32/bin/../lib/gcc/nios2-elf/4.1.2/../../../../nios2-elf/lib\libc.a(lib_a-memset.o)
 .debug_frame   0x00000498       0x40 d:/modelsim_ase/quartus/quartus cyclone ii/nios2eds/bin/gnu/h-i686-mingw32/bin/../lib/gcc/nios2-elf/4.1.2/../../../../nios2-elf/lib\libc.a(lib_a-printf.o)
 .debug_frame   0x000004d8       0x64 d:/modelsim_ase/quartus/quartus cyclone ii/nios2eds/bin/gnu/h-i686-mingw32/bin/../lib/gcc/nios2-elf/4.1.2/../../../../nios2-elf/lib\libc.a(lib_a-vfprintf.o)
 .debug_frame   0x0000053c       0x2c d:/modelsim_ase/quartus/quartus cyclone ii/nios2eds/bin/gnu/h-i686-mingw32/bin/../lib/gcc/nios2-elf/4.1.2/../../../../nios2-elf/lib\libc.a(lib_a-wsetup.o)
 .debug_frame   0x00000568       0x64 d:/modelsim_ase/quartus/quartus cyclone ii/nios2eds/bin/gnu/h-i686-mingw32/bin/../lib/gcc/nios2-elf/4.1.2/../../../../nios2-elf/lib\libc.a(lib_a-dtoa.o)
 .debug_frame   0x000005cc       0x40 d:/modelsim_ase/quartus/quartus cyclone ii/nios2eds/bin/gnu/h-i686-mingw32/bin/../lib/gcc/nios2-elf/4.1.2/../../../../nios2-elf/lib\libc.a(lib_a-fflush.o)
 .debug_frame   0x0000060c      0x118 d:/modelsim_ase/quartus/quartus cyclone ii/nios2eds/bin/gnu/h-i686-mingw32/bin/../lib/gcc/nios2-elf/4.1.2/../../../../nios2-elf/lib\libc.a(lib_a-findfp.o)
 .debug_frame   0x00000724       0x4c d:/modelsim_ase/quartus/quartus cyclone ii/nios2eds/bin/gnu/h-i686-mingw32/bin/../lib/gcc/nios2-elf/4.1.2/../../../../nios2-elf/lib\libc.a(lib_a-freer.o)
 .debug_frame   0x00000770       0x38 d:/modelsim_ase/quartus/quartus cyclone ii/nios2eds/bin/gnu/h-i686-mingw32/bin/../lib/gcc/nios2-elf/4.1.2/../../../../nios2-elf/lib\libc.a(lib_a-fvwrite.o)
 .debug_frame   0x000007a8       0x60 d:/modelsim_ase/quartus/quartus cyclone ii/nios2eds/bin/gnu/h-i686-mingw32/bin/../lib/gcc/nios2-elf/4.1.2/../../../../nios2-elf/lib\libc.a(lib_a-fwalk.o)
 .debug_frame   0x00000808       0x70 d:/modelsim_ase/quartus/quartus cyclone ii/nios2eds/bin/gnu/h-i686-mingw32/bin/../lib/gcc/nios2-elf/4.1.2/../../../../nios2-elf/lib\libc.a(lib_a-locale.o)
 .debug_frame   0x00000878       0x2c d:/modelsim_ase/quartus/quartus cyclone ii/nios2eds/bin/gnu/h-i686-mingw32/bin/../lib/gcc/nios2-elf/4.1.2/../../../../nios2-elf/lib\libc.a(lib_a-makebuf.o)
 .debug_frame   0x000008a4       0x38 d:/modelsim_ase/quartus/quartus cyclone ii/nios2eds/bin/gnu/h-i686-mingw32/bin/../lib/gcc/nios2-elf/4.1.2/../../../../nios2-elf/lib\libc.a(lib_a-mallocr.o)
 .debug_frame   0x000008dc       0x20 d:/modelsim_ase/quartus/quartus cyclone ii/nios2eds/bin/gnu/h-i686-mingw32/bin/../lib/gcc/nios2-elf/4.1.2/../../../../nios2-elf/lib\libc.a(lib_a-memchr.o)
 .debug_frame   0x000008fc       0x20 d:/modelsim_ase/quartus/quartus cyclone ii/nios2eds/bin/gnu/h-i686-mingw32/bin/../lib/gcc/nios2-elf/4.1.2/../../../../nios2-elf/lib\libc.a(lib_a-memmove.o)
 .debug_frame   0x0000091c      0x218 d:/modelsim_ase/quartus/quartus cyclone ii/nios2eds/bin/gnu/h-i686-mingw32/bin/../lib/gcc/nios2-elf/4.1.2/../../../../nios2-elf/lib\libc.a(lib_a-mprec.o)
 .debug_frame   0x00000b34       0x38 d:/modelsim_ase/quartus/quartus cyclone ii/nios2eds/bin/gnu/h-i686-mingw32/bin/../lib/gcc/nios2-elf/4.1.2/../../../../nios2-elf/lib\libc.a(lib_a-reallocr.o)
 .debug_frame   0x00000b6c       0x20 d:/modelsim_ase/quartus/quartus cyclone ii/nios2eds/bin/gnu/h-i686-mingw32/bin/../lib/gcc/nios2-elf/4.1.2/../../../../nios2-elf/lib\libc.a(lib_a-s_isinfd.o)
 .debug_frame   0x00000b8c       0x20 d:/modelsim_ase/quartus/quartus cyclone ii/nios2eds/bin/gnu/h-i686-mingw32/bin/../lib/gcc/nios2-elf/4.1.2/../../../../nios2-elf/lib\libc.a(lib_a-s_isnand.o)
 .debug_frame   0x00000bac       0x2c d:/modelsim_ase/quartus/quartus cyclone ii/nios2eds/bin/gnu/h-i686-mingw32/bin/../lib/gcc/nios2-elf/4.1.2/../../../../nios2-elf/lib\libc.a(lib_a-sbrkr.o)
 .debug_frame   0x00000bd8       0x78 d:/modelsim_ase/quartus/quartus cyclone ii/nios2eds/bin/gnu/h-i686-mingw32/bin/../lib/gcc/nios2-elf/4.1.2/../../../../nios2-elf/lib\libc.a(lib_a-stdio.o)
 .debug_frame   0x00000c50       0x20 d:/modelsim_ase/quartus/quartus cyclone ii/nios2eds/bin/gnu/h-i686-mingw32/bin/../lib/gcc/nios2-elf/4.1.2/../../../../nios2-elf/lib\libc.a(lib_a-strcmp.o)
 .debug_frame   0x00000c70       0x20 d:/modelsim_ase/quartus/quartus cyclone ii/nios2eds/bin/gnu/h-i686-mingw32/bin/../lib/gcc/nios2-elf/4.1.2/../../../../nios2-elf/lib\libc.a(lib_a-strlen.o)
 .debug_frame   0x00000c90       0x2c d:/modelsim_ase/quartus/quartus cyclone ii/nios2eds/bin/gnu/h-i686-mingw32/bin/../lib/gcc/nios2-elf/4.1.2/../../../../nios2-elf/lib\libc.a(lib_a-writer.o)
 .debug_frame   0x00000cbc       0x28 d:/modelsim_ase/quartus/quartus cyclone ii/nios2eds/bin/gnu/h-i686-mingw32/bin/../lib/gcc/nios2-elf/4.1.2/../../../../nios2-elf/lib\libc.a(lib_a-callocr.o)
 .debug_frame   0x00000ce4       0x2c d:/modelsim_ase/quartus/quartus cyclone ii/nios2eds/bin/gnu/h-i686-mingw32/bin/../lib/gcc/nios2-elf/4.1.2/../../../../nios2-elf/lib\libc.a(lib_a-closer.o)
 .debug_frame   0x00000d10       0x3c d:/modelsim_ase/quartus/quartus cyclone ii/nios2eds/bin/gnu/h-i686-mingw32/bin/../lib/gcc/nios2-elf/4.1.2/../../../../nios2-elf/lib\libc.a(lib_a-fclose.o)
 .debug_frame   0x00000d4c       0x2c d:/modelsim_ase/quartus/quartus cyclone ii/nios2eds/bin/gnu/h-i686-mingw32/bin/../lib/gcc/nios2-elf/4.1.2/../../../../nios2-elf/lib\libc.a(lib_a-fstatr.o)
 .debug_frame   0x00000d78       0x2c d:/modelsim_ase/quartus/quartus cyclone ii/nios2eds/bin/gnu/h-i686-mingw32/bin/../lib/gcc/nios2-elf/4.1.2/../../../../nios2-elf/lib\libc.a(lib_a-isattyr.o)
 .debug_frame   0x00000da4       0x2c d:/modelsim_ase/quartus/quartus cyclone ii/nios2eds/bin/gnu/h-i686-mingw32/bin/../lib/gcc/nios2-elf/4.1.2/../../../../nios2-elf/lib\libc.a(lib_a-lseekr.o)
 .debug_frame   0x00000dd0       0x2c d:/modelsim_ase/quartus/quartus cyclone ii/nios2eds/bin/gnu/h-i686-mingw32/bin/../lib/gcc/nios2-elf/4.1.2/../../../../nios2-elf/lib\libc.a(lib_a-readr.o)
 .debug_frame   0x00000dfc       0x38 d:/modelsim_ase/quartus/quartus cyclone ii/nios2eds/bin/gnu/h-i686-mingw32/bin/../lib/gcc/nios2-elf/4.1.2\libgcc.a(_umoddi3.o)
 .debug_frame   0x00000e34       0x70 d:/modelsim_ase/quartus/quartus cyclone ii/nios2eds/bin/gnu/h-i686-mingw32/bin/../lib/gcc/nios2-elf/4.1.2\libgcc.a(_addsub_df.o)
 .debug_frame   0x00000ea4       0x3c d:/modelsim_ase/quartus/quartus cyclone ii/nios2eds/bin/gnu/h-i686-mingw32/bin/../lib/gcc/nios2-elf/4.1.2\libgcc.a(_mul_df.o)
 .debug_frame   0x00000ee0       0x30 d:/modelsim_ase/quartus/quartus cyclone ii/nios2eds/bin/gnu/h-i686-mingw32/bin/../lib/gcc/nios2-elf/4.1.2\libgcc.a(_div_df.o)
 .debug_frame   0x00000f10       0x2c d:/modelsim_ase/quartus/quartus cyclone ii/nios2eds/bin/gnu/h-i686-mingw32/bin/../lib/gcc/nios2-elf/4.1.2\libgcc.a(_eq_df.o)
 .debug_frame   0x00000f3c       0x2c d:/modelsim_ase/quartus/quartus cyclone ii/nios2eds/bin/gnu/h-i686-mingw32/bin/../lib/gcc/nios2-elf/4.1.2\libgcc.a(_ne_df.o)
 .debug_frame   0x00000f68       0x2c d:/modelsim_ase/quartus/quartus cyclone ii/nios2eds/bin/gnu/h-i686-mingw32/bin/../lib/gcc/nios2-elf/4.1.2\libgcc.a(_gt_df.o)
 .debug_frame   0x00000f94       0x2c d:/modelsim_ase/quartus/quartus cyclone ii/nios2eds/bin/gnu/h-i686-mingw32/bin/../lib/gcc/nios2-elf/4.1.2\libgcc.a(_ge_df.o)
 .debug_frame   0x00000fc0       0x2c d:/modelsim_ase/quartus/quartus cyclone ii/nios2eds/bin/gnu/h-i686-mingw32/bin/../lib/gcc/nios2-elf/4.1.2\libgcc.a(_lt_df.o)
 .debug_frame   0x00000fec       0x30 d:/modelsim_ase/quartus/quartus cyclone ii/nios2eds/bin/gnu/h-i686-mingw32/bin/../lib/gcc/nios2-elf/4.1.2\libgcc.a(_si_to_df.o)
 .debug_frame   0x0000101c       0x28 d:/modelsim_ase/quartus/quartus cyclone ii/nios2eds/bin/gnu/h-i686-mingw32/bin/../lib/gcc/nios2-elf/4.1.2\libgcc.a(_df_to_si.o)
 .debug_frame   0x00001044       0x38 d:/modelsim_ase/quartus/quartus cyclone ii/nios2eds/bin/gnu/h-i686-mingw32/bin/../lib/gcc/nios2-elf/4.1.2\libgcc.a(_usi_to_df.o)
 .debug_frame   0x0000107c       0x2c d:/modelsim_ase/quartus/quartus cyclone ii/nios2eds/bin/gnu/h-i686-mingw32/bin/../lib/gcc/nios2-elf/4.1.2\libgcc.a(_muldi3.o)
 .debug_frame   0x000010a8       0x20 d:/modelsim_ase/quartus/quartus cyclone ii/nios2eds/bin/gnu/h-i686-mingw32/bin/../lib/gcc/nios2-elf/4.1.2\libgcc.a(_unpack_df.o)
 .debug_frame   0x000010c8       0x20 d:/modelsim_ase/quartus/quartus cyclone ii/nios2eds/bin/gnu/h-i686-mingw32/bin/../lib/gcc/nios2-elf/4.1.2\libgcc.a(_fpcmp_parts_df.o)
 .debug_frame   0x000010e8       0x48 ../FPGA_Lab4_Software_bsp/\libhal_bsp.a(alt_close.o)
 .debug_frame   0x00001130       0x2c ../FPGA_Lab4_Software_bsp/\libhal_bsp.a(alt_dev.o)
 .debug_frame   0x0000115c       0x48 ../FPGA_Lab4_Software_bsp/\libhal_bsp.a(alt_fstat.o)
 .debug_frame   0x000011a4       0x2c ../FPGA_Lab4_Software_bsp/\libhal_bsp.a(alt_irq_register.o)
 .debug_frame   0x000011d0       0x48 ../FPGA_Lab4_Software_bsp/\libhal_bsp.a(alt_isatty.o)
 .debug_frame   0x00001218       0x48 ../FPGA_Lab4_Software_bsp/\libhal_bsp.a(alt_load.o)
 .debug_frame   0x00001260       0x48 ../FPGA_Lab4_Software_bsp/\libhal_bsp.a(alt_lseek.o)
 .debug_frame   0x000012a8       0x2c ../FPGA_Lab4_Software_bsp/\libhal_bsp.a(alt_main.o)
 .debug_frame   0x000012d4       0x48 ../FPGA_Lab4_Software_bsp/\libhal_bsp.a(alt_malloc_lock.o)
 .debug_frame   0x0000131c       0x2c ../FPGA_Lab4_Software_bsp/\libhal_bsp.a(alt_printf.o)
 .debug_frame   0x00001348       0x2c ../FPGA_Lab4_Software_bsp/\libhal_bsp.a(alt_putchar.o)
 .debug_frame   0x00001374       0x48 ../FPGA_Lab4_Software_bsp/\libhal_bsp.a(alt_read.o)
 .debug_frame   0x000013bc       0x2c ../FPGA_Lab4_Software_bsp/\libhal_bsp.a(alt_release_fd.o)
 .debug_frame   0x000013e8       0x2c ../FPGA_Lab4_Software_bsp/\libhal_bsp.a(alt_sbrk.o)
 .debug_frame   0x00001414       0x48 ../FPGA_Lab4_Software_bsp/\libhal_bsp.a(alt_write.o)
 .debug_frame   0x0000145c       0x64 ../FPGA_Lab4_Software_bsp/\libhal_bsp.a(alt_sys_init.o)
 .debug_frame   0x000014c0       0x80 ../FPGA_Lab4_Software_bsp/\libhal_bsp.a(altera_avalon_jtag_uart_fd.o)
 .debug_frame   0x00001540       0x80 ../FPGA_Lab4_Software_bsp/\libhal_bsp.a(altera_avalon_jtag_uart_init.o)
 .debug_frame   0x000015c0       0x2c ../FPGA_Lab4_Software_bsp/\libhal_bsp.a(altera_avalon_jtag_uart_ioctl.o)
 .debug_frame   0x000015ec       0x2c ../FPGA_Lab4_Software_bsp/\libhal_bsp.a(altera_avalon_jtag_uart_read.o)
 .debug_frame   0x00001618       0x2c ../FPGA_Lab4_Software_bsp/\libhal_bsp.a(altera_avalon_jtag_uart_write.o)
 .debug_frame   0x00001644       0x64 ../FPGA_Lab4_Software_bsp/\libhal_bsp.a(altera_avalon_timer_ts.o)
 .debug_frame   0x000016a8      0x208 ../FPGA_Lab4_Software_bsp/\libhal_bsp.a(altera_up_avalon_audio.o)
 .debug_frame   0x000018b0      0x17c ../FPGA_Lab4_Software_bsp/\libhal_bsp.a(altera_up_avalon_character_lcd.o)
 .debug_frame   0x00001a2c       0x2c ../FPGA_Lab4_Software_bsp/\libhal_bsp.a(altera_up_avalon_parallel_port.o)
 .debug_frame   0x00001a58      0x208 ../FPGA_Lab4_Software_bsp/\libhal_bsp.a(altera_up_avalon_ps2.o)
 .debug_frame   0x00001c60       0x9c ../FPGA_Lab4_Software_bsp/\libhal_bsp.a(altera_up_avalon_video_character_buffer_with_dma.o)
 .debug_frame   0x00001cfc      0x160 ../FPGA_Lab4_Software_bsp/\libhal_bsp.a(altera_up_avalon_video_pixel_buffer_dma.o)
 .debug_frame   0x00001e5c       0x2c ../FPGA_Lab4_Software_bsp/\libhal_bsp.a(alt_alarm_start.o)
 .debug_frame   0x00001e88       0x2c ../FPGA_Lab4_Software_bsp/\libhal_bsp.a(alt_dcache_flush_all.o)
 .debug_frame   0x00001eb4       0x48 ../FPGA_Lab4_Software_bsp/\libhal_bsp.a(alt_dev_llist_insert.o)
 .debug_frame   0x00001efc       0x2c ../FPGA_Lab4_Software_bsp/\libhal_bsp.a(alt_do_ctors.o)
 .debug_frame   0x00001f28       0x2c ../FPGA_Lab4_Software_bsp/\libhal_bsp.a(alt_do_dtors.o)
 .debug_frame   0x00001f54       0x2c ../FPGA_Lab4_Software_bsp/\libhal_bsp.a(alt_find_dev.o)
 .debug_frame   0x00001f80       0x2c ../FPGA_Lab4_Software_bsp/\libhal_bsp.a(alt_icache_flush_all.o)
 .debug_frame   0x00001fac       0x80 ../FPGA_Lab4_Software_bsp/\libhal_bsp.a(alt_iic.o)
 .debug_frame   0x0000202c       0x2c ../FPGA_Lab4_Software_bsp/\libhal_bsp.a(alt_iic_isr_register.o)
 .debug_frame   0x00002058       0x48 ../FPGA_Lab4_Software_bsp/\libhal_bsp.a(alt_io_redirect.o)
 .debug_frame   0x000020a0       0x2c ../FPGA_Lab4_Software_bsp/\libhal_bsp.a(alt_irq_handler.o)
 .debug_frame   0x000020cc       0x64 ../FPGA_Lab4_Software_bsp/\libhal_bsp.a(alt_open.o)
 .debug_frame   0x00002130       0x48 ../FPGA_Lab4_Software_bsp/\libhal_bsp.a(alt_tick.o)
 .debug_frame   0x00002178       0x2c ../FPGA_Lab4_Software_bsp/\libhal_bsp.a(altera_nios2_qsys_irq.o)
 .debug_frame   0x000021a4       0x2c ../FPGA_Lab4_Software_bsp/\libhal_bsp.a(alt_find_file.o)
 .debug_frame   0x000021d0       0x2c ../FPGA_Lab4_Software_bsp/\libhal_bsp.a(alt_get_fd.o)
 .debug_frame   0x000021fc       0x2c ../FPGA_Lab4_Software_bsp/\libhal_bsp.a(alt_icache_flush.o)
 .debug_frame   0x00002228       0x20 d:/modelsim_ase/quartus/quartus cyclone ii/nios2eds/bin/gnu/h-i686-mingw32/bin/../lib/gcc/nios2-elf/4.1.2/../../../../nios2-elf/lib\libc.a(lib_a-atexit.o)
 .debug_frame   0x00002248       0x28 d:/modelsim_ase/quartus/quartus cyclone ii/nios2eds/bin/gnu/h-i686-mingw32/bin/../lib/gcc/nios2-elf/4.1.2/../../../../nios2-elf/lib\libc.a(lib_a-exit.o)
 .debug_frame   0x00002270       0x20 d:/modelsim_ase/quartus/quartus cyclone ii/nios2eds/bin/gnu/h-i686-mingw32/bin/../lib/gcc/nios2-elf/4.1.2/../../../../nios2-elf/lib\libc.a(lib_a-memcmp.o)
 .debug_frame   0x00002290       0x4c d:/modelsim_ase/quartus/quartus cyclone ii/nios2eds/bin/gnu/h-i686-mingw32/bin/../lib/gcc/nios2-elf/4.1.2/../../../../nios2-elf/lib\libc.a(lib_a-putc.o)
 .debug_frame   0x000022dc       0x3c d:/modelsim_ase/quartus/quartus cyclone ii/nios2eds/bin/gnu/h-i686-mingw32/bin/../lib/gcc/nios2-elf/4.1.2/../../../../nios2-elf/lib\libc.a(lib_a-wbuf.o)
 .debug_frame   0x00002318       0x34 d:/modelsim_ase/quartus/quartus cyclone ii/nios2eds/bin/gnu/h-i686-mingw32/bin/../lib/gcc/nios2-elf/4.1.2/../../../../nios2-elf/lib\libc.a(lib_a-__atexit.o)
 .debug_frame   0x0000234c       0x4c d:/modelsim_ase/quartus/quartus cyclone ii/nios2eds/bin/gnu/h-i686-mingw32/bin/../lib/gcc/nios2-elf/4.1.2/../../../../nios2-elf/lib\libc.a(lib_a-__call_atexit.o)
 .debug_frame   0x00002398       0x48 ../FPGA_Lab4_Software_bsp/\libhal_bsp.a(alt_exit.o)

.debug_str      0x00000000     0x2a15
 *(.debug_str)
 .debug_str     0x00000000       0xe9 obj/default/PS2_ISR.o
 .debug_str     0x000000e9       0xfa obj/default/audio_ISR.o
 .debug_str     0x000001e3       0xe9 obj/default/globals.o
 .debug_str     0x000002cc       0xe9 obj/default/interval_timer_ISR.o
 .debug_str     0x000003b5      0x146 obj/default/media_interrupt_HAL.o
 .debug_str     0x000004fb       0xf3 obj/default/pushbutton_ISR.o
 .debug_str     0x000005ee      0x1a3 d:/modelsim_ase/quartus/quartus cyclone ii/nios2eds/bin/gnu/h-i686-mingw32/bin/../lib/gcc/nios2-elf/4.1.2\libgcc.a(_udivdi3.o)
                                0x1f7 (size before relaxing)
 .debug_str     0x00000791       0xb8 d:/modelsim_ase/quartus/quartus cyclone ii/nios2eds/bin/gnu/h-i686-mingw32/bin/../lib/gcc/nios2-elf/4.1.2\libgcc.a(_si_to_sf.o)
                                0x1de (size before relaxing)
 .debug_str     0x00000849       0x36 d:/modelsim_ase/quartus/quartus cyclone ii/nios2eds/bin/gnu/h-i686-mingw32/bin/../lib/gcc/nios2-elf/4.1.2\libgcc.a(_sf_to_si.o)
                                0x201 (size before relaxing)
 .debug_str     0x0000087f       0x15 d:/modelsim_ase/quartus/quartus cyclone ii/nios2eds/bin/gnu/h-i686-mingw32/bin/../lib/gcc/nios2-elf/4.1.2\libgcc.a(_sf_to_df.o)
                                0x1f2 (size before relaxing)
 .debug_str     0x00000894       0x14 d:/modelsim_ase/quartus/quartus cyclone ii/nios2eds/bin/gnu/h-i686-mingw32/bin/../lib/gcc/nios2-elf/4.1.2\libgcc.a(_usi_to_sf.o)
                                0x1da (size before relaxing)
 .debug_str     0x000008a8       0x1f d:/modelsim_ase/quartus/quartus cyclone ii/nios2eds/bin/gnu/h-i686-mingw32/bin/../lib/gcc/nios2-elf/4.1.2\libgcc.a(_make_df.o)
                                0x1b9 (size before relaxing)
 .debug_str     0x000008c7       0x76 d:/modelsim_ase/quartus/quartus cyclone ii/nios2eds/bin/gnu/h-i686-mingw32/bin/../lib/gcc/nios2-elf/4.1.2\libgcc.a(lib2-divmod.o)
                                0x1b4 (size before relaxing)
 .debug_str     0x00000000      0x161 d:/modelsim_ase/quartus/quartus cyclone ii/nios2eds/bin/gnu/h-i686-mingw32/bin/../lib/gcc/nios2-elf/4.1.2\libgcc.a(_clz.o)
 .debug_str     0x0000093d        0x9 d:/modelsim_ase/quartus/quartus cyclone ii/nios2eds/bin/gnu/h-i686-mingw32/bin/../lib/gcc/nios2-elf/4.1.2\libgcc.a(_clzsi2.o)
                                0x17e (size before relaxing)
 .debug_str     0x00000946       0x10 d:/modelsim_ase/quartus/quartus cyclone ii/nios2eds/bin/gnu/h-i686-mingw32/bin/../lib/gcc/nios2-elf/4.1.2\libgcc.a(_pack_sf.o)
                                0x200 (size before relaxing)
 .debug_str     0x00000956        0xb d:/modelsim_ase/quartus/quartus cyclone ii/nios2eds/bin/gnu/h-i686-mingw32/bin/../lib/gcc/nios2-elf/4.1.2\libgcc.a(_unpack_sf.o)
                                0x1e2 (size before relaxing)
 .debug_str     0x00000961        0xf d:/modelsim_ase/quartus/quartus cyclone ii/nios2eds/bin/gnu/h-i686-mingw32/bin/../lib/gcc/nios2-elf/4.1.2\libgcc.a(_pack_df.o)
                                0x206 (size before relaxing)
 .debug_str     0x00000970       0xf5 d:/modelsim_ase/quartus/quartus cyclone ii/nios2eds/bin/gnu/h-i686-mingw32/bin/../lib/gcc/nios2-elf/4.1.2/../../../../nios2-elf/lib\libc.a(lib_a-memcpy.o)
                                0x128 (size before relaxing)
 .debug_str     0x00000a65       0x56 d:/modelsim_ase/quartus/quartus cyclone ii/nios2eds/bin/gnu/h-i686-mingw32/bin/../lib/gcc/nios2-elf/4.1.2/../../../../nios2-elf/lib\libc.a(lib_a-memset.o)
                                0x17e (size before relaxing)
 .debug_str     0x00000abb      0x43f d:/modelsim_ase/quartus/quartus cyclone ii/nios2eds/bin/gnu/h-i686-mingw32/bin/../lib/gcc/nios2-elf/4.1.2/../../../../nios2-elf/lib\libc.a(lib_a-printf.o)
                                0x523 (size before relaxing)
 .debug_str     0x00000efa      0x1c1 d:/modelsim_ase/quartus/quartus cyclone ii/nios2eds/bin/gnu/h-i686-mingw32/bin/../lib/gcc/nios2-elf/4.1.2/../../../../nios2-elf/lib\libc.a(lib_a-vfprintf.o)
                                0x6f8 (size before relaxing)
 .debug_str     0x000010bb       0x46 d:/modelsim_ase/quartus/quartus cyclone ii/nios2eds/bin/gnu/h-i686-mingw32/bin/../lib/gcc/nios2-elf/4.1.2/../../../../nios2-elf/lib\libc.a(lib_a-wsetup.o)
                                0x50c (size before relaxing)
 .debug_str     0x00001101      0x18e d:/modelsim_ase/quartus/quartus cyclone ii/nios2eds/bin/gnu/h-i686-mingw32/bin/../lib/gcc/nios2-elf/4.1.2/../../../../nios2-elf/lib\libc.a(lib_a-dtoa.o)
                                0x601 (size before relaxing)
 .debug_str     0x0000128f       0x65 d:/modelsim_ase/quartus/quartus cyclone ii/nios2eds/bin/gnu/h-i686-mingw32/bin/../lib/gcc/nios2-elf/4.1.2/../../../../nios2-elf/lib\libc.a(lib_a-fflush.o)
                                0x532 (size before relaxing)
 .debug_str     0x000012f4      0x102 d:/modelsim_ase/quartus/quartus cyclone ii/nios2eds/bin/gnu/h-i686-mingw32/bin/../lib/gcc/nios2-elf/4.1.2/../../../../nios2-elf/lib\libc.a(lib_a-findfp.o)
                                0x5f4 (size before relaxing)
 .debug_str     0x000013f6      0x15b d:/modelsim_ase/quartus/quartus cyclone ii/nios2eds/bin/gnu/h-i686-mingw32/bin/../lib/gcc/nios2-elf/4.1.2/../../../../nios2-elf/lib\libc.a(lib_a-freer.o)
                                0x643 (size before relaxing)
 .debug_str     0x00001551       0x66 d:/modelsim_ase/quartus/quartus cyclone ii/nios2eds/bin/gnu/h-i686-mingw32/bin/../lib/gcc/nios2-elf/4.1.2/../../../../nios2-elf/lib\libc.a(lib_a-fvwrite.o)
                                0x563 (size before relaxing)
 .debug_str     0x000015b7       0x5e d:/modelsim_ase/quartus/quartus cyclone ii/nios2eds/bin/gnu/h-i686-mingw32/bin/../lib/gcc/nios2-elf/4.1.2/../../../../nios2-elf/lib\libc.a(lib_a-fwalk.o)
                                0x535 (size before relaxing)
 .debug_str     0x00001615       0xd1 d:/modelsim_ase/quartus/quartus cyclone ii/nios2eds/bin/gnu/h-i686-mingw32/bin/../lib/gcc/nios2-elf/4.1.2/../../../../nios2-elf/lib\libc.a(lib_a-impure.o)
                                0x51a (size before relaxing)
 .debug_str     0x000016e6      0x225 d:/modelsim_ase/quartus/quartus cyclone ii/nios2eds/bin/gnu/h-i686-mingw32/bin/../lib/gcc/nios2-elf/4.1.2/../../../../nios2-elf/lib\libc.a(lib_a-locale.o)
                                0x6a9 (size before relaxing)
 .debug_str     0x0000190b      0x123 d:/modelsim_ase/quartus/quartus cyclone ii/nios2eds/bin/gnu/h-i686-mingw32/bin/../lib/gcc/nios2-elf/4.1.2/../../../../nios2-elf/lib\libc.a(lib_a-makebuf.o)
                                0x606 (size before relaxing)
 .debug_str     0x00001a2e       0xef d:/modelsim_ase/quartus/quartus cyclone ii/nios2eds/bin/gnu/h-i686-mingw32/bin/../lib/gcc/nios2-elf/4.1.2/../../../../nios2-elf/lib\libc.a(lib_a-mallocr.o)
                                0x6f1 (size before relaxing)
 .debug_str     0x00001b1d       0x55 d:/modelsim_ase/quartus/quartus cyclone ii/nios2eds/bin/gnu/h-i686-mingw32/bin/../lib/gcc/nios2-elf/4.1.2/../../../../nios2-elf/lib\libc.a(lib_a-memchr.o)
                                0x18b (size before relaxing)
 .debug_str     0x00001b72       0x4d d:/modelsim_ase/quartus/quartus cyclone ii/nios2eds/bin/gnu/h-i686-mingw32/bin/../lib/gcc/nios2-elf/4.1.2/../../../../nios2-elf/lib\libc.a(lib_a-memmove.o)
                                0x19d (size before relaxing)
 .debug_str     0x00001bbf       0xf8 d:/modelsim_ase/quartus/quartus cyclone ii/nios2eds/bin/gnu/h-i686-mingw32/bin/../lib/gcc/nios2-elf/4.1.2/../../../../nios2-elf/lib\libc.a(lib_a-mprec.o)
                                0x60e (size before relaxing)
 .debug_str     0x00001cb7       0x59 d:/modelsim_ase/quartus/quartus cyclone ii/nios2eds/bin/gnu/h-i686-mingw32/bin/../lib/gcc/nios2-elf/4.1.2/../../../../nios2-elf/lib\libc.a(lib_a-reallocr.o)
                                0x5c3 (size before relaxing)
 .debug_str     0x00001d10       0xdc d:/modelsim_ase/quartus/quartus cyclone ii/nios2eds/bin/gnu/h-i686-mingw32/bin/../lib/gcc/nios2-elf/4.1.2/../../../../nios2-elf/lib\libc.a(lib_a-s_isinfd.o)
                                0x18a (size before relaxing)
 .debug_str     0x00001dec       0x46 d:/modelsim_ase/quartus/quartus cyclone ii/nios2eds/bin/gnu/h-i686-mingw32/bin/../lib/gcc/nios2-elf/4.1.2/../../../../nios2-elf/lib\libc.a(lib_a-s_isnand.o)
                                0x18a (size before relaxing)
 .debug_str     0x00001e32       0x50 d:/modelsim_ase/quartus/quartus cyclone ii/nios2eds/bin/gnu/h-i686-mingw32/bin/../lib/gcc/nios2-elf/4.1.2/../../../../nios2-elf/lib\libc.a(lib_a-sbrkr.o)
                                0x50b (size before relaxing)
 .debug_str     0x00001e82       0x62 d:/modelsim_ase/quartus/quartus cyclone ii/nios2eds/bin/gnu/h-i686-mingw32/bin/../lib/gcc/nios2-elf/4.1.2/../../../../nios2-elf/lib\libc.a(lib_a-stdio.o)
                                0x531 (size before relaxing)
 .debug_str     0x00001ee4       0x42 d:/modelsim_ase/quartus/quartus cyclone ii/nios2eds/bin/gnu/h-i686-mingw32/bin/../lib/gcc/nios2-elf/4.1.2/../../../../nios2-elf/lib\libc.a(lib_a-strcmp.o)
                                0x163 (size before relaxing)
 .debug_str     0x00001f26       0x42 d:/modelsim_ase/quartus/quartus cyclone ii/nios2eds/bin/gnu/h-i686-mingw32/bin/../lib/gcc/nios2-elf/4.1.2/../../../../nios2-elf/lib\libc.a(lib_a-strlen.o)
                                0x17d (size before relaxing)
 .debug_str     0x00001f68       0x4c d:/modelsim_ase/quartus/quartus cyclone ii/nios2eds/bin/gnu/h-i686-mingw32/bin/../lib/gcc/nios2-elf/4.1.2/../../../../nios2-elf/lib\libc.a(lib_a-writer.o)
                                0x50e (size before relaxing)
 .debug_str     0x00001fb4       0x19 d:/modelsim_ase/quartus/quartus cyclone ii/nios2eds/bin/gnu/h-i686-mingw32/bin/../lib/gcc/nios2-elf/4.1.2/../../../../nios2-elf/lib\libc.a(lib_a-callocr.o)
                                0x542 (size before relaxing)
 .debug_str     0x00001fcd       0x43 d:/modelsim_ase/quartus/quartus cyclone ii/nios2eds/bin/gnu/h-i686-mingw32/bin/../lib/gcc/nios2-elf/4.1.2/../../../../nios2-elf/lib\libc.a(lib_a-closer.o)
                                0x4fe (size before relaxing)
 .debug_str     0x00002010       0x4b d:/modelsim_ase/quartus/quartus cyclone ii/nios2eds/bin/gnu/h-i686-mingw32/bin/../lib/gcc/nios2-elf/4.1.2/../../../../nios2-elf/lib\libc.a(lib_a-fclose.o)
                                0x516 (size before relaxing)
 .debug_str     0x0000205b       0x49 d:/modelsim_ase/quartus/quartus cyclone ii/nios2eds/bin/gnu/h-i686-mingw32/bin/../lib/gcc/nios2-elf/4.1.2/../../../../nios2-elf/lib\libc.a(lib_a-fstatr.o)
                                0x5f1 (size before relaxing)
 .debug_str     0x000020a4       0x3d d:/modelsim_ase/quartus/quartus cyclone ii/nios2eds/bin/gnu/h-i686-mingw32/bin/../lib/gcc/nios2-elf/4.1.2/../../../../nios2-elf/lib\libc.a(lib_a-int_errno.o)
                                0x163 (size before relaxing)
 .debug_str     0x000020e1       0x45 d:/modelsim_ase/quartus/quartus cyclone ii/nios2eds/bin/gnu/h-i686-mingw32/bin/../lib/gcc/nios2-elf/4.1.2/../../../../nios2-elf/lib\libc.a(lib_a-isattyr.o)
                                0x500 (size before relaxing)
 .debug_str     0x00002126       0x43 d:/modelsim_ase/quartus/quartus cyclone ii/nios2eds/bin/gnu/h-i686-mingw32/bin/../lib/gcc/nios2-elf/4.1.2/../../../../nios2-elf/lib\libc.a(lib_a-lseekr.o)
                                0x50c (size before relaxing)
 .debug_str     0x00002169       0x41 d:/modelsim_ase/quartus/quartus cyclone ii/nios2eds/bin/gnu/h-i686-mingw32/bin/../lib/gcc/nios2-elf/4.1.2/../../../../nios2-elf/lib\libc.a(lib_a-readr.o)
                                0x50c (size before relaxing)
 .debug_str     0x000021aa        0xa d:/modelsim_ase/quartus/quartus cyclone ii/nios2eds/bin/gnu/h-i686-mingw32/bin/../lib/gcc/nios2-elf/4.1.2\libgcc.a(_umoddi3.o)
                                0x1f7 (size before relaxing)
 .debug_str     0x000021b4       0x6d d:/modelsim_ase/quartus/quartus cyclone ii/nios2eds/bin/gnu/h-i686-mingw32/bin/../lib/gcc/nios2-elf/4.1.2\libgcc.a(_addsub_df.o)
                                0x26f (size before relaxing)
 .debug_str     0x00002221       0x40 d:/modelsim_ase/quartus/quartus cyclone ii/nios2eds/bin/gnu/h-i686-mingw32/bin/../lib/gcc/nios2-elf/4.1.2\libgcc.a(_mul_df.o)
                                0x241 (size before relaxing)
 .debug_str     0x00002261       0x35 d:/modelsim_ase/quartus/quartus cyclone ii/nios2eds/bin/gnu/h-i686-mingw32/bin/../lib/gcc/nios2-elf/4.1.2\libgcc.a(_div_df.o)
                                0x231 (size before relaxing)
 .debug_str     0x00002296        0x8 d:/modelsim_ase/quartus/quartus cyclone ii/nios2eds/bin/gnu/h-i686-mingw32/bin/../lib/gcc/nios2-elf/4.1.2\libgcc.a(_eq_df.o)
                                0x1fe (size before relaxing)
 .debug_str     0x0000229e        0x8 d:/modelsim_ase/quartus/quartus cyclone ii/nios2eds/bin/gnu/h-i686-mingw32/bin/../lib/gcc/nios2-elf/4.1.2\libgcc.a(_ne_df.o)
                                0x1fe (size before relaxing)
 .debug_str     0x000022a6        0x8 d:/modelsim_ase/quartus/quartus cyclone ii/nios2eds/bin/gnu/h-i686-mingw32/bin/../lib/gcc/nios2-elf/4.1.2\libgcc.a(_gt_df.o)
                                0x1fe (size before relaxing)
 .debug_str     0x000022ae        0x8 d:/modelsim_ase/quartus/quartus cyclone ii/nios2eds/bin/gnu/h-i686-mingw32/bin/../lib/gcc/nios2-elf/4.1.2\libgcc.a(_ge_df.o)
                                0x1fe (size before relaxing)
 .debug_str     0x000022b6        0x8 d:/modelsim_ase/quartus/quartus cyclone ii/nios2eds/bin/gnu/h-i686-mingw32/bin/../lib/gcc/nios2-elf/4.1.2\libgcc.a(_lt_df.o)
                                0x1fe (size before relaxing)
 .debug_str     0x000022be        0xc d:/modelsim_ase/quartus/quartus cyclone ii/nios2eds/bin/gnu/h-i686-mingw32/bin/../lib/gcc/nios2-elf/4.1.2\libgcc.a(_si_to_df.o)
                                0x1de (size before relaxing)
 .debug_str     0x000022ca        0xa d:/modelsim_ase/quartus/quartus cyclone ii/nios2eds/bin/gnu/h-i686-mingw32/bin/../lib/gcc/nios2-elf/4.1.2\libgcc.a(_df_to_si.o)
                                0x207 (size before relaxing)
 .debug_str     0x00000000      0x1a3 d:/modelsim_ase/quartus/quartus cyclone ii/nios2eds/bin/gnu/h-i686-mingw32/bin/../lib/gcc/nios2-elf/4.1.2\libgcc.a(_thenan_df.o)
 .debug_str     0x000022d4        0xe d:/modelsim_ase/quartus/quartus cyclone ii/nios2eds/bin/gnu/h-i686-mingw32/bin/../lib/gcc/nios2-elf/4.1.2\libgcc.a(_usi_to_df.o)
                                0x1da (size before relaxing)
 .debug_str     0x000022e2        0x9 d:/modelsim_ase/quartus/quartus cyclone ii/nios2eds/bin/gnu/h-i686-mingw32/bin/../lib/gcc/nios2-elf/4.1.2\libgcc.a(_muldi3.o)
                                0x1ac (size before relaxing)
 .debug_str     0x000022eb        0xb d:/modelsim_ase/quartus/quartus cyclone ii/nios2eds/bin/gnu/h-i686-mingw32/bin/../lib/gcc/nios2-elf/4.1.2\libgcc.a(_unpack_df.o)
                                0x1e8 (size before relaxing)
 .debug_str     0x000022f6       0x10 d:/modelsim_ase/quartus/quartus cyclone ii/nios2eds/bin/gnu/h-i686-mingw32/bin/../lib/gcc/nios2-elf/4.1.2\libgcc.a(_fpcmp_parts_df.o)
                                0x1c6 (size before relaxing)
 .debug_str     0x00002306       0x12 ../FPGA_Lab4_Software_bsp/\libhal_bsp.a(alt_close.o)
 .debug_str     0x00002318       0x12 ../FPGA_Lab4_Software_bsp/\libhal_bsp.a(alt_dev.o)
 .debug_str     0x0000232a       0x12 ../FPGA_Lab4_Software_bsp/\libhal_bsp.a(alt_errno.o)
 .debug_str     0x0000233c       0x12 ../FPGA_Lab4_Software_bsp/\libhal_bsp.a(alt_fstat.o)
 .debug_str     0x0000234e       0x21 ../FPGA_Lab4_Software_bsp/\libhal_bsp.a(alt_irq_register.o)
 .debug_str     0x0000236f       0x12 ../FPGA_Lab4_Software_bsp/\libhal_bsp.a(alt_isatty.o)
 .debug_str     0x00002381       0x12 ../FPGA_Lab4_Software_bsp/\libhal_bsp.a(alt_load.o)
 .debug_str     0x00002393       0x12 ../FPGA_Lab4_Software_bsp/\libhal_bsp.a(alt_lseek.o)
 .debug_str     0x000023a5       0x12 ../FPGA_Lab4_Software_bsp/\libhal_bsp.a(alt_main.o)
 .debug_str     0x000023b7       0x20 ../FPGA_Lab4_Software_bsp/\libhal_bsp.a(alt_malloc_lock.o)
 .debug_str     0x000023d7       0x20 ../FPGA_Lab4_Software_bsp/\libhal_bsp.a(alt_putchar.o)
 .debug_str     0x000023f7       0x12 ../FPGA_Lab4_Software_bsp/\libhal_bsp.a(alt_read.o)
 .debug_str     0x00002409       0x1a ../FPGA_Lab4_Software_bsp/\libhal_bsp.a(alt_sbrk.o)
 .debug_str     0x00002423       0x12 ../FPGA_Lab4_Software_bsp/\libhal_bsp.a(alt_write.o)
 .debug_str     0x00002435       0x12 ../FPGA_Lab4_Software_bsp/\libhal_bsp.a(alt_sys_init.o)
 .debug_str     0x00002447       0x12 ../FPGA_Lab4_Software_bsp/\libhal_bsp.a(altera_avalon_jtag_uart_fd.o)
 .debug_str     0x00002459       0x1a ../FPGA_Lab4_Software_bsp/\libhal_bsp.a(altera_avalon_jtag_uart_init.o)
 .debug_str     0x00002473       0x12 ../FPGA_Lab4_Software_bsp/\libhal_bsp.a(altera_avalon_jtag_uart_ioctl.o)
 .debug_str     0x00002485       0x1a ../FPGA_Lab4_Software_bsp/\libhal_bsp.a(altera_avalon_jtag_uart_read.o)
 .debug_str     0x0000249f       0x1a ../FPGA_Lab4_Software_bsp/\libhal_bsp.a(altera_avalon_jtag_uart_write.o)
 .debug_str     0x000024b9       0x12 ../FPGA_Lab4_Software_bsp/\libhal_bsp.a(altera_avalon_timer_ts.o)
 .debug_str     0x000024cb       0x12 ../FPGA_Lab4_Software_bsp/\libhal_bsp.a(altera_avalon_timer_vars.o)
 .debug_str     0x000024dd       0x4f ../FPGA_Lab4_Software_bsp/\libhal_bsp.a(altera_up_avalon_audio.o)
 .debug_str     0x0000252c       0x55 ../FPGA_Lab4_Software_bsp/\libhal_bsp.a(altera_up_avalon_character_lcd.o)
 .debug_str     0x00002581       0x2b ../FPGA_Lab4_Software_bsp/\libhal_bsp.a(altera_up_avalon_parallel_port.o)
 .debug_str     0x000025ac       0x3a ../FPGA_Lab4_Software_bsp/\libhal_bsp.a(altera_up_avalon_ps2.o)
 .debug_str     0x000025e6       0x35 ../FPGA_Lab4_Software_bsp/\libhal_bsp.a(altera_up_avalon_video_character_buffer_with_dma.o)
 .debug_str     0x0000261b       0x93 ../FPGA_Lab4_Software_bsp/\libhal_bsp.a(altera_up_avalon_video_pixel_buffer_dma.o)
 .debug_str     0x000026ae       0x23 ../FPGA_Lab4_Software_bsp/\libhal_bsp.a(alt_alarm_start.o)
 .debug_str     0x000026d1       0x12 ../FPGA_Lab4_Software_bsp/\libhal_bsp.a(alt_dcache_flush_all.o)
 .debug_str     0x000026e3       0x12 ../FPGA_Lab4_Software_bsp/\libhal_bsp.a(alt_dev_llist_insert.o)
 .debug_str     0x000026f5       0x12 ../FPGA_Lab4_Software_bsp/\libhal_bsp.a(alt_find_dev.o)
 .debug_str     0x00002707       0x12 ../FPGA_Lab4_Software_bsp/\libhal_bsp.a(alt_icache_flush_all.o)
 .debug_str     0x00002719       0x18 ../FPGA_Lab4_Software_bsp/\libhal_bsp.a(alt_iic.o)
 .debug_str     0x00002731       0x1a ../FPGA_Lab4_Software_bsp/\libhal_bsp.a(alt_iic_isr_register.o)
 .debug_str     0x0000274b       0x12 ../FPGA_Lab4_Software_bsp/\libhal_bsp.a(alt_io_redirect.o)
 .debug_str     0x0000275d       0x12 ../FPGA_Lab4_Software_bsp/\libhal_bsp.a(alt_irq_handler.o)
 .debug_str     0x0000276f       0x12 ../FPGA_Lab4_Software_bsp/\libhal_bsp.a(alt_open.o)
 .debug_str     0x00002781       0x1a ../FPGA_Lab4_Software_bsp/\libhal_bsp.a(alt_tick.o)
 .debug_str     0x0000279b       0x12 ../FPGA_Lab4_Software_bsp/\libhal_bsp.a(altera_nios2_qsys_irq.o)
 .debug_str     0x000027ad       0x12 ../FPGA_Lab4_Software_bsp/\libhal_bsp.a(alt_find_file.o)
 .debug_str     0x000027bf       0x12 ../FPGA_Lab4_Software_bsp/\libhal_bsp.a(alt_get_fd.o)
 .debug_str     0x000027d1       0x12 ../FPGA_Lab4_Software_bsp/\libhal_bsp.a(alt_icache_flush.o)
 .debug_str     0x000027e3       0x3b d:/modelsim_ase/quartus/quartus cyclone ii/nios2eds/bin/gnu/h-i686-mingw32/bin/../lib/gcc/nios2-elf/4.1.2/../../../../nios2-elf/lib\libc.a(lib_a-atexit.o)
                                0x1bf (size before relaxing)
 .debug_str     0x0000281e       0x3e d:/modelsim_ase/quartus/quartus cyclone ii/nios2eds/bin/gnu/h-i686-mingw32/bin/../lib/gcc/nios2-elf/4.1.2/../../../../nios2-elf/lib\libc.a(lib_a-exit.o)
                                0x50c (size before relaxing)
 .debug_str     0x0000285c       0x42 d:/modelsim_ase/quartus/quartus cyclone ii/nios2eds/bin/gnu/h-i686-mingw32/bin/../lib/gcc/nios2-elf/4.1.2/../../../../nios2-elf/lib\libc.a(lib_a-memcmp.o)
                                0x16a (size before relaxing)
 .debug_str     0x0000289e       0x45 d:/modelsim_ase/quartus/quartus cyclone ii/nios2eds/bin/gnu/h-i686-mingw32/bin/../lib/gcc/nios2-elf/4.1.2/../../../../nios2-elf/lib\libc.a(lib_a-putc.o)
                                0x512 (size before relaxing)
 .debug_str     0x000028e3       0x4a d:/modelsim_ase/quartus/quartus cyclone ii/nios2eds/bin/gnu/h-i686-mingw32/bin/../lib/gcc/nios2-elf/4.1.2/../../../../nios2-elf/lib\libc.a(lib_a-wbuf.o)
                                0x510 (size before relaxing)
 .debug_str     0x0000292d       0x51 d:/modelsim_ase/quartus/quartus cyclone ii/nios2eds/bin/gnu/h-i686-mingw32/bin/../lib/gcc/nios2-elf/4.1.2/../../../../nios2-elf/lib\libc.a(lib_a-__atexit.o)
                                0x524 (size before relaxing)
 .debug_str     0x0000297e       0x7b d:/modelsim_ase/quartus/quartus cyclone ii/nios2eds/bin/gnu/h-i686-mingw32/bin/../lib/gcc/nios2-elf/4.1.2/../../../../nios2-elf/lib\libc.a(lib_a-__call_atexit.o)
                                0x54e (size before relaxing)
 .debug_str     0x000029f9       0x1c ../FPGA_Lab4_Software_bsp/\libhal_bsp.a(alt_exit.o)

.debug_loc      0x00000000     0xd1fe
 *(.debug_loc)
 .debug_loc     0x00000000       0x2b obj/default/PS2_ISR.o
 .debug_loc     0x0000002b       0x2b obj/default/audio_ISR.o
 .debug_loc     0x00000056       0x2b obj/default/interval_timer_ISR.o
 .debug_loc     0x00000081      0x25c obj/default/media_interrupt_HAL.o
 .debug_loc     0x000002dd       0x2b obj/default/pushbutton_ISR.o
 .debug_loc     0x00000308      0xc12 d:/modelsim_ase/quartus/quartus cyclone ii/nios2eds/bin/gnu/h-i686-mingw32/bin/../lib/gcc/nios2-elf/4.1.2\libgcc.a(_udivdi3.o)
 .debug_loc     0x00000f1a       0x8f d:/modelsim_ase/quartus/quartus cyclone ii/nios2eds/bin/gnu/h-i686-mingw32/bin/../lib/gcc/nios2-elf/4.1.2\libgcc.a(_si_to_sf.o)
 .debug_loc     0x00000fa9       0x66 d:/modelsim_ase/quartus/quartus cyclone ii/nios2eds/bin/gnu/h-i686-mingw32/bin/../lib/gcc/nios2-elf/4.1.2\libgcc.a(_sf_to_si.o)
 .debug_loc     0x0000100f       0x32 d:/modelsim_ase/quartus/quartus cyclone ii/nios2eds/bin/gnu/h-i686-mingw32/bin/../lib/gcc/nios2-elf/4.1.2\libgcc.a(_sf_to_df.o)
 .debug_loc     0x00001041       0x87 d:/modelsim_ase/quartus/quartus cyclone ii/nios2eds/bin/gnu/h-i686-mingw32/bin/../lib/gcc/nios2-elf/4.1.2\libgcc.a(_usi_to_sf.o)
 .debug_loc     0x000010c8       0x58 d:/modelsim_ase/quartus/quartus cyclone ii/nios2eds/bin/gnu/h-i686-mingw32/bin/../lib/gcc/nios2-elf/4.1.2\libgcc.a(_make_df.o)
 .debug_loc     0x00001120      0x1d2 d:/modelsim_ase/quartus/quartus cyclone ii/nios2eds/bin/gnu/h-i686-mingw32/bin/../lib/gcc/nios2-elf/4.1.2\libgcc.a(lib2-divmod.o)
 .debug_loc     0x000012f2       0x1e d:/modelsim_ase/quartus/quartus cyclone ii/nios2eds/bin/gnu/h-i686-mingw32/bin/../lib/gcc/nios2-elf/4.1.2\libgcc.a(_clzsi2.o)
 .debug_loc     0x00001310       0xf9 d:/modelsim_ase/quartus/quartus cyclone ii/nios2eds/bin/gnu/h-i686-mingw32/bin/../lib/gcc/nios2-elf/4.1.2\libgcc.a(_pack_sf.o)
 .debug_loc     0x00001409       0x31 d:/modelsim_ase/quartus/quartus cyclone ii/nios2eds/bin/gnu/h-i686-mingw32/bin/../lib/gcc/nios2-elf/4.1.2\libgcc.a(_unpack_sf.o)
 .debug_loc     0x0000143a      0x184 d:/modelsim_ase/quartus/quartus cyclone ii/nios2eds/bin/gnu/h-i686-mingw32/bin/../lib/gcc/nios2-elf/4.1.2\libgcc.a(_pack_df.o)
 .debug_loc     0x000015be       0xca d:/modelsim_ase/quartus/quartus cyclone ii/nios2eds/bin/gnu/h-i686-mingw32/bin/../lib/gcc/nios2-elf/4.1.2/../../../../nios2-elf/lib\libc.a(lib_a-memcpy.o)
 .debug_loc     0x00001688       0xa1 d:/modelsim_ase/quartus/quartus cyclone ii/nios2eds/bin/gnu/h-i686-mingw32/bin/../lib/gcc/nios2-elf/4.1.2/../../../../nios2-elf/lib\libc.a(lib_a-memset.o)
 .debug_loc     0x00001729       0xcb d:/modelsim_ase/quartus/quartus cyclone ii/nios2eds/bin/gnu/h-i686-mingw32/bin/../lib/gcc/nios2-elf/4.1.2/../../../../nios2-elf/lib\libc.a(lib_a-printf.o)
 .debug_loc     0x000017f4     0x1e0d d:/modelsim_ase/quartus/quartus cyclone ii/nios2eds/bin/gnu/h-i686-mingw32/bin/../lib/gcc/nios2-elf/4.1.2/../../../../nios2-elf/lib\libc.a(lib_a-vfprintf.o)
 .debug_loc     0x00003601       0x7c d:/modelsim_ase/quartus/quartus cyclone ii/nios2eds/bin/gnu/h-i686-mingw32/bin/../lib/gcc/nios2-elf/4.1.2/../../../../nios2-elf/lib\libc.a(lib_a-wsetup.o)
 .debug_loc     0x0000367d     0x1dfa d:/modelsim_ase/quartus/quartus cyclone ii/nios2eds/bin/gnu/h-i686-mingw32/bin/../lib/gcc/nios2-elf/4.1.2/../../../../nios2-elf/lib\libc.a(lib_a-dtoa.o)
 .debug_loc     0x00005477      0x1f6 d:/modelsim_ase/quartus/quartus cyclone ii/nios2eds/bin/gnu/h-i686-mingw32/bin/../lib/gcc/nios2-elf/4.1.2/../../../../nios2-elf/lib\libc.a(lib_a-fflush.o)
 .debug_loc     0x0000566d      0x19f d:/modelsim_ase/quartus/quartus cyclone ii/nios2eds/bin/gnu/h-i686-mingw32/bin/../lib/gcc/nios2-elf/4.1.2/../../../../nios2-elf/lib\libc.a(lib_a-findfp.o)
 .debug_loc     0x0000580c      0x4a7 d:/modelsim_ase/quartus/quartus cyclone ii/nios2eds/bin/gnu/h-i686-mingw32/bin/../lib/gcc/nios2-elf/4.1.2/../../../../nios2-elf/lib\libc.a(lib_a-freer.o)
 .debug_loc     0x00005cb3      0x4e4 d:/modelsim_ase/quartus/quartus cyclone ii/nios2eds/bin/gnu/h-i686-mingw32/bin/../lib/gcc/nios2-elf/4.1.2/../../../../nios2-elf/lib\libc.a(lib_a-fvwrite.o)
 .debug_loc     0x00006197      0x1d2 d:/modelsim_ase/quartus/quartus cyclone ii/nios2eds/bin/gnu/h-i686-mingw32/bin/../lib/gcc/nios2-elf/4.1.2/../../../../nios2-elf/lib\libc.a(lib_a-fwalk.o)
 .debug_loc     0x00006369       0xe1 d:/modelsim_ase/quartus/quartus cyclone ii/nios2eds/bin/gnu/h-i686-mingw32/bin/../lib/gcc/nios2-elf/4.1.2/../../../../nios2-elf/lib\libc.a(lib_a-locale.o)
 .debug_loc     0x0000644a      0x11c d:/modelsim_ase/quartus/quartus cyclone ii/nios2eds/bin/gnu/h-i686-mingw32/bin/../lib/gcc/nios2-elf/4.1.2/../../../../nios2-elf/lib\libc.a(lib_a-makebuf.o)
 .debug_loc     0x00006566      0xaeb d:/modelsim_ase/quartus/quartus cyclone ii/nios2eds/bin/gnu/h-i686-mingw32/bin/../lib/gcc/nios2-elf/4.1.2/../../../../nios2-elf/lib\libc.a(lib_a-mallocr.o)
 .debug_loc     0x00007051      0x106 d:/modelsim_ase/quartus/quartus cyclone ii/nios2eds/bin/gnu/h-i686-mingw32/bin/../lib/gcc/nios2-elf/4.1.2/../../../../nios2-elf/lib\libc.a(lib_a-memchr.o)
 .debug_loc     0x00007157      0x117 d:/modelsim_ase/quartus/quartus cyclone ii/nios2eds/bin/gnu/h-i686-mingw32/bin/../lib/gcc/nios2-elf/4.1.2/../../../../nios2-elf/lib\libc.a(lib_a-memmove.o)
 .debug_loc     0x0000726e     0x14d6 d:/modelsim_ase/quartus/quartus cyclone ii/nios2eds/bin/gnu/h-i686-mingw32/bin/../lib/gcc/nios2-elf/4.1.2/../../../../nios2-elf/lib\libc.a(lib_a-mprec.o)
 .debug_loc     0x00008744      0x8c0 d:/modelsim_ase/quartus/quartus cyclone ii/nios2eds/bin/gnu/h-i686-mingw32/bin/../lib/gcc/nios2-elf/4.1.2/../../../../nios2-elf/lib\libc.a(lib_a-reallocr.o)
 .debug_loc     0x00009004       0x36 d:/modelsim_ase/quartus/quartus cyclone ii/nios2eds/bin/gnu/h-i686-mingw32/bin/../lib/gcc/nios2-elf/4.1.2/../../../../nios2-elf/lib\libc.a(lib_a-s_isinfd.o)
 .debug_loc     0x0000903a       0x18 d:/modelsim_ase/quartus/quartus cyclone ii/nios2eds/bin/gnu/h-i686-mingw32/bin/../lib/gcc/nios2-elf/4.1.2/../../../../nios2-elf/lib\libc.a(lib_a-s_isnand.o)
 .debug_loc     0x00009052       0x5b d:/modelsim_ase/quartus/quartus cyclone ii/nios2eds/bin/gnu/h-i686-mingw32/bin/../lib/gcc/nios2-elf/4.1.2/../../../../nios2-elf/lib\libc.a(lib_a-sbrkr.o)
 .debug_loc     0x000090ad      0x21f d:/modelsim_ase/quartus/quartus cyclone ii/nios2eds/bin/gnu/h-i686-mingw32/bin/../lib/gcc/nios2-elf/4.1.2/../../../../nios2-elf/lib\libc.a(lib_a-stdio.o)
 .debug_loc     0x000092cc       0x65 d:/modelsim_ase/quartus/quartus cyclone ii/nios2eds/bin/gnu/h-i686-mingw32/bin/../lib/gcc/nios2-elf/4.1.2/../../../../nios2-elf/lib\libc.a(lib_a-strcmp.o)
 .debug_loc     0x00009331       0x3c d:/modelsim_ase/quartus/quartus cyclone ii/nios2eds/bin/gnu/h-i686-mingw32/bin/../lib/gcc/nios2-elf/4.1.2/../../../../nios2-elf/lib\libc.a(lib_a-strlen.o)
 .debug_loc     0x0000936d       0x97 d:/modelsim_ase/quartus/quartus cyclone ii/nios2eds/bin/gnu/h-i686-mingw32/bin/../lib/gcc/nios2-elf/4.1.2/../../../../nios2-elf/lib\libc.a(lib_a-writer.o)
 .debug_loc     0x00009404       0xe9 d:/modelsim_ase/quartus/quartus cyclone ii/nios2eds/bin/gnu/h-i686-mingw32/bin/../lib/gcc/nios2-elf/4.1.2/../../../../nios2-elf/lib\libc.a(lib_a-callocr.o)
 .debug_loc     0x000094ed       0x5b d:/modelsim_ase/quartus/quartus cyclone ii/nios2eds/bin/gnu/h-i686-mingw32/bin/../lib/gcc/nios2-elf/4.1.2/../../../../nios2-elf/lib\libc.a(lib_a-closer.o)
 .debug_loc     0x00009548       0xe4 d:/modelsim_ase/quartus/quartus cyclone ii/nios2eds/bin/gnu/h-i686-mingw32/bin/../lib/gcc/nios2-elf/4.1.2/../../../../nios2-elf/lib\libc.a(lib_a-fclose.o)
 .debug_loc     0x0000962c       0x79 d:/modelsim_ase/quartus/quartus cyclone ii/nios2eds/bin/gnu/h-i686-mingw32/bin/../lib/gcc/nios2-elf/4.1.2/../../../../nios2-elf/lib\libc.a(lib_a-fstatr.o)
 .debug_loc     0x000096a5       0x5b d:/modelsim_ase/quartus/quartus cyclone ii/nios2eds/bin/gnu/h-i686-mingw32/bin/../lib/gcc/nios2-elf/4.1.2/../../../../nios2-elf/lib\libc.a(lib_a-isattyr.o)
 .debug_loc     0x00009700       0x97 d:/modelsim_ase/quartus/quartus cyclone ii/nios2eds/bin/gnu/h-i686-mingw32/bin/../lib/gcc/nios2-elf/4.1.2/../../../../nios2-elf/lib\libc.a(lib_a-lseekr.o)
 .debug_loc     0x00009797       0x97 d:/modelsim_ase/quartus/quartus cyclone ii/nios2eds/bin/gnu/h-i686-mingw32/bin/../lib/gcc/nios2-elf/4.1.2/../../../../nios2-elf/lib\libc.a(lib_a-readr.o)
 .debug_loc     0x0000982e      0xc26 d:/modelsim_ase/quartus/quartus cyclone ii/nios2eds/bin/gnu/h-i686-mingw32/bin/../lib/gcc/nios2-elf/4.1.2\libgcc.a(_umoddi3.o)
 .debug_loc     0x0000a454      0x47a d:/modelsim_ase/quartus/quartus cyclone ii/nios2eds/bin/gnu/h-i686-mingw32/bin/../lib/gcc/nios2-elf/4.1.2\libgcc.a(_addsub_df.o)
 .debug_loc     0x0000a8ce      0x3b4 d:/modelsim_ase/quartus/quartus cyclone ii/nios2eds/bin/gnu/h-i686-mingw32/bin/../lib/gcc/nios2-elf/4.1.2\libgcc.a(_mul_df.o)
 .debug_loc     0x0000ac82      0x1df d:/modelsim_ase/quartus/quartus cyclone ii/nios2eds/bin/gnu/h-i686-mingw32/bin/../lib/gcc/nios2-elf/4.1.2\libgcc.a(_div_df.o)
 .debug_loc     0x0000ae61       0x70 d:/modelsim_ase/quartus/quartus cyclone ii/nios2eds/bin/gnu/h-i686-mingw32/bin/../lib/gcc/nios2-elf/4.1.2\libgcc.a(_eq_df.o)
 .debug_loc     0x0000aed1       0x70 d:/modelsim_ase/quartus/quartus cyclone ii/nios2eds/bin/gnu/h-i686-mingw32/bin/../lib/gcc/nios2-elf/4.1.2\libgcc.a(_ne_df.o)
 .debug_loc     0x0000af41       0x70 d:/modelsim_ase/quartus/quartus cyclone ii/nios2eds/bin/gnu/h-i686-mingw32/bin/../lib/gcc/nios2-elf/4.1.2\libgcc.a(_gt_df.o)
 .debug_loc     0x0000afb1       0x70 d:/modelsim_ase/quartus/quartus cyclone ii/nios2eds/bin/gnu/h-i686-mingw32/bin/../lib/gcc/nios2-elf/4.1.2\libgcc.a(_ge_df.o)
 .debug_loc     0x0000b021       0x70 d:/modelsim_ase/quartus/quartus cyclone ii/nios2eds/bin/gnu/h-i686-mingw32/bin/../lib/gcc/nios2-elf/4.1.2\libgcc.a(_lt_df.o)
 .debug_loc     0x0000b091       0x9a d:/modelsim_ase/quartus/quartus cyclone ii/nios2eds/bin/gnu/h-i686-mingw32/bin/../lib/gcc/nios2-elf/4.1.2\libgcc.a(_si_to_df.o)
 .debug_loc     0x0000b12b       0x8b d:/modelsim_ase/quartus/quartus cyclone ii/nios2eds/bin/gnu/h-i686-mingw32/bin/../lib/gcc/nios2-elf/4.1.2\libgcc.a(_df_to_si.o)
 .debug_loc     0x0000b1b6       0x5b d:/modelsim_ase/quartus/quartus cyclone ii/nios2eds/bin/gnu/h-i686-mingw32/bin/../lib/gcc/nios2-elf/4.1.2\libgcc.a(_usi_to_df.o)
 .debug_loc     0x0000b211       0xc4 d:/modelsim_ase/quartus/quartus cyclone ii/nios2eds/bin/gnu/h-i686-mingw32/bin/../lib/gcc/nios2-elf/4.1.2\libgcc.a(_muldi3.o)
 .debug_loc     0x0000b2d5       0xe5 d:/modelsim_ase/quartus/quartus cyclone ii/nios2eds/bin/gnu/h-i686-mingw32/bin/../lib/gcc/nios2-elf/4.1.2\libgcc.a(_unpack_df.o)
 .debug_loc     0x0000b3ba       0x56 ../FPGA_Lab4_Software_bsp/\libhal_bsp.a(alt_close.o)
 .debug_loc     0x0000b410       0x2b ../FPGA_Lab4_Software_bsp/\libhal_bsp.a(alt_dev.o)
 .debug_loc     0x0000b43b       0x56 ../FPGA_Lab4_Software_bsp/\libhal_bsp.a(alt_fstat.o)
 .debug_loc     0x0000b491       0x2c ../FPGA_Lab4_Software_bsp/\libhal_bsp.a(alt_irq_register.o)
 .debug_loc     0x0000b4bd       0x57 ../FPGA_Lab4_Software_bsp/\libhal_bsp.a(alt_isatty.o)
 .debug_loc     0x0000b514       0x56 ../FPGA_Lab4_Software_bsp/\libhal_bsp.a(alt_load.o)
 .debug_loc     0x0000b56a       0x56 ../FPGA_Lab4_Software_bsp/\libhal_bsp.a(alt_lseek.o)
 .debug_loc     0x0000b5c0       0x2b ../FPGA_Lab4_Software_bsp/\libhal_bsp.a(alt_main.o)
 .debug_loc     0x0000b5eb       0x56 ../FPGA_Lab4_Software_bsp/\libhal_bsp.a(alt_malloc_lock.o)
 .debug_loc     0x0000b641       0x2b ../FPGA_Lab4_Software_bsp/\libhal_bsp.a(alt_printf.o)
 .debug_loc     0x0000b66c       0x2b ../FPGA_Lab4_Software_bsp/\libhal_bsp.a(alt_putchar.o)
 .debug_loc     0x0000b697       0x56 ../FPGA_Lab4_Software_bsp/\libhal_bsp.a(alt_read.o)
 .debug_loc     0x0000b6ed       0x2b ../FPGA_Lab4_Software_bsp/\libhal_bsp.a(alt_release_fd.o)
 .debug_loc     0x0000b718       0x2b ../FPGA_Lab4_Software_bsp/\libhal_bsp.a(alt_sbrk.o)
 .debug_loc     0x0000b743       0x56 ../FPGA_Lab4_Software_bsp/\libhal_bsp.a(alt_write.o)
 .debug_loc     0x0000b799       0x81 ../FPGA_Lab4_Software_bsp/\libhal_bsp.a(alt_sys_init.o)
 .debug_loc     0x0000b81a       0xac ../FPGA_Lab4_Software_bsp/\libhal_bsp.a(altera_avalon_jtag_uart_fd.o)
 .debug_loc     0x0000b8c6       0xac ../FPGA_Lab4_Software_bsp/\libhal_bsp.a(altera_avalon_jtag_uart_init.o)
 .debug_loc     0x0000b972       0x2b ../FPGA_Lab4_Software_bsp/\libhal_bsp.a(altera_avalon_jtag_uart_ioctl.o)
 .debug_loc     0x0000b99d       0x2b ../FPGA_Lab4_Software_bsp/\libhal_bsp.a(altera_avalon_jtag_uart_read.o)
 .debug_loc     0x0000b9c8       0x2b ../FPGA_Lab4_Software_bsp/\libhal_bsp.a(altera_avalon_jtag_uart_write.o)
 .debug_loc     0x0000b9f3       0x81 ../FPGA_Lab4_Software_bsp/\libhal_bsp.a(altera_avalon_timer_ts.o)
 .debug_loc     0x0000ba74      0x306 ../FPGA_Lab4_Software_bsp/\libhal_bsp.a(altera_up_avalon_audio.o)
 .debug_loc     0x0000bd7a      0x22f ../FPGA_Lab4_Software_bsp/\libhal_bsp.a(altera_up_avalon_character_lcd.o)
 .debug_loc     0x0000bfa9       0x2b ../FPGA_Lab4_Software_bsp/\libhal_bsp.a(altera_up_avalon_parallel_port.o)
 .debug_loc     0x0000bfd4      0x306 ../FPGA_Lab4_Software_bsp/\libhal_bsp.a(altera_up_avalon_ps2.o)
 .debug_loc     0x0000c2da       0xd7 ../FPGA_Lab4_Software_bsp/\libhal_bsp.a(altera_up_avalon_video_character_buffer_with_dma.o)
 .debug_loc     0x0000c3b1      0x206 ../FPGA_Lab4_Software_bsp/\libhal_bsp.a(altera_up_avalon_video_pixel_buffer_dma.o)
 .debug_loc     0x0000c5b7       0x2b ../FPGA_Lab4_Software_bsp/\libhal_bsp.a(alt_alarm_start.o)
 .debug_loc     0x0000c5e2       0x2b ../FPGA_Lab4_Software_bsp/\libhal_bsp.a(alt_dcache_flush_all.o)
 .debug_loc     0x0000c60d       0x56 ../FPGA_Lab4_Software_bsp/\libhal_bsp.a(alt_dev_llist_insert.o)
 .debug_loc     0x0000c663       0x2b ../FPGA_Lab4_Software_bsp/\libhal_bsp.a(alt_do_ctors.o)
 .debug_loc     0x0000c68e       0x2b ../FPGA_Lab4_Software_bsp/\libhal_bsp.a(alt_do_dtors.o)
 .debug_loc     0x0000c6b9       0x2b ../FPGA_Lab4_Software_bsp/\libhal_bsp.a(alt_find_dev.o)
 .debug_loc     0x0000c6e4       0x2b ../FPGA_Lab4_Software_bsp/\libhal_bsp.a(alt_icache_flush_all.o)
 .debug_loc     0x0000c70f       0xac ../FPGA_Lab4_Software_bsp/\libhal_bsp.a(alt_iic.o)
 .debug_loc     0x0000c7bb       0x2b ../FPGA_Lab4_Software_bsp/\libhal_bsp.a(alt_iic_isr_register.o)
 .debug_loc     0x0000c7e6       0x56 ../FPGA_Lab4_Software_bsp/\libhal_bsp.a(alt_io_redirect.o)
 .debug_loc     0x0000c83c       0x2b ../FPGA_Lab4_Software_bsp/\libhal_bsp.a(alt_irq_handler.o)
 .debug_loc     0x0000c867       0x81 ../FPGA_Lab4_Software_bsp/\libhal_bsp.a(alt_open.o)
 .debug_loc     0x0000c8e8       0x56 ../FPGA_Lab4_Software_bsp/\libhal_bsp.a(alt_tick.o)
 .debug_loc     0x0000c93e       0x2b ../FPGA_Lab4_Software_bsp/\libhal_bsp.a(altera_nios2_qsys_irq.o)
 .debug_loc     0x0000c969       0x2b ../FPGA_Lab4_Software_bsp/\libhal_bsp.a(alt_find_file.o)
 .debug_loc     0x0000c994       0x2b ../FPGA_Lab4_Software_bsp/\libhal_bsp.a(alt_get_fd.o)
 .debug_loc     0x0000c9bf       0x2b ../FPGA_Lab4_Software_bsp/\libhal_bsp.a(alt_icache_flush.o)
 .debug_loc     0x0000c9ea       0x1e d:/modelsim_ase/quartus/quartus cyclone ii/nios2eds/bin/gnu/h-i686-mingw32/bin/../lib/gcc/nios2-elf/4.1.2/../../../../nios2-elf/lib\libc.a(lib_a-atexit.o)
 .debug_loc     0x0000ca08       0x3d d:/modelsim_ase/quartus/quartus cyclone ii/nios2eds/bin/gnu/h-i686-mingw32/bin/../lib/gcc/nios2-elf/4.1.2/../../../../nios2-elf/lib\libc.a(lib_a-exit.o)
 .debug_loc     0x0000ca45      0x114 d:/modelsim_ase/quartus/quartus cyclone ii/nios2eds/bin/gnu/h-i686-mingw32/bin/../lib/gcc/nios2-elf/4.1.2/../../../../nios2-elf/lib\libc.a(lib_a-memcmp.o)
 .debug_loc     0x0000cb59      0x20d d:/modelsim_ase/quartus/quartus cyclone ii/nios2eds/bin/gnu/h-i686-mingw32/bin/../lib/gcc/nios2-elf/4.1.2/../../../../nios2-elf/lib\libc.a(lib_a-putc.o)
 .debug_loc     0x0000cd66      0x157 d:/modelsim_ase/quartus/quartus cyclone ii/nios2eds/bin/gnu/h-i686-mingw32/bin/../lib/gcc/nios2-elf/4.1.2/../../../../nios2-elf/lib\libc.a(lib_a-wbuf.o)
 .debug_loc     0x0000cebd      0x120 d:/modelsim_ase/quartus/quartus cyclone ii/nios2eds/bin/gnu/h-i686-mingw32/bin/../lib/gcc/nios2-elf/4.1.2/../../../../nios2-elf/lib\libc.a(lib_a-__atexit.o)
 .debug_loc     0x0000cfdd      0x1cb d:/modelsim_ase/quartus/quartus cyclone ii/nios2eds/bin/gnu/h-i686-mingw32/bin/../lib/gcc/nios2-elf/4.1.2/../../../../nios2-elf/lib\libc.a(lib_a-__call_atexit.o)
 .debug_loc     0x0000d1a8       0x56 ../FPGA_Lab4_Software_bsp/\libhal_bsp.a(alt_exit.o)

.debug_macinfo
 *(.debug_macinfo)

.debug_weaknames
 *(.debug_weaknames)

.debug_funcnames
 *(.debug_funcnames)

.debug_typenames
 *(.debug_typenames)

.debug_varnames
 *(.debug_varnames)

.debug_alt_sim_info
                0x00000000       0x20
 *(.debug_alt_sim_info)
 .debug_alt_sim_info
                0x00000000       0x20 ../FPGA_Lab4_Software_bsp//obj/HAL/src/crt0.o
                0x00800000                __alt_data_end = 0x800000
                0x00800000                PROVIDE (__alt_stack_pointer, __alt_data_end)
                0x0019cf1c                PROVIDE (__alt_stack_limit, __alt_stack_base)
                0x0019cf1c                PROVIDE (__alt_heap_start, end)
                0x00800000                PROVIDE (__alt_heap_limit, 0x800000)
OUTPUT(FPGA_Lab4_Software.elf elf32-littlenios2)

.debug_ranges   0x00000000      0x9e8
 .debug_ranges  0x00000000       0x20 ../FPGA_Lab4_Software_bsp//obj/HAL/src/crt0.o
 .debug_ranges  0x00000020      0x188 d:/modelsim_ase/quartus/quartus cyclone ii/nios2eds/bin/gnu/h-i686-mingw32/bin/../lib/gcc/nios2-elf/4.1.2\libgcc.a(_udivdi3.o)
 .debug_ranges  0x000001a8       0x18 d:/modelsim_ase/quartus/quartus cyclone ii/nios2eds/bin/gnu/h-i686-mingw32/bin/../lib/gcc/nios2-elf/4.1.2\libgcc.a(_si_to_sf.o)
 .debug_ranges  0x000001c0       0x40 d:/modelsim_ase/quartus/quartus cyclone ii/nios2eds/bin/gnu/h-i686-mingw32/bin/../lib/gcc/nios2-elf/4.1.2\libgcc.a(_usi_to_sf.o)
 .debug_ranges  0x00000200       0x28 d:/modelsim_ase/quartus/quartus cyclone ii/nios2eds/bin/gnu/h-i686-mingw32/bin/../lib/gcc/nios2-elf/4.1.2\libgcc.a(_clzsi2.o)
 .debug_ranges  0x00000228       0x28 d:/modelsim_ase/quartus/quartus cyclone ii/nios2eds/bin/gnu/h-i686-mingw32/bin/../lib/gcc/nios2-elf/4.1.2\libgcc.a(_pack_df.o)
 .debug_ranges  0x00000250      0x168 d:/modelsim_ase/quartus/quartus cyclone ii/nios2eds/bin/gnu/h-i686-mingw32/bin/../lib/gcc/nios2-elf/4.1.2/../../../../nios2-elf/lib\libc.a(lib_a-vfprintf.o)
 .debug_ranges  0x000003b8       0x20 d:/modelsim_ase/quartus/quartus cyclone ii/nios2eds/bin/gnu/h-i686-mingw32/bin/../lib/gcc/nios2-elf/4.1.2/../../../../nios2-elf/lib\libc.a(lib_a-fflush.o)
 .debug_ranges  0x000003d8       0x28 d:/modelsim_ase/quartus/quartus cyclone ii/nios2eds/bin/gnu/h-i686-mingw32/bin/../lib/gcc/nios2-elf/4.1.2/../../../../nios2-elf/lib\libc.a(lib_a-fvwrite.o)
 .debug_ranges  0x00000400       0xa0 d:/modelsim_ase/quartus/quartus cyclone ii/nios2eds/bin/gnu/h-i686-mingw32/bin/../lib/gcc/nios2-elf/4.1.2/../../../../nios2-elf/lib\libc.a(lib_a-fwalk.o)
 .debug_ranges  0x000004a0       0x70 d:/modelsim_ase/quartus/quartus cyclone ii/nios2eds/bin/gnu/h-i686-mingw32/bin/../lib/gcc/nios2-elf/4.1.2/../../../../nios2-elf/lib\libc.a(lib_a-mallocr.o)
 .debug_ranges  0x00000510      0x110 d:/modelsim_ase/quartus/quartus cyclone ii/nios2eds/bin/gnu/h-i686-mingw32/bin/../lib/gcc/nios2-elf/4.1.2/../../../../nios2-elf/lib\libc.a(lib_a-reallocr.o)
 .debug_ranges  0x00000620       0x38 d:/modelsim_ase/quartus/quartus cyclone ii/nios2eds/bin/gnu/h-i686-mingw32/bin/../lib/gcc/nios2-elf/4.1.2/../../../../nios2-elf/lib\libc.a(lib_a-callocr.o)
 .debug_ranges  0x00000658      0x198 d:/modelsim_ase/quartus/quartus cyclone ii/nios2eds/bin/gnu/h-i686-mingw32/bin/../lib/gcc/nios2-elf/4.1.2\libgcc.a(_umoddi3.o)
 .debug_ranges  0x000007f0       0x30 d:/modelsim_ase/quartus/quartus cyclone ii/nios2eds/bin/gnu/h-i686-mingw32/bin/../lib/gcc/nios2-elf/4.1.2\libgcc.a(_addsub_df.o)
 .debug_ranges  0x00000820       0x88 d:/modelsim_ase/quartus/quartus cyclone ii/nios2eds/bin/gnu/h-i686-mingw32/bin/../lib/gcc/nios2-elf/4.1.2\libgcc.a(_mul_df.o)
 .debug_ranges  0x000008a8       0x50 d:/modelsim_ase/quartus/quartus cyclone ii/nios2eds/bin/gnu/h-i686-mingw32/bin/../lib/gcc/nios2-elf/4.1.2\libgcc.a(_div_df.o)
 .debug_ranges  0x000008f8       0x18 d:/modelsim_ase/quartus/quartus cyclone ii/nios2eds/bin/gnu/h-i686-mingw32/bin/../lib/gcc/nios2-elf/4.1.2\libgcc.a(_usi_to_df.o)
 .debug_ranges  0x00000910       0x68 d:/modelsim_ase/quartus/quartus cyclone ii/nios2eds/bin/gnu/h-i686-mingw32/bin/../lib/gcc/nios2-elf/4.1.2\libgcc.a(_muldi3.o)
 .debug_ranges  0x00000978       0x28 ../FPGA_Lab4_Software_bsp/\libhal_bsp.a(alt_irq_entry.o)
 .debug_ranges  0x000009a0       0x30 ../FPGA_Lab4_Software_bsp/\libhal_bsp.a(alt_exception_entry.o)
 .debug_ranges  0x000009d0       0x18 d:/modelsim_ase/quartus/quartus cyclone ii/nios2eds/bin/gnu/h-i686-mingw32/bin/../lib/gcc/nios2-elf/4.1.2/../../../../nios2-elf/lib\libc.a(lib_a-__call_atexit.o)
