Archive member included because of file (symbol)

d:/fpga/nios2eds/bin/gnu/h-i686-mingw32/bin/../lib/gcc/nios2-elf/4.1.2\libgcc.a(_si_to_sf.o)
                              obj/default/media_interrupt_HAL.o (__floatsisf)
d:/fpga/nios2eds/bin/gnu/h-i686-mingw32/bin/../lib/gcc/nios2-elf/4.1.2\libgcc.a(_sf_to_si.o)
                              obj/default/media_interrupt_HAL.o (__fixsfsi)
d:/fpga/nios2eds/bin/gnu/h-i686-mingw32/bin/../lib/gcc/nios2-elf/4.1.2\libgcc.a(_sf_to_df.o)
                              obj/default/media_interrupt_HAL.o (__extendsfdf2)
d:/fpga/nios2eds/bin/gnu/h-i686-mingw32/bin/../lib/gcc/nios2-elf/4.1.2\libgcc.a(_usi_to_sf.o)
                              obj/default/media_interrupt_HAL.o (__floatunsisf)
d:/fpga/nios2eds/bin/gnu/h-i686-mingw32/bin/../lib/gcc/nios2-elf/4.1.2\libgcc.a(_make_df.o)
                              d:/fpga/nios2eds/bin/gnu/h-i686-mingw32/bin/../lib/gcc/nios2-elf/4.1.2\libgcc.a(_sf_to_df.o) (__make_dp)
d:/fpga/nios2eds/bin/gnu/h-i686-mingw32/bin/../lib/gcc/nios2-elf/4.1.2\libgcc.a(_clzsi2.o)
                              d:/fpga/nios2eds/bin/gnu/h-i686-mingw32/bin/../lib/gcc/nios2-elf/4.1.2\libgcc.a(_si_to_sf.o) (__clzsi2)
d:/fpga/nios2eds/bin/gnu/h-i686-mingw32/bin/../lib/gcc/nios2-elf/4.1.2\libgcc.a(_pack_sf.o)
                              d:/fpga/nios2eds/bin/gnu/h-i686-mingw32/bin/../lib/gcc/nios2-elf/4.1.2\libgcc.a(_si_to_sf.o) (__pack_f)
d:/fpga/nios2eds/bin/gnu/h-i686-mingw32/bin/../lib/gcc/nios2-elf/4.1.2\libgcc.a(_unpack_sf.o)
                              d:/fpga/nios2eds/bin/gnu/h-i686-mingw32/bin/../lib/gcc/nios2-elf/4.1.2\libgcc.a(_sf_to_si.o) (__unpack_f)
d:/fpga/nios2eds/bin/gnu/h-i686-mingw32/bin/../lib/gcc/nios2-elf/4.1.2\libgcc.a(_pack_df.o)
                              d:/fpga/nios2eds/bin/gnu/h-i686-mingw32/bin/../lib/gcc/nios2-elf/4.1.2\libgcc.a(_make_df.o) (__pack_d)
d:/fpga/nios2eds/bin/gnu/h-i686-mingw32/bin/../lib/gcc/nios2-elf/4.1.2\libgcc.a(_clz.o)
                              d:/fpga/nios2eds/bin/gnu/h-i686-mingw32/bin/../lib/gcc/nios2-elf/4.1.2\libgcc.a(_clzsi2.o) (__clz_tab)
d:/fpga/nios2eds/bin/gnu/h-i686-mingw32/bin/../lib/gcc/nios2-elf/4.1.2/../../../../nios2-elf/lib\libc.a(lib_a-memcpy.o)
                              obj/default/media_interrupt_HAL.o (memcpy)
d:/fpga/nios2eds/bin/gnu/h-i686-mingw32/bin/../lib/gcc/nios2-elf/4.1.2/../../../../nios2-elf/lib\libc.a(lib_a-memset.o)
                              obj/default/media_interrupt_HAL.o (memset)
d:/fpga/nios2eds/bin/gnu/h-i686-mingw32/bin/../lib/gcc/nios2-elf/4.1.2/../../../../nios2-elf/lib\libc.a(lib_a-printf.o)
                              obj/default/audio_ISR.o (printf)
d:/fpga/nios2eds/bin/gnu/h-i686-mingw32/bin/../lib/gcc/nios2-elf/4.1.2/../../../../nios2-elf/lib\libc.a(lib_a-vfprintf.o)
                              d:/fpga/nios2eds/bin/gnu/h-i686-mingw32/bin/../lib/gcc/nios2-elf/4.1.2/../../../../nios2-elf/lib\libc.a(lib_a-printf.o) (___vfprintf_internal_r)
d:/fpga/nios2eds/bin/gnu/h-i686-mingw32/bin/../lib/gcc/nios2-elf/4.1.2/../../../../nios2-elf/lib\libc.a(lib_a-wsetup.o)
                              d:/fpga/nios2eds/bin/gnu/h-i686-mingw32/bin/../lib/gcc/nios2-elf/4.1.2/../../../../nios2-elf/lib\libc.a(lib_a-vfprintf.o) (__swsetup_r)
d:/fpga/nios2eds/bin/gnu/h-i686-mingw32/bin/../lib/gcc/nios2-elf/4.1.2/../../../../nios2-elf/lib\libc.a(lib_a-dtoa.o)
                              d:/fpga/nios2eds/bin/gnu/h-i686-mingw32/bin/../lib/gcc/nios2-elf/4.1.2/../../../../nios2-elf/lib\libc.a(lib_a-vfprintf.o) (_dtoa_r)
d:/fpga/nios2eds/bin/gnu/h-i686-mingw32/bin/../lib/gcc/nios2-elf/4.1.2/../../../../nios2-elf/lib\libc.a(lib_a-fflush.o)
                              d:/fpga/nios2eds/bin/gnu/h-i686-mingw32/bin/../lib/gcc/nios2-elf/4.1.2/../../../../nios2-elf/lib\libc.a(lib_a-vfprintf.o) (_fflush_r)
d:/fpga/nios2eds/bin/gnu/h-i686-mingw32/bin/../lib/gcc/nios2-elf/4.1.2/../../../../nios2-elf/lib\libc.a(lib_a-findfp.o)
                              d:/fpga/nios2eds/bin/gnu/h-i686-mingw32/bin/../lib/gcc/nios2-elf/4.1.2/../../../../nios2-elf/lib\libc.a(lib_a-vfprintf.o) (__sinit)
d:/fpga/nios2eds/bin/gnu/h-i686-mingw32/bin/../lib/gcc/nios2-elf/4.1.2/../../../../nios2-elf/lib\libc.a(lib_a-freer.o)
                              d:/fpga/nios2eds/bin/gnu/h-i686-mingw32/bin/../lib/gcc/nios2-elf/4.1.2/../../../../nios2-elf/lib\libc.a(lib_a-wsetup.o) (_free_r)
d:/fpga/nios2eds/bin/gnu/h-i686-mingw32/bin/../lib/gcc/nios2-elf/4.1.2/../../../../nios2-elf/lib\libc.a(lib_a-fvwrite.o)
                              d:/fpga/nios2eds/bin/gnu/h-i686-mingw32/bin/../lib/gcc/nios2-elf/4.1.2/../../../../nios2-elf/lib\libc.a(lib_a-vfprintf.o) (__sfvwrite_r)
d:/fpga/nios2eds/bin/gnu/h-i686-mingw32/bin/../lib/gcc/nios2-elf/4.1.2/../../../../nios2-elf/lib\libc.a(lib_a-fwalk.o)
                              d:/fpga/nios2eds/bin/gnu/h-i686-mingw32/bin/../lib/gcc/nios2-elf/4.1.2/../../../../nios2-elf/lib\libc.a(lib_a-fflush.o) (_fwalk_reent)
d:/fpga/nios2eds/bin/gnu/h-i686-mingw32/bin/../lib/gcc/nios2-elf/4.1.2/../../../../nios2-elf/lib\libc.a(lib_a-impure.o)
                              d:/fpga/nios2eds/bin/gnu/h-i686-mingw32/bin/../lib/gcc/nios2-elf/4.1.2/../../../../nios2-elf/lib\libc.a(lib_a-printf.o) (_impure_ptr)
d:/fpga/nios2eds/bin/gnu/h-i686-mingw32/bin/../lib/gcc/nios2-elf/4.1.2/../../../../nios2-elf/lib\libc.a(lib_a-locale.o)
                              d:/fpga/nios2eds/bin/gnu/h-i686-mingw32/bin/../lib/gcc/nios2-elf/4.1.2/../../../../nios2-elf/lib\libc.a(lib_a-vfprintf.o) (_localeconv_r)
d:/fpga/nios2eds/bin/gnu/h-i686-mingw32/bin/../lib/gcc/nios2-elf/4.1.2/../../../../nios2-elf/lib\libc.a(lib_a-makebuf.o)
                              d:/fpga/nios2eds/bin/gnu/h-i686-mingw32/bin/../lib/gcc/nios2-elf/4.1.2/../../../../nios2-elf/lib\libc.a(lib_a-wsetup.o) (__smakebuf_r)
d:/fpga/nios2eds/bin/gnu/h-i686-mingw32/bin/../lib/gcc/nios2-elf/4.1.2/../../../../nios2-elf/lib\libc.a(lib_a-mallocr.o)
                              d:/fpga/nios2eds/bin/gnu/h-i686-mingw32/bin/../lib/gcc/nios2-elf/4.1.2/../../../../nios2-elf/lib\libc.a(lib_a-findfp.o) (_malloc_r)
d:/fpga/nios2eds/bin/gnu/h-i686-mingw32/bin/../lib/gcc/nios2-elf/4.1.2/../../../../nios2-elf/lib\libc.a(lib_a-memchr.o)
                              d:/fpga/nios2eds/bin/gnu/h-i686-mingw32/bin/../lib/gcc/nios2-elf/4.1.2/../../../../nios2-elf/lib\libc.a(lib_a-vfprintf.o) (memchr)
d:/fpga/nios2eds/bin/gnu/h-i686-mingw32/bin/../lib/gcc/nios2-elf/4.1.2/../../../../nios2-elf/lib\libc.a(lib_a-memmove.o)
                              d:/fpga/nios2eds/bin/gnu/h-i686-mingw32/bin/../lib/gcc/nios2-elf/4.1.2/../../../../nios2-elf/lib\libc.a(lib_a-fvwrite.o) (memmove)
d:/fpga/nios2eds/bin/gnu/h-i686-mingw32/bin/../lib/gcc/nios2-elf/4.1.2/../../../../nios2-elf/lib\libc.a(lib_a-mprec.o)
                              d:/fpga/nios2eds/bin/gnu/h-i686-mingw32/bin/../lib/gcc/nios2-elf/4.1.2/../../../../nios2-elf/lib\libc.a(lib_a-dtoa.o) (_Bfree)
d:/fpga/nios2eds/bin/gnu/h-i686-mingw32/bin/../lib/gcc/nios2-elf/4.1.2/../../../../nios2-elf/lib\libc.a(lib_a-reallocr.o)
                              d:/fpga/nios2eds/bin/gnu/h-i686-mingw32/bin/../lib/gcc/nios2-elf/4.1.2/../../../../nios2-elf/lib\libc.a(lib_a-fvwrite.o) (_realloc_r)
d:/fpga/nios2eds/bin/gnu/h-i686-mingw32/bin/../lib/gcc/nios2-elf/4.1.2/../../../../nios2-elf/lib\libc.a(lib_a-s_isinfd.o)
                              d:/fpga/nios2eds/bin/gnu/h-i686-mingw32/bin/../lib/gcc/nios2-elf/4.1.2/../../../../nios2-elf/lib\libc.a(lib_a-vfprintf.o) (__isinfd)
d:/fpga/nios2eds/bin/gnu/h-i686-mingw32/bin/../lib/gcc/nios2-elf/4.1.2/../../../../nios2-elf/lib\libc.a(lib_a-s_isnand.o)
                              d:/fpga/nios2eds/bin/gnu/h-i686-mingw32/bin/../lib/gcc/nios2-elf/4.1.2/../../../../nios2-elf/lib\libc.a(lib_a-vfprintf.o) (__isnand)
d:/fpga/nios2eds/bin/gnu/h-i686-mingw32/bin/../lib/gcc/nios2-elf/4.1.2/../../../../nios2-elf/lib\libc.a(lib_a-sbrkr.o)
                              d:/fpga/nios2eds/bin/gnu/h-i686-mingw32/bin/../lib/gcc/nios2-elf/4.1.2/../../../../nios2-elf/lib\libc.a(lib_a-freer.o) (_sbrk_r)
d:/fpga/nios2eds/bin/gnu/h-i686-mingw32/bin/../lib/gcc/nios2-elf/4.1.2/../../../../nios2-elf/lib\libc.a(lib_a-stdio.o)
                              d:/fpga/nios2eds/bin/gnu/h-i686-mingw32/bin/../lib/gcc/nios2-elf/4.1.2/../../../../nios2-elf/lib\libc.a(lib_a-findfp.o) (__sclose)
d:/fpga/nios2eds/bin/gnu/h-i686-mingw32/bin/../lib/gcc/nios2-elf/4.1.2/../../../../nios2-elf/lib\libc.a(lib_a-strcmp.o)
                              d:/fpga/nios2eds/bin/gnu/h-i686-mingw32/bin/../lib/gcc/nios2-elf/4.1.2/../../../../nios2-elf/lib\libc.a(lib_a-locale.o) (strcmp)
d:/fpga/nios2eds/bin/gnu/h-i686-mingw32/bin/../lib/gcc/nios2-elf/4.1.2/../../../../nios2-elf/lib\libc.a(lib_a-strlen.o)
                              d:/fpga/nios2eds/bin/gnu/h-i686-mingw32/bin/../lib/gcc/nios2-elf/4.1.2/../../../../nios2-elf/lib\libc.a(lib_a-vfprintf.o) (strlen)
d:/fpga/nios2eds/bin/gnu/h-i686-mingw32/bin/../lib/gcc/nios2-elf/4.1.2/../../../../nios2-elf/lib\libc.a(lib_a-writer.o)
                              d:/fpga/nios2eds/bin/gnu/h-i686-mingw32/bin/../lib/gcc/nios2-elf/4.1.2/../../../../nios2-elf/lib\libc.a(lib_a-stdio.o) (_write_r)
d:/fpga/nios2eds/bin/gnu/h-i686-mingw32/bin/../lib/gcc/nios2-elf/4.1.2/../../../../nios2-elf/lib\libc.a(lib_a-callocr.o)
                              d:/fpga/nios2eds/bin/gnu/h-i686-mingw32/bin/../lib/gcc/nios2-elf/4.1.2/../../../../nios2-elf/lib\libc.a(lib_a-mprec.o) (_calloc_r)
d:/fpga/nios2eds/bin/gnu/h-i686-mingw32/bin/../lib/gcc/nios2-elf/4.1.2/../../../../nios2-elf/lib\libc.a(lib_a-closer.o)
                              d:/fpga/nios2eds/bin/gnu/h-i686-mingw32/bin/../lib/gcc/nios2-elf/4.1.2/../../../../nios2-elf/lib\libc.a(lib_a-stdio.o) (_close_r)
d:/fpga/nios2eds/bin/gnu/h-i686-mingw32/bin/../lib/gcc/nios2-elf/4.1.2/../../../../nios2-elf/lib\libc.a(lib_a-fclose.o)
                              d:/fpga/nios2eds/bin/gnu/h-i686-mingw32/bin/../lib/gcc/nios2-elf/4.1.2/../../../../nios2-elf/lib\libc.a(lib_a-findfp.o) (fclose)
d:/fpga/nios2eds/bin/gnu/h-i686-mingw32/bin/../lib/gcc/nios2-elf/4.1.2/../../../../nios2-elf/lib\libc.a(lib_a-fstatr.o)
                              d:/fpga/nios2eds/bin/gnu/h-i686-mingw32/bin/../lib/gcc/nios2-elf/4.1.2/../../../../nios2-elf/lib\libc.a(lib_a-makebuf.o) (_fstat_r)
d:/fpga/nios2eds/bin/gnu/h-i686-mingw32/bin/../lib/gcc/nios2-elf/4.1.2/../../../../nios2-elf/lib\libc.a(lib_a-int_errno.o)
                              d:/fpga/nios2eds/bin/gnu/h-i686-mingw32/bin/../lib/gcc/nios2-elf/4.1.2/../../../../nios2-elf/lib\libc.a(lib_a-sbrkr.o) (errno)
d:/fpga/nios2eds/bin/gnu/h-i686-mingw32/bin/../lib/gcc/nios2-elf/4.1.2/../../../../nios2-elf/lib\libc.a(lib_a-isattyr.o)
                              d:/fpga/nios2eds/bin/gnu/h-i686-mingw32/bin/../lib/gcc/nios2-elf/4.1.2/../../../../nios2-elf/lib\libc.a(lib_a-makebuf.o) (_isatty_r)
d:/fpga/nios2eds/bin/gnu/h-i686-mingw32/bin/../lib/gcc/nios2-elf/4.1.2/../../../../nios2-elf/lib\libc.a(lib_a-lseekr.o)
                              d:/fpga/nios2eds/bin/gnu/h-i686-mingw32/bin/../lib/gcc/nios2-elf/4.1.2/../../../../nios2-elf/lib\libc.a(lib_a-stdio.o) (_lseek_r)
d:/fpga/nios2eds/bin/gnu/h-i686-mingw32/bin/../lib/gcc/nios2-elf/4.1.2/../../../../nios2-elf/lib\libc.a(lib_a-readr.o)
                              d:/fpga/nios2eds/bin/gnu/h-i686-mingw32/bin/../lib/gcc/nios2-elf/4.1.2/../../../../nios2-elf/lib\libc.a(lib_a-stdio.o) (_read_r)
d:/fpga/nios2eds/bin/gnu/h-i686-mingw32/bin/../lib/gcc/nios2-elf/4.1.2\libgcc.a(_udivdi3.o)
                              d:/fpga/nios2eds/bin/gnu/h-i686-mingw32/bin/../lib/gcc/nios2-elf/4.1.2/../../../../nios2-elf/lib\libc.a(lib_a-vfprintf.o) (__udivdi3)
d:/fpga/nios2eds/bin/gnu/h-i686-mingw32/bin/../lib/gcc/nios2-elf/4.1.2\libgcc.a(_umoddi3.o)
                              d:/fpga/nios2eds/bin/gnu/h-i686-mingw32/bin/../lib/gcc/nios2-elf/4.1.2/../../../../nios2-elf/lib\libc.a(lib_a-vfprintf.o) (__umoddi3)
d:/fpga/nios2eds/bin/gnu/h-i686-mingw32/bin/../lib/gcc/nios2-elf/4.1.2\libgcc.a(_addsub_df.o)
                              d:/fpga/nios2eds/bin/gnu/h-i686-mingw32/bin/../lib/gcc/nios2-elf/4.1.2/../../../../nios2-elf/lib\libc.a(lib_a-dtoa.o) (__subdf3)
d:/fpga/nios2eds/bin/gnu/h-i686-mingw32/bin/../lib/gcc/nios2-elf/4.1.2\libgcc.a(_mul_df.o)
                              d:/fpga/nios2eds/bin/gnu/h-i686-mingw32/bin/../lib/gcc/nios2-elf/4.1.2/../../../../nios2-elf/lib\libc.a(lib_a-dtoa.o) (__muldf3)
d:/fpga/nios2eds/bin/gnu/h-i686-mingw32/bin/../lib/gcc/nios2-elf/4.1.2\libgcc.a(_div_df.o)
                              d:/fpga/nios2eds/bin/gnu/h-i686-mingw32/bin/../lib/gcc/nios2-elf/4.1.2/../../../../nios2-elf/lib\libc.a(lib_a-dtoa.o) (__divdf3)
d:/fpga/nios2eds/bin/gnu/h-i686-mingw32/bin/../lib/gcc/nios2-elf/4.1.2\libgcc.a(_eq_df.o)
                              d:/fpga/nios2eds/bin/gnu/h-i686-mingw32/bin/../lib/gcc/nios2-elf/4.1.2/../../../../nios2-elf/lib\libc.a(lib_a-vfprintf.o) (__eqdf2)
d:/fpga/nios2eds/bin/gnu/h-i686-mingw32/bin/../lib/gcc/nios2-elf/4.1.2\libgcc.a(_ne_df.o)
                              d:/fpga/nios2eds/bin/gnu/h-i686-mingw32/bin/../lib/gcc/nios2-elf/4.1.2/../../../../nios2-elf/lib\libc.a(lib_a-vfprintf.o) (__nedf2)
d:/fpga/nios2eds/bin/gnu/h-i686-mingw32/bin/../lib/gcc/nios2-elf/4.1.2\libgcc.a(_gt_df.o)
                              d:/fpga/nios2eds/bin/gnu/h-i686-mingw32/bin/../lib/gcc/nios2-elf/4.1.2/../../../../nios2-elf/lib\libc.a(lib_a-dtoa.o) (__gtdf2)
d:/fpga/nios2eds/bin/gnu/h-i686-mingw32/bin/../lib/gcc/nios2-elf/4.1.2\libgcc.a(_ge_df.o)
                              d:/fpga/nios2eds/bin/gnu/h-i686-mingw32/bin/../lib/gcc/nios2-elf/4.1.2/../../../../nios2-elf/lib\libc.a(lib_a-dtoa.o) (__gedf2)
d:/fpga/nios2eds/bin/gnu/h-i686-mingw32/bin/../lib/gcc/nios2-elf/4.1.2\libgcc.a(_lt_df.o)
                              d:/fpga/nios2eds/bin/gnu/h-i686-mingw32/bin/../lib/gcc/nios2-elf/4.1.2/../../../../nios2-elf/lib\libc.a(lib_a-vfprintf.o) (__ltdf2)
d:/fpga/nios2eds/bin/gnu/h-i686-mingw32/bin/../lib/gcc/nios2-elf/4.1.2\libgcc.a(_si_to_df.o)
                              d:/fpga/nios2eds/bin/gnu/h-i686-mingw32/bin/../lib/gcc/nios2-elf/4.1.2/../../../../nios2-elf/lib\libc.a(lib_a-dtoa.o) (__floatsidf)
d:/fpga/nios2eds/bin/gnu/h-i686-mingw32/bin/../lib/gcc/nios2-elf/4.1.2\libgcc.a(_df_to_si.o)
                              d:/fpga/nios2eds/bin/gnu/h-i686-mingw32/bin/../lib/gcc/nios2-elf/4.1.2/../../../../nios2-elf/lib\libc.a(lib_a-dtoa.o) (__fixdfsi)
d:/fpga/nios2eds/bin/gnu/h-i686-mingw32/bin/../lib/gcc/nios2-elf/4.1.2\libgcc.a(_thenan_df.o)
                              d:/fpga/nios2eds/bin/gnu/h-i686-mingw32/bin/../lib/gcc/nios2-elf/4.1.2\libgcc.a(_addsub_df.o) (__thenan_df)
d:/fpga/nios2eds/bin/gnu/h-i686-mingw32/bin/../lib/gcc/nios2-elf/4.1.2\libgcc.a(_usi_to_df.o)
                              d:/fpga/nios2eds/bin/gnu/h-i686-mingw32/bin/../lib/gcc/nios2-elf/4.1.2/../../../../nios2-elf/lib\libc.a(lib_a-dtoa.o) (__floatunsidf)
d:/fpga/nios2eds/bin/gnu/h-i686-mingw32/bin/../lib/gcc/nios2-elf/4.1.2\libgcc.a(lib2-divmod.o)
                              d:/fpga/nios2eds/bin/gnu/h-i686-mingw32/bin/../lib/gcc/nios2-elf/4.1.2/../../../../nios2-elf/lib\libc.a(lib_a-vfprintf.o) (__divsi3)
d:/fpga/nios2eds/bin/gnu/h-i686-mingw32/bin/../lib/gcc/nios2-elf/4.1.2\libgcc.a(_muldi3.o)
                              d:/fpga/nios2eds/bin/gnu/h-i686-mingw32/bin/../lib/gcc/nios2-elf/4.1.2\libgcc.a(_mul_df.o) (__muldi3)
d:/fpga/nios2eds/bin/gnu/h-i686-mingw32/bin/../lib/gcc/nios2-elf/4.1.2\libgcc.a(_unpack_df.o)
                              d:/fpga/nios2eds/bin/gnu/h-i686-mingw32/bin/../lib/gcc/nios2-elf/4.1.2\libgcc.a(_addsub_df.o) (__unpack_d)
d:/fpga/nios2eds/bin/gnu/h-i686-mingw32/bin/../lib/gcc/nios2-elf/4.1.2\libgcc.a(_fpcmp_parts_df.o)
                              d:/fpga/nios2eds/bin/gnu/h-i686-mingw32/bin/../lib/gcc/nios2-elf/4.1.2\libgcc.a(_eq_df.o) (__fpcmp_parts_d)
../Hardware_Denoise_bsp/\libhal_bsp.a(alt_close.o)
                              d:/fpga/nios2eds/bin/gnu/h-i686-mingw32/bin/../lib/gcc/nios2-elf/4.1.2/../../../../nios2-elf/lib\libc.a(lib_a-closer.o) (close)
../Hardware_Denoise_bsp/\libhal_bsp.a(alt_dev.o)
                              ../Hardware_Denoise_bsp/\libhal_bsp.a(alt_close.o) (alt_fd_list)
../Hardware_Denoise_bsp/\libhal_bsp.a(alt_errno.o)
                              ../Hardware_Denoise_bsp/\libhal_bsp.a(alt_close.o) (alt_errno)
../Hardware_Denoise_bsp/\libhal_bsp.a(alt_fstat.o)
                              d:/fpga/nios2eds/bin/gnu/h-i686-mingw32/bin/../lib/gcc/nios2-elf/4.1.2/../../../../nios2-elf/lib\libc.a(lib_a-fstatr.o) (fstat)
../Hardware_Denoise_bsp/\libhal_bsp.a(alt_irq_register.o)
                              obj/default/media_interrupt_HAL.o (alt_irq_register)
../Hardware_Denoise_bsp/\libhal_bsp.a(alt_irq_vars.o)
                              ../Hardware_Denoise_bsp/\libhal_bsp.a(alt_irq_register.o) (alt_irq_active)
../Hardware_Denoise_bsp/\libhal_bsp.a(alt_isatty.o)
                              d:/fpga/nios2eds/bin/gnu/h-i686-mingw32/bin/../lib/gcc/nios2-elf/4.1.2/../../../../nios2-elf/lib\libc.a(lib_a-isattyr.o) (isatty)
../Hardware_Denoise_bsp/\libhal_bsp.a(alt_load.o)
                              ../Hardware_Denoise_bsp//obj/HAL/src/crt0.o (alt_load)
../Hardware_Denoise_bsp/\libhal_bsp.a(alt_lseek.o)
                              d:/fpga/nios2eds/bin/gnu/h-i686-mingw32/bin/../lib/gcc/nios2-elf/4.1.2/../../../../nios2-elf/lib\libc.a(lib_a-lseekr.o) (lseek)
../Hardware_Denoise_bsp/\libhal_bsp.a(alt_main.o)
                              ../Hardware_Denoise_bsp//obj/HAL/src/crt0.o (alt_main)
../Hardware_Denoise_bsp/\libhal_bsp.a(alt_malloc_lock.o)
                              d:/fpga/nios2eds/bin/gnu/h-i686-mingw32/bin/../lib/gcc/nios2-elf/4.1.2/../../../../nios2-elf/lib\libc.a(lib_a-freer.o) (__malloc_lock)
../Hardware_Denoise_bsp/\libhal_bsp.a(alt_printf.o)
                              obj/default/media_interrupt_HAL.o (alt_printf)
../Hardware_Denoise_bsp/\libhal_bsp.a(alt_putchar.o)
                              ../Hardware_Denoise_bsp/\libhal_bsp.a(alt_printf.o) (alt_putchar)
../Hardware_Denoise_bsp/\libhal_bsp.a(alt_read.o)
                              d:/fpga/nios2eds/bin/gnu/h-i686-mingw32/bin/../lib/gcc/nios2-elf/4.1.2/../../../../nios2-elf/lib\libc.a(lib_a-readr.o) (read)
../Hardware_Denoise_bsp/\libhal_bsp.a(alt_release_fd.o)
                              ../Hardware_Denoise_bsp/\libhal_bsp.a(alt_close.o) (alt_release_fd)
../Hardware_Denoise_bsp/\libhal_bsp.a(alt_sbrk.o)
                              d:/fpga/nios2eds/bin/gnu/h-i686-mingw32/bin/../lib/gcc/nios2-elf/4.1.2/../../../../nios2-elf/lib\libc.a(lib_a-sbrkr.o) (sbrk)
../Hardware_Denoise_bsp/\libhal_bsp.a(alt_write.o)
                              d:/fpga/nios2eds/bin/gnu/h-i686-mingw32/bin/../lib/gcc/nios2-elf/4.1.2/../../../../nios2-elf/lib\libc.a(lib_a-writer.o) (write)
../Hardware_Denoise_bsp/\libhal_bsp.a(alt_sys_init.o)
                              ../Hardware_Denoise_bsp/\libhal_bsp.a(alt_main.o) (alt_irq_init)
../Hardware_Denoise_bsp/\libhal_bsp.a(altera_avalon_jtag_uart_fd.o)
                              ../Hardware_Denoise_bsp/\libhal_bsp.a(alt_sys_init.o) (altera_avalon_jtag_uart_read_fd)
../Hardware_Denoise_bsp/\libhal_bsp.a(altera_avalon_jtag_uart_init.o)
                              ../Hardware_Denoise_bsp/\libhal_bsp.a(alt_sys_init.o) (altera_avalon_jtag_uart_init)
../Hardware_Denoise_bsp/\libhal_bsp.a(altera_avalon_jtag_uart_ioctl.o)
                              ../Hardware_Denoise_bsp/\libhal_bsp.a(altera_avalon_jtag_uart_fd.o) (altera_avalon_jtag_uart_ioctl)
../Hardware_Denoise_bsp/\libhal_bsp.a(altera_avalon_jtag_uart_read.o)
                              ../Hardware_Denoise_bsp/\libhal_bsp.a(altera_avalon_jtag_uart_fd.o) (altera_avalon_jtag_uart_read)
../Hardware_Denoise_bsp/\libhal_bsp.a(altera_avalon_jtag_uart_write.o)
                              ../Hardware_Denoise_bsp/\libhal_bsp.a(altera_avalon_jtag_uart_fd.o) (altera_avalon_jtag_uart_write)
../Hardware_Denoise_bsp/\libhal_bsp.a(altera_avalon_timer_ts.o)
                              obj/default/media_interrupt_HAL.o (alt_timestamp_start)
../Hardware_Denoise_bsp/\libhal_bsp.a(altera_avalon_timer_vars.o)
                              ../Hardware_Denoise_bsp/\libhal_bsp.a(alt_sys_init.o) (altera_avalon_timer_ts_base)
../Hardware_Denoise_bsp/\libhal_bsp.a(altera_up_avalon_audio.o)
                              obj/default/media_interrupt_HAL.o (alt_up_audio_open_dev)
../Hardware_Denoise_bsp/\libhal_bsp.a(altera_up_avalon_character_lcd.o)
                              ../Hardware_Denoise_bsp/\libhal_bsp.a(alt_sys_init.o) (alt_up_character_lcd_init)
../Hardware_Denoise_bsp/\libhal_bsp.a(altera_up_avalon_ethernet.o)
                              ../Hardware_Denoise_bsp/\libhal_bsp.a(alt_sys_init.o) (alt_up_ethernet_init)
../Hardware_Denoise_bsp/\libhal_bsp.a(altera_up_avalon_ethernet_low_level_driver.o)
                              ../Hardware_Denoise_bsp/\libhal_bsp.a(altera_up_avalon_ethernet.o) (alt_up_ethernet_reg_write)
../Hardware_Denoise_bsp/\libhal_bsp.a(altera_up_avalon_irda.o)
                              ../Hardware_Denoise_bsp/\libhal_bsp.a(alt_sys_init.o) (alt_up_irda_read_fd)
../Hardware_Denoise_bsp/\libhal_bsp.a(altera_up_avalon_parallel_port.o)
                              obj/default/media_interrupt_HAL.o (alt_up_parallel_port_open_dev)
../Hardware_Denoise_bsp/\libhal_bsp.a(altera_up_avalon_ps2.o)
                              ../Hardware_Denoise_bsp/\libhal_bsp.a(alt_sys_init.o) (alt_up_ps2_init)
../Hardware_Denoise_bsp/\libhal_bsp.a(altera_up_avalon_rs232.o)
                              ../Hardware_Denoise_bsp/\libhal_bsp.a(alt_sys_init.o) (alt_up_rs232_read_fd)
../Hardware_Denoise_bsp/\libhal_bsp.a(altera_up_avalon_video_character_buffer_with_dma.o)
                              ../Hardware_Denoise_bsp/\libhal_bsp.a(alt_sys_init.o) (alt_up_char_buffer_init)
../Hardware_Denoise_bsp/\libhal_bsp.a(altera_up_avalon_video_pixel_buffer_dma.o)
                              obj/default/media_interrupt_HAL.o (alt_up_pixel_buffer_dma_open_dev)
../Hardware_Denoise_bsp/\libhal_bsp.a(alt_alarm_start.o)
                              ../Hardware_Denoise_bsp/\libhal_bsp.a(altera_avalon_jtag_uart_init.o) (alt_alarm_start)
../Hardware_Denoise_bsp/\libhal_bsp.a(alt_dcache_flush_all.o)
                              ../Hardware_Denoise_bsp/\libhal_bsp.a(alt_load.o) (alt_dcache_flush_all)
../Hardware_Denoise_bsp/\libhal_bsp.a(alt_dev_llist_insert.o)
                              ../Hardware_Denoise_bsp/\libhal_bsp.a(alt_sys_init.o) (alt_dev_llist_insert)
../Hardware_Denoise_bsp/\libhal_bsp.a(alt_do_ctors.o)
                              ../Hardware_Denoise_bsp/\libhal_bsp.a(alt_main.o) (_do_ctors)
../Hardware_Denoise_bsp/\libhal_bsp.a(alt_do_dtors.o)
                              ../Hardware_Denoise_bsp/\libhal_bsp.a(alt_main.o) (_do_dtors)
../Hardware_Denoise_bsp/\libhal_bsp.a(alt_find_dev.o)
                              ../Hardware_Denoise_bsp/\libhal_bsp.a(altera_up_avalon_audio.o) (alt_find_dev)
../Hardware_Denoise_bsp/\libhal_bsp.a(alt_icache_flush_all.o)
                              ../Hardware_Denoise_bsp/\libhal_bsp.a(alt_load.o) (alt_icache_flush_all)
../Hardware_Denoise_bsp/\libhal_bsp.a(alt_io_redirect.o)
                              ../Hardware_Denoise_bsp/\libhal_bsp.a(alt_main.o) (alt_io_redirect)
../Hardware_Denoise_bsp/\libhal_bsp.a(alt_irq_entry.o)
                              ../Hardware_Denoise_bsp/\libhal_bsp.a(alt_irq_register.o) (alt_irq_entry)
../Hardware_Denoise_bsp/\libhal_bsp.a(alt_irq_handler.o)
                              ../Hardware_Denoise_bsp/\libhal_bsp.a(alt_irq_register.o) (alt_irq_handler)
../Hardware_Denoise_bsp/\libhal_bsp.a(alt_open.o)
                              ../Hardware_Denoise_bsp/\libhal_bsp.a(alt_io_redirect.o) (open)
../Hardware_Denoise_bsp/\libhal_bsp.a(alt_tick.o)
                              ../Hardware_Denoise_bsp/\libhal_bsp.a(altera_avalon_jtag_uart_init.o) (_alt_tick_rate)
../Hardware_Denoise_bsp/\libhal_bsp.a(alt_usleep.o)
                              ../Hardware_Denoise_bsp/\libhal_bsp.a(altera_up_avalon_ethernet.o) (usleep)
../Hardware_Denoise_bsp/\libhal_bsp.a(altera_nios2_qsys_irq.o)
                              ../Hardware_Denoise_bsp/\libhal_bsp.a(alt_sys_init.o) (altera_nios2_qsys_irq_init)
../Hardware_Denoise_bsp/\libhal_bsp.a(alt_busy_sleep.o)
                              ../Hardware_Denoise_bsp/\libhal_bsp.a(alt_usleep.o) (alt_busy_sleep)
../Hardware_Denoise_bsp/\libhal_bsp.a(alt_exception_entry.o)
                              ../Hardware_Denoise_bsp/\libhal_bsp.a(alt_irq_entry.o) (alt_exception)
../Hardware_Denoise_bsp/\libhal_bsp.a(alt_find_file.o)
                              ../Hardware_Denoise_bsp/\libhal_bsp.a(alt_open.o) (alt_find_file)
../Hardware_Denoise_bsp/\libhal_bsp.a(alt_get_fd.o)
                              ../Hardware_Denoise_bsp/\libhal_bsp.a(alt_open.o) (alt_get_fd)
../Hardware_Denoise_bsp/\libhal_bsp.a(alt_icache_flush.o)
                              ../Hardware_Denoise_bsp/\libhal_bsp.a(alt_icache_flush_all.o) (alt_icache_flush)
d:/fpga/nios2eds/bin/gnu/h-i686-mingw32/bin/../lib/gcc/nios2-elf/4.1.2/../../../../nios2-elf/lib\libc.a(lib_a-atexit.o)
                              ../Hardware_Denoise_bsp/\libhal_bsp.a(alt_main.o) (atexit)
d:/fpga/nios2eds/bin/gnu/h-i686-mingw32/bin/../lib/gcc/nios2-elf/4.1.2/../../../../nios2-elf/lib\libc.a(lib_a-exit.o)
                              ../Hardware_Denoise_bsp/\libhal_bsp.a(alt_main.o) (exit)
d:/fpga/nios2eds/bin/gnu/h-i686-mingw32/bin/../lib/gcc/nios2-elf/4.1.2/../../../../nios2-elf/lib\libc.a(lib_a-memcmp.o)
                              ../Hardware_Denoise_bsp/\libhal_bsp.a(alt_find_dev.o) (memcmp)
d:/fpga/nios2eds/bin/gnu/h-i686-mingw32/bin/../lib/gcc/nios2-elf/4.1.2/../../../../nios2-elf/lib\libc.a(lib_a-putc.o)
                              ../Hardware_Denoise_bsp/\libhal_bsp.a(alt_putchar.o) (putc)
d:/fpga/nios2eds/bin/gnu/h-i686-mingw32/bin/../lib/gcc/nios2-elf/4.1.2/../../../../nios2-elf/lib\libc.a(lib_a-wbuf.o)
                              d:/fpga/nios2eds/bin/gnu/h-i686-mingw32/bin/../lib/gcc/nios2-elf/4.1.2/../../../../nios2-elf/lib\libc.a(lib_a-putc.o) (__swbuf_r)
d:/fpga/nios2eds/bin/gnu/h-i686-mingw32/bin/../lib/gcc/nios2-elf/4.1.2/../../../../nios2-elf/lib\libc.a(lib_a-__atexit.o)
                              d:/fpga/nios2eds/bin/gnu/h-i686-mingw32/bin/../lib/gcc/nios2-elf/4.1.2/../../../../nios2-elf/lib\libc.a(lib_a-atexit.o) (__register_exitproc)
d:/fpga/nios2eds/bin/gnu/h-i686-mingw32/bin/../lib/gcc/nios2-elf/4.1.2/../../../../nios2-elf/lib\libc.a(lib_a-__call_atexit.o)
                              d:/fpga/nios2eds/bin/gnu/h-i686-mingw32/bin/../lib/gcc/nios2-elf/4.1.2/../../../../nios2-elf/lib\libc.a(lib_a-exit.o) (__call_exitprocs)
../Hardware_Denoise_bsp/\libhal_bsp.a(alt_exit.o)
                              d:/fpga/nios2eds/bin/gnu/h-i686-mingw32/bin/../lib/gcc/nios2-elf/4.1.2/../../../../nios2-elf/lib\libc.a(lib_a-exit.o) (_exit)

Allocating common symbols
Common symbol       size              file

alt_irq             0x100             ../Hardware_Denoise_bsp/\libhal_bsp.a(alt_irq_handler.o)
byte2               0x1               obj/default/globals.o
byte3               0x1               obj/default/globals.o
copy_byte3          0x1               obj/default/globals.o
record_l_buf        0x61a80           obj/default/audio_ISR.o
byte1               0x1               obj/default/globals.o
prev_y_mouse        0x4               obj/default/media_interrupt_HAL.o
errno               0x4               d:/fpga/nios2eds/bin/gnu/h-i686-mingw32/bin/../lib/gcc/nios2-elf/4.1.2/../../../../nios2-elf/lib\libc.a(lib_a-int_errno.o)
copy_byte1          0x1               obj/default/globals.o
y_mouse             0x4               obj/default/media_interrupt_HAL.o
flag                0x4               obj/default/PS2_ISR.o
up_dev              0x20              obj/default/globals.o
flag_denoise        0x4               obj/default/media_interrupt_HAL.o
play_l_buf          0x61a80           obj/default/audio_ISR.o
prev_y_mouse_front  0x4               obj/default/media_interrupt_HAL.o
record_r_buf        0x61a80           obj/default/audio_ISR.o
prev_y_mouse_back   0x4               obj/default/media_interrupt_HAL.o
max_y_mouse         0x4               obj/default/media_interrupt_HAL.o
prev_x_mouse        0x4               obj/default/media_interrupt_HAL.o
max_x_mouse         0x4               obj/default/media_interrupt_HAL.o
copy_byte2          0x1               obj/default/globals.o
flag_play           0x4               obj/default/media_interrupt_HAL.o
right_button_click  0x4               obj/default/media_interrupt_HAL.o
left_button_click   0x4               obj/default/media_interrupt_HAL.o
prev_x_mouse_back   0x4               obj/default/media_interrupt_HAL.o
timeout             0x4               obj/default/globals.o
_atexit0            0x190             d:/fpga/nios2eds/bin/gnu/h-i686-mingw32/bin/../lib/gcc/nios2-elf/4.1.2/../../../../nios2-elf/lib\libc.a(lib_a-atexit.o)
buf_index_play      0x4               obj/default/globals.o
x_mouse             0x4               obj/default/media_interrupt_HAL.o
middle_button_click
                    0x4               obj/default/media_interrupt_HAL.o
play_r_buf          0x61a80           obj/default/audio_ISR.o
buf_index_record    0x4               obj/default/globals.o
prev_x_mouse_front  0x4               obj/default/media_interrupt_HAL.o

Memory Configuration

Name             Origin             Length             Attributes
reset            0x00000000         0x00000020
SDRAM            0x00000020         0x007fffe0
Flash_flash_data 0x0c000000         0x00400000
*default*        0x00000000         0xffffffff

Linker script and memory map

LOAD ../Hardware_Denoise_bsp//obj/HAL/src/crt0.o
LOAD obj/default/PS2_ISR.o
LOAD obj/default/audio_ISR.o
LOAD obj/default/globals.o
LOAD obj/default/interval_timer_ISR.o
LOAD obj/default/media_interrupt_HAL.o
LOAD obj/default/pushbutton_ISR.o
LOAD d:/fpga/nios2eds/bin/gnu/h-i686-mingw32/bin/../lib/gcc/nios2-elf/4.1.2/../../../../nios2-elf/lib\libstdc++.a
LOAD d:/fpga/nios2eds/bin/gnu/h-i686-mingw32/bin/../lib/gcc/nios2-elf/4.1.2/../../../../nios2-elf/lib\libm.a
LOAD d:/fpga/nios2eds/bin/gnu/h-i686-mingw32/bin/../lib/gcc/nios2-elf/4.1.2\libgcc.a
START GROUP
LOAD d:/fpga/nios2eds/bin/gnu/h-i686-mingw32/bin/../lib/gcc/nios2-elf/4.1.2/../../../../nios2-elf/lib\libc.a
LOAD d:/fpga/nios2eds/bin/gnu/h-i686-mingw32/bin/../lib/gcc/nios2-elf/4.1.2\libgcc.a
LOAD ../Hardware_Denoise_bsp/\libhal_bsp.a
END GROUP
LOAD d:/fpga/nios2eds/bin/gnu/h-i686-mingw32/bin/../lib/gcc/nios2-elf/4.1.2\libgcc.a
                0x00000000                __alt_mem_SDRAM = 0x0
                0x0c000000                __alt_mem_Flash_flash_data = 0xc000000

.entry          0x00000000       0x20
 *(.entry)
 .entry         0x00000000       0x20 ../Hardware_Denoise_bsp//obj/HAL/src/crt0.o
                0x00000000                __reset

.exceptions     0x00000020      0x198
                0x00000020                PROVIDE (__ram_exceptions_start, ABSOLUTE (.))
                0x00000020                . = ALIGN (0x20)
 *(.irq)
 *(.exceptions.entry.label)
 .exceptions.entry.label
                0x00000020        0x0 ../Hardware_Denoise_bsp/\libhal_bsp.a(alt_irq_entry.o)
                0x00000020                alt_irq_entry
 .exceptions.entry.label
                0x00000020        0x0 ../Hardware_Denoise_bsp/\libhal_bsp.a(alt_exception_entry.o)
                0x00000020                alt_exception
 *(.exceptions.entry.user)
 *(.exceptions.entry)
 .exceptions.entry
                0x00000020       0x54 ../Hardware_Denoise_bsp/\libhal_bsp.a(alt_exception_entry.o)
 *(.exceptions.irqtest.user)
 *(.exceptions.irqtest)
 .exceptions.irqtest
                0x00000074       0x10 ../Hardware_Denoise_bsp/\libhal_bsp.a(alt_irq_entry.o)
 *(.exceptions.irqhandler.user)
 *(.exceptions.irqhandler)
 .exceptions.irqhandler
                0x00000084        0x4 ../Hardware_Denoise_bsp/\libhal_bsp.a(alt_irq_entry.o)
 *(.exceptions.irqreturn.user)
 *(.exceptions.irqreturn)
 .exceptions.irqreturn
                0x00000088        0x4 ../Hardware_Denoise_bsp/\libhal_bsp.a(alt_irq_entry.o)
 *(.exceptions.notirq.label)
 .exceptions.notirq.label
                0x0000008c        0x0 ../Hardware_Denoise_bsp/\libhal_bsp.a(alt_irq_entry.o)
 *(.exceptions.notirq.user)
 *(.exceptions.notirq)
 .exceptions.notirq
                0x0000008c        0x8 ../Hardware_Denoise_bsp/\libhal_bsp.a(alt_exception_entry.o)
 *(.exceptions.soft.user)
 *(.exceptions.soft)
 *(.exceptions.unknown.user)
 *(.exceptions.unknown)
 .exceptions.unknown
                0x00000094        0x4 ../Hardware_Denoise_bsp/\libhal_bsp.a(alt_exception_entry.o)
 *(.exceptions.exit.label)
 .exceptions.exit.label
                0x00000098        0x0 ../Hardware_Denoise_bsp/\libhal_bsp.a(alt_irq_entry.o)
 .exceptions.exit.label
                0x00000098        0x0 ../Hardware_Denoise_bsp/\libhal_bsp.a(alt_exception_entry.o)
 *(.exceptions.exit.user)
 *(.exceptions.exit)
 .exceptions.exit
                0x00000098       0x54 ../Hardware_Denoise_bsp/\libhal_bsp.a(alt_exception_entry.o)
 *(.exceptions)
 .exceptions    0x000000ec       0xcc ../Hardware_Denoise_bsp/\libhal_bsp.a(alt_irq_handler.o)
                0x000000ec                alt_irq_handler
                0x000001b8                PROVIDE (__ram_exceptions_end, ABSOLUTE (.))
                0x00000020                PROVIDE (__flash_exceptions_start, LOADADDR (.exceptions))

.text           0x000001b8    0x12a98
                0x000001b8                PROVIDE (stext, ABSOLUTE (.))
 *(.interp)
 *(.hash)
 *(.dynsym)
 *(.dynstr)
 *(.gnu.version)
 *(.gnu.version_d)
 *(.gnu.version_r)
 *(.rel.init)
 *(.rela.init)
 *(.rel.text .rel.text.* .rel.gnu.linkonce.t.*)
 *(.rela.text .rela.text.* .rela.gnu.linkonce.t.*)
 *(.rel.fini)
 *(.rela.fini)
 *(.rel.rodata .rel.rodata.* .rel.gnu.linkonce.r.*)
 *(.rela.rodata .rela.rodata.* .rela.gnu.linkonce.r.*)
 *(.rel.data .rel.data.* .rel.gnu.linkonce.d.*)
 *(.rela.data .rela.data.* .rela.gnu.linkonce.d.*)
 *(.rel.tdata .rel.tdata.* .rel.gnu.linkonce.td.*)
 *(.rela.tdata .rela.tdata.* .rela.gnu.linkonce.td.*)
 *(.rel.tbss .rel.tbss.* .rel.gnu.linkonce.tb.*)
 *(.rela.tbss .rela.tbss.* .rela.gnu.linkonce.tb.*)
 *(.rel.ctors)
 *(.rela.ctors)
 *(.rel.dtors)
 *(.rela.dtors)
 *(.rel.got)
 *(.rela.got)
 *(.rel.sdata .rel.sdata.* .rel.gnu.linkonce.s.*)
 *(.rela.sdata .rela.sdata.* .rela.gnu.linkonce.s.*)
 *(.rel.sbss .rel.sbss.* .rel.gnu.linkonce.sb.*)
 *(.rela.sbss .rela.sbss.* .rela.gnu.linkonce.sb.*)
 *(.rel.sdata2 .rel.sdata2.* .rel.gnu.linkonce.s2.*)
 *(.rela.sdata2 .rela.sdata2.* .rela.gnu.linkonce.s2.*)
 *(.rel.sbss2 .rel.sbss2.* .rel.gnu.linkonce.sb2.*)
 *(.rela.sbss2 .rela.sbss2.* .rela.gnu.linkonce.sb2.*)
 *(.rel.bss .rel.bss.* .rel.gnu.linkonce.b.*)
 *(.rela.bss .rela.bss.* .rela.gnu.linkonce.b.*)
 *(.rel.plt)
 *(.rela.plt)
 *(.rel.dyn)
 *(.init)
 *(.plt)
 *(.text .stub .text.* .gnu.linkonce.t.*)
 .text          0x000001b8       0x3c ../Hardware_Denoise_bsp//obj/HAL/src/crt0.o
                0x000001b8                _start
 .text          0x000001f4      0x150 obj/default/PS2_ISR.o
                0x000001f4                PS2_ISR
 .text          0x00000344      0x3f8 obj/default/audio_ISR.o
                0x00000344                audio_ISR
 .text          0x0000073c        0x0 obj/default/globals.o
 .text          0x0000073c       0x60 obj/default/interval_timer_ISR.o
                0x0000073c                interval_timer_ISR
 .text          0x0000079c     0x1c8c obj/default/media_interrupt_HAL.o
                0x0000079c                main
                0x000012e8                HEX_PS2
                0x0000140c                PS2_Init
                0x000014c4                show_mouse_buttons_states_on_Red_LEDs
                0x000015bc                check_for_click
                0x00001648                check_KEYs
                0x00001850                print_mouse_on_given_position
                0x000018f4                erase_previous_mouse_position
                0x00001c38                setMouseBounds
                0x00001c6c                getMouseState
                0x00001e48                print_screen
                0x00002060                denoise_the_noisy_sound
                0x000021b8                echo_maker
 .text          0x00002428       0xb8 obj/default/pushbutton_ISR.o
                0x00002428                pushbutton_ISR
 .text          0x000024e0       0x98 d:/fpga/nios2eds/bin/gnu/h-i686-mingw32/bin/../lib/gcc/nios2-elf/4.1.2\libgcc.a(_si_to_sf.o)
                0x000024e0                __floatsisf
 .text          0x00002578       0x94 d:/fpga/nios2eds/bin/gnu/h-i686-mingw32/bin/../lib/gcc/nios2-elf/4.1.2\libgcc.a(_sf_to_si.o)
                0x00002578                __fixsfsi
 .text          0x0000260c       0x54 d:/fpga/nios2eds/bin/gnu/h-i686-mingw32/bin/../lib/gcc/nios2-elf/4.1.2\libgcc.a(_sf_to_df.o)
                0x0000260c                __extendsfdf2
 .text          0x00002660       0xc0 d:/fpga/nios2eds/bin/gnu/h-i686-mingw32/bin/../lib/gcc/nios2-elf/4.1.2\libgcc.a(_usi_to_sf.o)
                0x00002660                __floatunsisf
 .text          0x00002720       0x38 d:/fpga/nios2eds/bin/gnu/h-i686-mingw32/bin/../lib/gcc/nios2-elf/4.1.2\libgcc.a(_make_df.o)
                0x00002720                __make_dp
 .text          0x00002758       0x80 d:/fpga/nios2eds/bin/gnu/h-i686-mingw32/bin/../lib/gcc/nios2-elf/4.1.2\libgcc.a(_clzsi2.o)
                0x00002758                __clzsi2
 .text          0x000027d8      0x160 d:/fpga/nios2eds/bin/gnu/h-i686-mingw32/bin/../lib/gcc/nios2-elf/4.1.2\libgcc.a(_pack_sf.o)
                0x000027d8                __pack_f
 .text          0x00002938       0xc8 d:/fpga/nios2eds/bin/gnu/h-i686-mingw32/bin/../lib/gcc/nios2-elf/4.1.2\libgcc.a(_unpack_sf.o)
                0x00002938                __unpack_f
 .text          0x00002a00      0x314 d:/fpga/nios2eds/bin/gnu/h-i686-mingw32/bin/../lib/gcc/nios2-elf/4.1.2\libgcc.a(_pack_df.o)
                0x00002a00                __pack_d
 .text          0x00002d14        0x0 d:/fpga/nios2eds/bin/gnu/h-i686-mingw32/bin/../lib/gcc/nios2-elf/4.1.2\libgcc.a(_clz.o)
 .text          0x00002d14       0xa0 d:/fpga/nios2eds/bin/gnu/h-i686-mingw32/bin/../lib/gcc/nios2-elf/4.1.2/../../../../nios2-elf/lib\libc.a(lib_a-memcpy.o)
                0x00002d14                memcpy
 .text          0x00002db4       0x98 d:/fpga/nios2eds/bin/gnu/h-i686-mingw32/bin/../lib/gcc/nios2-elf/4.1.2/../../../../nios2-elf/lib\libc.a(lib_a-memset.o)
                0x00002db4                memset
 .text          0x00002e4c       0x78 d:/fpga/nios2eds/bin/gnu/h-i686-mingw32/bin/../lib/gcc/nios2-elf/4.1.2/../../../../nios2-elf/lib\libc.a(lib_a-printf.o)
                0x00002e4c                printf
                0x00002e90                _printf_r
 .text          0x00002ec4     0x1f28 d:/fpga/nios2eds/bin/gnu/h-i686-mingw32/bin/../lib/gcc/nios2-elf/4.1.2/../../../../nios2-elf/lib\libc.a(lib_a-vfprintf.o)
                0x00002f1c                ___vfprintf_internal_r
                0x00004dc8                __vfprintf_internal
 .text          0x00004dec      0x13c d:/fpga/nios2eds/bin/gnu/h-i686-mingw32/bin/../lib/gcc/nios2-elf/4.1.2/../../../../nios2-elf/lib\libc.a(lib_a-wsetup.o)
                0x00004dec                __swsetup_r
 .text          0x00004f28     0x17cc d:/fpga/nios2eds/bin/gnu/h-i686-mingw32/bin/../lib/gcc/nios2-elf/4.1.2/../../../../nios2-elf/lib\libc.a(lib_a-dtoa.o)
                0x00005140                _dtoa_r
 .text          0x000066f4      0x230 d:/fpga/nios2eds/bin/gnu/h-i686-mingw32/bin/../lib/gcc/nios2-elf/4.1.2/../../../../nios2-elf/lib\libc.a(lib_a-fflush.o)
                0x000066f4                _fflush_r
                0x000068f0                fflush
 .text          0x00006924      0x2c0 d:/fpga/nios2eds/bin/gnu/h-i686-mingw32/bin/../lib/gcc/nios2-elf/4.1.2/../../../../nios2-elf/lib\libc.a(lib_a-findfp.o)
                0x0000697c                __sfp_lock_acquire
                0x00006980                __sfp_lock_release
                0x00006984                __sinit_lock_acquire
                0x00006988                __sinit_lock_release
                0x0000698c                __sinit
                0x00006a40                __fp_unlock_all
                0x00006a58                __fp_lock_all
                0x00006a70                _cleanup_r
                0x00006a7c                _cleanup
                0x00006a8c                __sfmoreglue
                0x00006af4                __sfp
 .text          0x00006be4      0x440 d:/fpga/nios2eds/bin/gnu/h-i686-mingw32/bin/../lib/gcc/nios2-elf/4.1.2/../../../../nios2-elf/lib\libc.a(lib_a-freer.o)
                0x00006be4                _malloc_trim_r
                0x00006d10                _free_r
 .text          0x00007024      0x49c d:/fpga/nios2eds/bin/gnu/h-i686-mingw32/bin/../lib/gcc/nios2-elf/4.1.2/../../../../nios2-elf/lib\libc.a(lib_a-fvwrite.o)
                0x00007024                __sfvwrite_r
 .text          0x000074c0      0x180 d:/fpga/nios2eds/bin/gnu/h-i686-mingw32/bin/../lib/gcc/nios2-elf/4.1.2/../../../../nios2-elf/lib\libc.a(lib_a-fwalk.o)
                0x000074c0                _fwalk_reent
                0x00007588                _fwalk
 .text          0x00007640        0x0 d:/fpga/nios2eds/bin/gnu/h-i686-mingw32/bin/../lib/gcc/nios2-elf/4.1.2/../../../../nios2-elf/lib\libc.a(lib_a-impure.o)
 .text          0x00007640       0xc4 d:/fpga/nios2eds/bin/gnu/h-i686-mingw32/bin/../lib/gcc/nios2-elf/4.1.2/../../../../nios2-elf/lib\libc.a(lib_a-locale.o)
                0x00007640                __locale_charset
                0x00007648                _localeconv_r
                0x00007654                localeconv
                0x00007664                _setlocale_r
                0x000076e8                setlocale
 .text          0x00007704      0x194 d:/fpga/nios2eds/bin/gnu/h-i686-mingw32/bin/../lib/gcc/nios2-elf/4.1.2/../../../../nios2-elf/lib\libc.a(lib_a-makebuf.o)
                0x00007704                __smakebuf_r
 .text          0x00007898      0x740 d:/fpga/nios2eds/bin/gnu/h-i686-mingw32/bin/../lib/gcc/nios2-elf/4.1.2/../../../../nios2-elf/lib\libc.a(lib_a-mallocr.o)
                0x00007898                _malloc_r
 .text          0x00007fd8       0xe4 d:/fpga/nios2eds/bin/gnu/h-i686-mingw32/bin/../lib/gcc/nios2-elf/4.1.2/../../../../nios2-elf/lib\libc.a(lib_a-memchr.o)
                0x00007fd8                memchr
 .text          0x000080bc       0xe0 d:/fpga/nios2eds/bin/gnu/h-i686-mingw32/bin/../lib/gcc/nios2-elf/4.1.2/../../../../nios2-elf/lib\libc.a(lib_a-memmove.o)
                0x000080bc                memmove
 .text          0x0000819c      0xff4 d:/fpga/nios2eds/bin/gnu/h-i686-mingw32/bin/../lib/gcc/nios2-elf/4.1.2/../../../../nios2-elf/lib\libc.a(lib_a-mprec.o)
                0x0000819c                _Bfree
                0x000081c4                __hi0bits
                0x00008234                __lo0bits
                0x000082f8                __mcmp
                0x00008358                __ulp
                0x000083d8                __b2d
                0x000084f8                __ratio
                0x000085a8                _mprec_log10
                0x0000863c                __copybits
                0x00008694                __any_on
                0x0000871c                _Balloc
                0x000087d8                __d2b
                0x00008954                __mdiff
                0x00008ae0                __lshift
                0x00008c2c                __multiply
                0x00008e14                __i2b
                0x00008e50                __multadd
                0x00008f50                __pow5mult
                0x00009070                __s2b
 .text          0x00009190      0x5f4 d:/fpga/nios2eds/bin/gnu/h-i686-mingw32/bin/../lib/gcc/nios2-elf/4.1.2/../../../../nios2-elf/lib\libc.a(lib_a-reallocr.o)
                0x00009190                _realloc_r
 .text          0x00009784       0x40 d:/fpga/nios2eds/bin/gnu/h-i686-mingw32/bin/../lib/gcc/nios2-elf/4.1.2/../../../../nios2-elf/lib\libc.a(lib_a-s_isinfd.o)
                0x00009784                __isinfd
 .text          0x000097c4       0x30 d:/fpga/nios2eds/bin/gnu/h-i686-mingw32/bin/../lib/gcc/nios2-elf/4.1.2/../../../../nios2-elf/lib\libc.a(lib_a-s_isnand.o)
                0x000097c4                __isnand
 .text          0x000097f4       0x70 d:/fpga/nios2eds/bin/gnu/h-i686-mingw32/bin/../lib/gcc/nios2-elf/4.1.2/../../../../nios2-elf/lib\libc.a(lib_a-sbrkr.o)
                0x000097f4                _sbrk_r
 .text          0x00009864      0x14c d:/fpga/nios2eds/bin/gnu/h-i686-mingw32/bin/../lib/gcc/nios2-elf/4.1.2/../../../../nios2-elf/lib\libc.a(lib_a-stdio.o)
                0x00009864                __sclose
                0x0000986c                __sseek
                0x000098d4                __swrite
                0x00009950                __sread
 .text          0x000099b0       0xbc d:/fpga/nios2eds/bin/gnu/h-i686-mingw32/bin/../lib/gcc/nios2-elf/4.1.2/../../../../nios2-elf/lib\libc.a(lib_a-strcmp.o)
                0x000099b0                strcmp
 .text          0x00009a6c       0x74 d:/fpga/nios2eds/bin/gnu/h-i686-mingw32/bin/../lib/gcc/nios2-elf/4.1.2/../../../../nios2-elf/lib\libc.a(lib_a-strlen.o)
                0x00009a6c                strlen
 .text          0x00009ae0       0x78 d:/fpga/nios2eds/bin/gnu/h-i686-mingw32/bin/../lib/gcc/nios2-elf/4.1.2/../../../../nios2-elf/lib\libc.a(lib_a-writer.o)
                0x00009ae0                _write_r
 .text          0x00009b58       0xb4 d:/fpga/nios2eds/bin/gnu/h-i686-mingw32/bin/../lib/gcc/nios2-elf/4.1.2/../../../../nios2-elf/lib\libc.a(lib_a-callocr.o)
                0x00009b58                _calloc_r
 .text          0x00009c0c       0x70 d:/fpga/nios2eds/bin/gnu/h-i686-mingw32/bin/../lib/gcc/nios2-elf/4.1.2/../../../../nios2-elf/lib\libc.a(lib_a-closer.o)
                0x00009c0c                _close_r
 .text          0x00009c7c      0x124 d:/fpga/nios2eds/bin/gnu/h-i686-mingw32/bin/../lib/gcc/nios2-elf/4.1.2/../../../../nios2-elf/lib\libc.a(lib_a-fclose.o)
                0x00009c7c                _fclose_r
                0x00009d8c                fclose
 .text          0x00009da0       0x74 d:/fpga/nios2eds/bin/gnu/h-i686-mingw32/bin/../lib/gcc/nios2-elf/4.1.2/../../../../nios2-elf/lib\libc.a(lib_a-fstatr.o)
                0x00009da0                _fstat_r
 .text          0x00009e14        0x0 d:/fpga/nios2eds/bin/gnu/h-i686-mingw32/bin/../lib/gcc/nios2-elf/4.1.2/../../../../nios2-elf/lib\libc.a(lib_a-int_errno.o)
 .text          0x00009e14       0x70 d:/fpga/nios2eds/bin/gnu/h-i686-mingw32/bin/../lib/gcc/nios2-elf/4.1.2/../../../../nios2-elf/lib\libc.a(lib_a-isattyr.o)
                0x00009e14                _isatty_r
 .text          0x00009e84       0x78 d:/fpga/nios2eds/bin/gnu/h-i686-mingw32/bin/../lib/gcc/nios2-elf/4.1.2/../../../../nios2-elf/lib\libc.a(lib_a-lseekr.o)
                0x00009e84                _lseek_r
 .text          0x00009efc       0x78 d:/fpga/nios2eds/bin/gnu/h-i686-mingw32/bin/../lib/gcc/nios2-elf/4.1.2/../../../../nios2-elf/lib\libc.a(lib_a-readr.o)
                0x00009efc                _read_r
 .text          0x00009f74      0x5dc d:/fpga/nios2eds/bin/gnu/h-i686-mingw32/bin/../lib/gcc/nios2-elf/4.1.2\libgcc.a(_udivdi3.o)
                0x00009f74                __udivdi3
 .text          0x0000a550      0x5b0 d:/fpga/nios2eds/bin/gnu/h-i686-mingw32/bin/../lib/gcc/nios2-elf/4.1.2\libgcc.a(_umoddi3.o)
                0x0000a550                __umoddi3
 .text          0x0000ab00      0x504 d:/fpga/nios2eds/bin/gnu/h-i686-mingw32/bin/../lib/gcc/nios2-elf/4.1.2\libgcc.a(_addsub_df.o)
                0x0000af10                __subdf3
                0x0000af90                __adddf3
 .text          0x0000b004      0x3c4 d:/fpga/nios2eds/bin/gnu/h-i686-mingw32/bin/../lib/gcc/nios2-elf/4.1.2\libgcc.a(_mul_df.o)
                0x0000b004                __muldf3
 .text          0x0000b3c8      0x258 d:/fpga/nios2eds/bin/gnu/h-i686-mingw32/bin/../lib/gcc/nios2-elf/4.1.2\libgcc.a(_div_df.o)
                0x0000b3c8                __divdf3
 .text          0x0000b620       0x88 d:/fpga/nios2eds/bin/gnu/h-i686-mingw32/bin/../lib/gcc/nios2-elf/4.1.2\libgcc.a(_eq_df.o)
                0x0000b620                __eqdf2
 .text          0x0000b6a8       0x88 d:/fpga/nios2eds/bin/gnu/h-i686-mingw32/bin/../lib/gcc/nios2-elf/4.1.2\libgcc.a(_ne_df.o)
                0x0000b6a8                __nedf2
 .text          0x0000b730       0x88 d:/fpga/nios2eds/bin/gnu/h-i686-mingw32/bin/../lib/gcc/nios2-elf/4.1.2\libgcc.a(_gt_df.o)
                0x0000b730                __gtdf2
 .text          0x0000b7b8       0x88 d:/fpga/nios2eds/bin/gnu/h-i686-mingw32/bin/../lib/gcc/nios2-elf/4.1.2\libgcc.a(_ge_df.o)
                0x0000b7b8                __gedf2
 .text          0x0000b840       0x88 d:/fpga/nios2eds/bin/gnu/h-i686-mingw32/bin/../lib/gcc/nios2-elf/4.1.2\libgcc.a(_lt_df.o)
                0x0000b840                __ltdf2
 .text          0x0000b8c8       0xf8 d:/fpga/nios2eds/bin/gnu/h-i686-mingw32/bin/../lib/gcc/nios2-elf/4.1.2\libgcc.a(_si_to_df.o)
                0x0000b8c8                __floatsidf
 .text          0x0000b9c0       0xd8 d:/fpga/nios2eds/bin/gnu/h-i686-mingw32/bin/../lib/gcc/nios2-elf/4.1.2\libgcc.a(_df_to_si.o)
                0x0000b9c0                __fixdfsi
 .text          0x0000ba98        0x0 d:/fpga/nios2eds/bin/gnu/h-i686-mingw32/bin/../lib/gcc/nios2-elf/4.1.2\libgcc.a(_thenan_df.o)
 .text          0x0000ba98      0x194 d:/fpga/nios2eds/bin/gnu/h-i686-mingw32/bin/../lib/gcc/nios2-elf/4.1.2\libgcc.a(_usi_to_df.o)
                0x0000ba98                __floatunsidf
 .text          0x0000bc2c      0x14c d:/fpga/nios2eds/bin/gnu/h-i686-mingw32/bin/../lib/gcc/nios2-elf/4.1.2\libgcc.a(lib2-divmod.o)
                0x0000bca8                __divsi3
                0x0000bd08                __modsi3
                0x0000bd68                __udivsi3
                0x0000bd70                __umodsi3
 .text          0x0000bd78       0x98 d:/fpga/nios2eds/bin/gnu/h-i686-mingw32/bin/../lib/gcc/nios2-elf/4.1.2\libgcc.a(_muldi3.o)
                0x0000bd78                __muldi3
 .text          0x0000be10      0x138 d:/fpga/nios2eds/bin/gnu/h-i686-mingw32/bin/../lib/gcc/nios2-elf/4.1.2\libgcc.a(_unpack_df.o)
                0x0000be10                __unpack_d
 .text          0x0000bf48       0xc8 d:/fpga/nios2eds/bin/gnu/h-i686-mingw32/bin/../lib/gcc/nios2-elf/4.1.2\libgcc.a(_fpcmp_parts_df.o)
                0x0000bf48                __fpcmp_parts_d
 .text          0x0000c010      0x15c ../Hardware_Denoise_bsp/\libhal_bsp.a(alt_close.o)
                0x0000c010                close
 .text          0x0000c16c       0x2c ../Hardware_Denoise_bsp/\libhal_bsp.a(alt_dev.o)
 .text          0x0000c198        0x0 ../Hardware_Denoise_bsp/\libhal_bsp.a(alt_errno.o)
 .text          0x0000c198      0x134 ../Hardware_Denoise_bsp/\libhal_bsp.a(alt_fstat.o)
                0x0000c198                fstat
 .text          0x0000c2cc      0x1c0 ../Hardware_Denoise_bsp/\libhal_bsp.a(alt_irq_register.o)
                0x0000c2cc                alt_irq_register
 .text          0x0000c48c        0x0 ../Hardware_Denoise_bsp/\libhal_bsp.a(alt_irq_vars.o)
 .text          0x0000c48c      0x120 ../Hardware_Denoise_bsp/\libhal_bsp.a(alt_isatty.o)
                0x0000c48c                isatty
 .text          0x0000c5ac       0xec ../Hardware_Denoise_bsp/\libhal_bsp.a(alt_load.o)
                0x0000c5ac                alt_load
 .text          0x0000c698      0x150 ../Hardware_Denoise_bsp/\libhal_bsp.a(alt_lseek.o)
                0x0000c698                lseek
 .text          0x0000c7e8       0x6c ../Hardware_Denoise_bsp/\libhal_bsp.a(alt_main.o)
                0x0000c7e8                alt_main
 .text          0x0000c854       0x40 ../Hardware_Denoise_bsp/\libhal_bsp.a(alt_malloc_lock.o)
                0x0000c854                __malloc_lock
                0x0000c874                __malloc_unlock
 .text          0x0000c894      0x258 ../Hardware_Denoise_bsp/\libhal_bsp.a(alt_printf.o)
                0x0000c894                alt_printf
 .text          0x0000caec       0x40 ../Hardware_Denoise_bsp/\libhal_bsp.a(alt_putchar.o)
                0x0000caec                alt_putchar
 .text          0x0000cb2c      0x180 ../Hardware_Denoise_bsp/\libhal_bsp.a(alt_read.o)
                0x0000cb2c                read
 .text          0x0000ccac       0x60 ../Hardware_Denoise_bsp/\libhal_bsp.a(alt_release_fd.o)
                0x0000ccac                alt_release_fd
 .text          0x0000cd0c       0xbc ../Hardware_Denoise_bsp/\libhal_bsp.a(alt_sbrk.o)
                0x0000cd0c                sbrk
 .text          0x0000cdc8      0x180 ../Hardware_Denoise_bsp/\libhal_bsp.a(alt_write.o)
                0x0000cdc8                write
 .text          0x0000cf48      0x47c ../Hardware_Denoise_bsp/\libhal_bsp.a(alt_sys_init.o)
                0x0000cf48                alt_irq_init
                0x0000cf7c                alt_sys_init
 .text          0x0000d3c4      0x148 ../Hardware_Denoise_bsp/\libhal_bsp.a(altera_avalon_jtag_uart_fd.o)
                0x0000d3c4                altera_avalon_jtag_uart_read_fd
                0x0000d41c                altera_avalon_jtag_uart_write_fd
                0x0000d474                altera_avalon_jtag_uart_close_fd
                0x0000d4bc                altera_avalon_jtag_uart_ioctl_fd
 .text          0x0000d50c      0x408 ../Hardware_Denoise_bsp/\libhal_bsp.a(altera_avalon_jtag_uart_init.o)
                0x0000d50c                altera_avalon_jtag_uart_init
                0x0000d8a0                altera_avalon_jtag_uart_close
 .text          0x0000d914       0xf4 ../Hardware_Denoise_bsp/\libhal_bsp.a(altera_avalon_jtag_uart_ioctl.o)
                0x0000d914                altera_avalon_jtag_uart_ioctl
 .text          0x0000da08      0x224 ../Hardware_Denoise_bsp/\libhal_bsp.a(altera_avalon_jtag_uart_read.o)
                0x0000da08                altera_avalon_jtag_uart_read
 .text          0x0000dc2c      0x240 ../Hardware_Denoise_bsp/\libhal_bsp.a(altera_avalon_jtag_uart_write.o)
                0x0000dc2c                altera_avalon_jtag_uart_write
 .text          0x0000de6c      0x168 ../Hardware_Denoise_bsp/\libhal_bsp.a(altera_avalon_timer_ts.o)
                0x0000de6c                alt_timestamp_start
                0x0000df10                alt_timestamp
                0x0000dfac                alt_timestamp_freq
 .text          0x0000dfd4        0x0 ../Hardware_Denoise_bsp/\libhal_bsp.a(altera_avalon_timer_vars.o)
 .text          0x0000dfd4      0x80c ../Hardware_Denoise_bsp/\libhal_bsp.a(altera_up_avalon_audio.o)
                0x0000dfd4                alt_up_audio_open_dev
                0x0000e014                alt_up_audio_enable_read_interrupt
                0x0000e060                alt_up_audio_disable_read_interrupt
                0x0000e0b0                alt_up_audio_enable_write_interrupt
                0x0000e0fc                alt_up_audio_disable_write_interrupt
                0x0000e14c                alt_up_audio_read_interrupt_pending
                0x0000e188                alt_up_audio_write_interrupt_pending
                0x0000e1c4                alt_up_audio_reset_audio_core
                0x0000e24c                alt_up_audio_read_fifo_avail
                0x0000e2bc                alt_up_audio_record_r
                0x0000e32c                alt_up_audio_record_l
                0x0000e39c                alt_up_audio_write_fifo_space
                0x0000e410                alt_up_audio_play_r
                0x0000e480                alt_up_audio_play_l
                0x0000e4f0                alt_up_audio_read_fifo
                0x0000e5f4                alt_up_audio_write_fifo
                0x0000e720                alt_up_audio_read_fifo_head
                0x0000e780                alt_up_audio_write_fifo_head
 .text          0x0000e7e0      0x530 ../Hardware_Denoise_bsp/\libhal_bsp.a(altera_up_avalon_character_lcd.o)
                0x0000e7e0                get_DDRAM_addr
                0x0000e85c                alt_up_character_lcd_send_cmd
                0x0000e890                alt_up_character_lcd_init
                0x0000e8c4                alt_up_character_lcd_open_dev
                0x0000e904                alt_up_character_lcd_write
                0x0000e97c                alt_up_character_lcd_string
                0x0000e9f4                alt_up_character_lcd_write_fd
                0x0000ea40                alt_up_character_lcd_set_cursor_pos
                0x0000eab8                alt_up_character_lcd_shift_cursor
                0x0000eb68                alt_up_character_lcd_shift_display
                0x0000ec18                alt_up_character_lcd_erase_pos
                0x0000eca8                alt_up_character_lcd_cursor_off
                0x0000ecdc                alt_up_character_lcd_cursor_blink_on
 .text          0x0000ed10      0x150 ../Hardware_Denoise_bsp/\libhal_bsp.a(altera_up_avalon_ethernet.o)
                0x0000ed10                alt_up_ethernet_init
                0x0000ee20                alt_up_ethernet_open_dev
 .text          0x0000ee60      0x238 ../Hardware_Denoise_bsp/\libhal_bsp.a(altera_up_avalon_ethernet_low_level_driver.o)
                0x0000ee60                alt_up_ethernet_reg_read
                0x0000ee9c                alt_up_ethernet_reg_write
                0x0000eee0                alt_up_ethernet_phy_reg_read
                0x0000efc0                alt_up_ethernet_phy_reg_write
 .text          0x0000f098      0x394 ../Hardware_Denoise_bsp/\libhal_bsp.a(altera_up_avalon_irda.o)
                0x0000f098                alt_up_irda_enable_read_interrupt
                0x0000f0ec                alt_up_irda_disable_read_interrupt
                0x0000f144                alt_up_irda_get_used_space_in_read_FIFO
                0x0000f180                alt_up_irda_get_available_space_in_write_FIFO
                0x0000f1c0                alt_up_irda_check_parity
                0x0000f210                alt_up_irda_write_data
                0x0000f258                alt_up_irda_read_data
                0x0000f2cc                alt_up_irda_read_fd
                0x0000f35c                alt_up_irda_write_fd
                0x0000f3ec                alt_up_irda_open_dev
 .text          0x0000f42c       0x40 ../Hardware_Denoise_bsp/\libhal_bsp.a(altera_up_avalon_parallel_port.o)
                0x0000f42c                alt_up_parallel_port_open_dev
 .text          0x0000f46c      0x700 ../Hardware_Denoise_bsp/\libhal_bsp.a(altera_up_avalon_ps2.o)
                0x0000f46c                read_RI_bit
                0x0000f4a0                read_RE_bit
                0x0000f4d0                read_CE_bit
                0x0000f504                read_num_bytes_available
                0x0000f538                read_data_valid
                0x0000f56c                read_data_byte
                0x0000f598                alt_up_ps2_init
                0x0000f664                alt_up_ps2_enable_read_interrupt
                0x0000f6b8                alt_up_ps2_disable_read_interrupt
                0x0000f710                alt_up_ps2_write_data_byte
                0x0000f788                alt_up_ps2_wait_for_ack
                0x0000f7f8                alt_up_ps2_write_data_byte_with_ack
                0x0000f864                alt_up_ps2_read_data_byte_timeout
                0x0000f914                alt_up_ps2_read_data_byte
                0x0000f990                alt_up_ps2_clear_fifo
                0x0000f9e8                alt_up_ps2_read_fd
                0x0000fa84                alt_up_ps2_write_fd
                0x0000fb2c                alt_up_ps2_open_dev
 .text          0x0000fb6c      0x398 ../Hardware_Denoise_bsp/\libhal_bsp.a(altera_up_avalon_rs232.o)
                0x0000fb6c                alt_up_rs232_enable_read_interrupt
                0x0000fbc0                alt_up_rs232_disable_read_interrupt
                0x0000fc18                alt_up_rs232_get_used_space_in_read_FIFO
                0x0000fc54                alt_up_rs232_get_available_space_in_write_FIFO
                0x0000fc94                alt_up_rs232_check_parity
                0x0000fce4                alt_up_rs232_write_data
                0x0000fd2c                alt_up_rs232_read_data
                0x0000fda0                alt_up_rs232_read_fd
                0x0000fe30                alt_up_rs232_write_fd
                0x0000fec4                alt_up_rs232_open_dev
 .text          0x0000ff04      0x304 ../Hardware_Denoise_bsp/\libhal_bsp.a(altera_up_avalon_video_character_buffer_with_dma.o)
                0x0000ff04                alt_up_char_buffer_init
                0x0000ff88                alt_up_char_buffer_open_dev
                0x0000ffc8                alt_up_char_buffer_draw
                0x00010098                alt_up_char_buffer_string
                0x000101ac                alt_up_char_buffer_clear
 .text          0x00010208     0x156c ../Hardware_Denoise_bsp/\libhal_bsp.a(altera_up_avalon_video_pixel_buffer_dma.o)
                0x00010208                alt_up_pixel_buffer_dma_open_dev
                0x00010248                alt_up_pixel_buffer_dma_draw
                0x000103e8                alt_up_pixel_buffer_dma_change_back_buffer_address
                0x00010440                alt_up_pixel_buffer_dma_swap_buffers
                0x00010498                alt_up_pixel_buffer_dma_check_swap_buffers_status
                0x000104cc                alt_up_pixel_buffer_dma_clear_screen
                0x00010630                alt_up_pixel_buffer_dma_draw_box
                0x00010b24                alt_up_pixel_buffer_dma_draw_hline
                0x00010e74                alt_up_pixel_buffer_dma_draw_vline
                0x00011244                alt_up_pixel_buffer_dma_draw_rectangle
                0x00011308                helper_plot_pixel
                0x000113d8                alt_up_pixel_buffer_dma_draw_line
 .text          0x00011774      0x154 ../Hardware_Denoise_bsp/\libhal_bsp.a(alt_alarm_start.o)
                0x00011774                alt_alarm_start
 .text          0x000118c8       0x1c ../Hardware_Denoise_bsp/\libhal_bsp.a(alt_dcache_flush_all.o)
                0x000118c8                alt_dcache_flush_all
 .text          0x000118e4      0x114 ../Hardware_Denoise_bsp/\libhal_bsp.a(alt_dev_llist_insert.o)
                0x000118e4                alt_dev_llist_insert
 .text          0x000119f8       0x64 ../Hardware_Denoise_bsp/\libhal_bsp.a(alt_do_ctors.o)
                0x000119f8                _do_ctors
 .text          0x00011a5c       0x64 ../Hardware_Denoise_bsp/\libhal_bsp.a(alt_do_dtors.o)
                0x00011a5c                _do_dtors
 .text          0x00011ac0       0x94 ../Hardware_Denoise_bsp/\libhal_bsp.a(alt_find_dev.o)
                0x00011ac0                alt_find_dev
 .text          0x00011b54       0x30 ../Hardware_Denoise_bsp/\libhal_bsp.a(alt_icache_flush_all.o)
                0x00011b54                alt_icache_flush_all
 .text          0x00011b84      0x13c ../Hardware_Denoise_bsp/\libhal_bsp.a(alt_io_redirect.o)
                0x00011c48                alt_io_redirect
 .text          0x00011cc0        0x0 ../Hardware_Denoise_bsp/\libhal_bsp.a(alt_irq_entry.o)
 .text          0x00011cc0        0x0 ../Hardware_Denoise_bsp/\libhal_bsp.a(alt_irq_handler.o)
 .text          0x00011cc0      0x2c4 ../Hardware_Denoise_bsp/\libhal_bsp.a(alt_open.o)
                0x00011d9c                open
 .text          0x00011f84      0x1a4 ../Hardware_Denoise_bsp/\libhal_bsp.a(alt_tick.o)
                0x00011f84                alt_alarm_stop
                0x0001201c                alt_tick
 .text          0x00012128       0x30 ../Hardware_Denoise_bsp/\libhal_bsp.a(alt_usleep.o)
                0x00012128                usleep
 .text          0x00012158       0x20 ../Hardware_Denoise_bsp/\libhal_bsp.a(altera_nios2_qsys_irq.o)
                0x00012158                altera_nios2_qsys_irq_init
 .text          0x00012178      0x12c ../Hardware_Denoise_bsp/\libhal_bsp.a(alt_busy_sleep.o)
                0x00012178                alt_busy_sleep
 .text          0x000122a4        0x0 ../Hardware_Denoise_bsp/\libhal_bsp.a(alt_exception_entry.o)
 .text          0x000122a4      0x120 ../Hardware_Denoise_bsp/\libhal_bsp.a(alt_find_file.o)
                0x000122a4                alt_find_file
 .text          0x000123c4       0xb8 ../Hardware_Denoise_bsp/\libhal_bsp.a(alt_get_fd.o)
                0x000123c4                alt_get_fd
 .text          0x0001247c       0x90 ../Hardware_Denoise_bsp/\libhal_bsp.a(alt_icache_flush.o)
                0x0001247c                alt_icache_flush
 .text          0x0001250c       0x14 d:/fpga/nios2eds/bin/gnu/h-i686-mingw32/bin/../lib/gcc/nios2-elf/4.1.2/../../../../nios2-elf/lib\libc.a(lib_a-atexit.o)
                0x0001250c                atexit
 .text          0x00012520       0x38 d:/fpga/nios2eds/bin/gnu/h-i686-mingw32/bin/../lib/gcc/nios2-elf/4.1.2/../../../../nios2-elf/lib\libc.a(lib_a-exit.o)
                0x00012520                exit
 .text          0x00012558       0x74 d:/fpga/nios2eds/bin/gnu/h-i686-mingw32/bin/../lib/gcc/nios2-elf/4.1.2/../../../../nios2-elf/lib\libc.a(lib_a-memcmp.o)
                0x00012558                memcmp
 .text          0x000125cc      0x1ec d:/fpga/nios2eds/bin/gnu/h-i686-mingw32/bin/../lib/gcc/nios2-elf/4.1.2/../../../../nios2-elf/lib\libc.a(lib_a-putc.o)
                0x000125cc                putc
                0x000126d0                _putc_r
 .text          0x000127b8      0x14c d:/fpga/nios2eds/bin/gnu/h-i686-mingw32/bin/../lib/gcc/nios2-elf/4.1.2/../../../../nios2-elf/lib\libc.a(lib_a-wbuf.o)
                0x000127b8                __swbuf_r
                0x000128e8                __swbuf
 .text          0x00012904      0x134 d:/fpga/nios2eds/bin/gnu/h-i686-mingw32/bin/../lib/gcc/nios2-elf/4.1.2/../../../../nios2-elf/lib\libc.a(lib_a-__atexit.o)
                0x00012904                __register_exitproc
 .text          0x00012a38      0x1b4 d:/fpga/nios2eds/bin/gnu/h-i686-mingw32/bin/../lib/gcc/nios2-elf/4.1.2/../../../../nios2-elf/lib\libc.a(lib_a-__call_atexit.o)
                0x00012a3c                __call_exitprocs
 .text          0x00012bec       0x60 ../Hardware_Denoise_bsp/\libhal_bsp.a(alt_exit.o)
                0x00012c2c                _exit
 *(.gnu.warning.*)
 *(.fini)
                0x00012c4c                PROVIDE (__etext, ABSOLUTE (.))
                0x00012c4c                PROVIDE (_etext, ABSOLUTE (.))
                0x00012c4c                PROVIDE (etext, ABSOLUTE (.))
 *(.eh_frame_hdr)
                0x00012c4c                . = ALIGN (0x4)
                0x00012c4c                PROVIDE (__preinit_array_start, ABSOLUTE (.))
 *(.preinit_array)
                0x00012c4c                PROVIDE (__preinit_array_end, ABSOLUTE (.))
                0x00012c4c                PROVIDE (__init_array_start, ABSOLUTE (.))
 *(.init_array)
                0x00012c4c                PROVIDE (__init_array_end, ABSOLUTE (.))
                0x00012c4c                PROVIDE (__fini_array_start, ABSOLUTE (.))
 *(.fini_array)
                0x00012c4c                PROVIDE (__fini_array_end, ABSOLUTE (.))
 *(.eh_frame)
 *(.gcc_except_table)
 *(.dynamic)
                0x00012c4c                PROVIDE (__CTOR_LIST__, ABSOLUTE (.))
 *(.ctors)
 *(SORT(.ctors.*))
 .ctors.65535   0x00012c4c        0x4 d:/fpga/nios2eds/bin/gnu/h-i686-mingw32/bin/../lib/gcc/nios2-elf/4.1.2/../../../../nios2-elf/lib\libc.a(lib_a-__call_atexit.o)
                0x00012c50                PROVIDE (__CTOR_END__, ABSOLUTE (.))
                0x00012c50                PROVIDE (__DTOR_LIST__, ABSOLUTE (.))
 *(.dtors)
 *(SORT(.dtors.*))
                0x00012c50                PROVIDE (__DTOR_END__, ABSOLUTE (.))
 *(.jcr)
                0x00012c50                . = ALIGN (0x4)

.rodata         0x00012c50      0x890
                0x00012c50                PROVIDE (__ram_rodata_start, ABSOLUTE (.))
                0x00012c50                . = ALIGN (0x4)
 *(.rodata .rodata.* .gnu.linkonce.r.*)
 .rodata        0x00012c50       0x10 obj/default/audio_ISR.o
 .rodata        0x00012c60      0x3c0 obj/default/media_interrupt_HAL.o
 .rodata        0x00013020      0x100 d:/fpga/nios2eds/bin/gnu/h-i686-mingw32/bin/../lib/gcc/nios2-elf/4.1.2\libgcc.a(_clz.o)
                0x00013020                __clz_tab
 .rodata.str1.4
                0x00013120       0x5e d:/fpga/nios2eds/bin/gnu/h-i686-mingw32/bin/../lib/gcc/nios2-elf/4.1.2/../../../../nios2-elf/lib\libc.a(lib_a-vfprintf.o)
                                 0x60 (size before relaxing)
 .rodata        0x0001317e       0x20 d:/fpga/nios2eds/bin/gnu/h-i686-mingw32/bin/../lib/gcc/nios2-elf/4.1.2/../../../../nios2-elf/lib\libc.a(lib_a-vfprintf.o)
 *fill*         0x0001319e        0x2 00
 .rodata.str1.4
                0x000131a0       0x10 d:/fpga/nios2eds/bin/gnu/h-i686-mingw32/bin/../lib/gcc/nios2-elf/4.1.2/../../../../nios2-elf/lib\libc.a(lib_a-dtoa.o)
                                 0x14 (size before relaxing)
 .rodata.str1.4
                0x000131b0        0x2 d:/fpga/nios2eds/bin/gnu/h-i686-mingw32/bin/../lib/gcc/nios2-elf/4.1.2/../../../../nios2-elf/lib\libc.a(lib_a-impure.o)
                                  0x4 (size before relaxing)
 *fill*         0x000131b2        0x2 00
 .rodata.str1.4
                0x000131b4       0x10 d:/fpga/nios2eds/bin/gnu/h-i686-mingw32/bin/../lib/gcc/nios2-elf/4.1.2/../../../../nios2-elf/lib\libc.a(lib_a-locale.o)
                                 0x18 (size before relaxing)
 .rodata        0x000131c4       0x30 d:/fpga/nios2eds/bin/gnu/h-i686-mingw32/bin/../lib/gcc/nios2-elf/4.1.2/../../../../nios2-elf/lib\libc.a(lib_a-locale.o)
 .rodata        0x000131f4      0x124 d:/fpga/nios2eds/bin/gnu/h-i686-mingw32/bin/../lib/gcc/nios2-elf/4.1.2/../../../../nios2-elf/lib\libc.a(lib_a-mprec.o)
                0x000131f4                __mprec_tens
                0x000132bc                __mprec_bigtens
                0x000132e4                __mprec_tinytens
 .rodata        0x00013318       0x14 d:/fpga/nios2eds/bin/gnu/h-i686-mingw32/bin/../lib/gcc/nios2-elf/4.1.2\libgcc.a(_thenan_df.o)
                0x00013318                __thenan_df
 .rodata        0x0001332c        0xc ../Hardware_Denoise_bsp/\libhal_bsp.a(alt_dev.o)
 .rodata        0x00013338       0x10 ../Hardware_Denoise_bsp/\libhal_bsp.a(alt_main.o)
 .rodata        0x00013348      0x17c ../Hardware_Denoise_bsp/\libhal_bsp.a(alt_sys_init.o)
 .rodata        0x000134c4       0x1c ../Hardware_Denoise_bsp/\libhal_bsp.a(altera_up_avalon_video_character_buffer_with_dma.o)
 *(.rodata1)
                0x000134e0                . = ALIGN (0x4)
                0x000134e0                PROVIDE (__ram_rodata_end, ABSOLUTE (.))
                0x00012c50                PROVIDE (__flash_rodata_start, LOADADDR (.rodata))

.rwdata         0x000134e0     0x1f14 load address 0x000153f4
                0x000134e0                PROVIDE (__ram_rwdata_start, ABSOLUTE (.))
                0x000134e0                . = ALIGN (0x4)
 *(.got.plt)
 *(.got)
 *(.data1)
 *(.data .data.* .gnu.linkonce.d.*)
 .data          0x000134e0        0x0 ../Hardware_Denoise_bsp//obj/HAL/src/crt0.o
 .data          0x000134e0        0x0 obj/default/PS2_ISR.o
 .data          0x000134e0        0x0 obj/default/audio_ISR.o
 .data          0x000134e0        0x0 obj/default/globals.o
 .data          0x000134e0        0x0 obj/default/interval_timer_ISR.o
 .data          0x000134e0      0x100 obj/default/media_interrupt_HAL.o
                0x000134e0                denoise_filter_coefficients
 .data          0x000135e0        0x0 obj/default/pushbutton_ISR.o
 .data          0x000135e0        0x0 d:/fpga/nios2eds/bin/gnu/h-i686-mingw32/bin/../lib/gcc/nios2-elf/4.1.2\libgcc.a(_si_to_sf.o)
 .data          0x000135e0        0x0 d:/fpga/nios2eds/bin/gnu/h-i686-mingw32/bin/../lib/gcc/nios2-elf/4.1.2\libgcc.a(_sf_to_si.o)
 .data          0x000135e0        0x0 d:/fpga/nios2eds/bin/gnu/h-i686-mingw32/bin/../lib/gcc/nios2-elf/4.1.2\libgcc.a(_sf_to_df.o)
 .data          0x000135e0        0x0 d:/fpga/nios2eds/bin/gnu/h-i686-mingw32/bin/../lib/gcc/nios2-elf/4.1.2\libgcc.a(_usi_to_sf.o)
 .data          0x000135e0        0x0 d:/fpga/nios2eds/bin/gnu/h-i686-mingw32/bin/../lib/gcc/nios2-elf/4.1.2\libgcc.a(_make_df.o)
 .data          0x000135e0        0x0 d:/fpga/nios2eds/bin/gnu/h-i686-mingw32/bin/../lib/gcc/nios2-elf/4.1.2\libgcc.a(_clzsi2.o)
 .data          0x000135e0        0x0 d:/fpga/nios2eds/bin/gnu/h-i686-mingw32/bin/../lib/gcc/nios2-elf/4.1.2\libgcc.a(_pack_sf.o)
 .data          0x000135e0        0x0 d:/fpga/nios2eds/bin/gnu/h-i686-mingw32/bin/../lib/gcc/nios2-elf/4.1.2\libgcc.a(_unpack_sf.o)
 .data          0x000135e0        0x0 d:/fpga/nios2eds/bin/gnu/h-i686-mingw32/bin/../lib/gcc/nios2-elf/4.1.2\libgcc.a(_pack_df.o)
 .data          0x000135e0        0x0 d:/fpga/nios2eds/bin/gnu/h-i686-mingw32/bin/../lib/gcc/nios2-elf/4.1.2\libgcc.a(_clz.o)
 .data          0x000135e0        0x0 d:/fpga/nios2eds/bin/gnu/h-i686-mingw32/bin/../lib/gcc/nios2-elf/4.1.2/../../../../nios2-elf/lib\libc.a(lib_a-memcpy.o)
 .data          0x000135e0        0x0 d:/fpga/nios2eds/bin/gnu/h-i686-mingw32/bin/../lib/gcc/nios2-elf/4.1.2/../../../../nios2-elf/lib\libc.a(lib_a-memset.o)
 .data          0x000135e0        0x0 d:/fpga/nios2eds/bin/gnu/h-i686-mingw32/bin/../lib/gcc/nios2-elf/4.1.2/../../../../nios2-elf/lib\libc.a(lib_a-printf.o)
 .data          0x000135e0        0x0 d:/fpga/nios2eds/bin/gnu/h-i686-mingw32/bin/../lib/gcc/nios2-elf/4.1.2/../../../../nios2-elf/lib\libc.a(lib_a-vfprintf.o)
 .data          0x000135e0        0x0 d:/fpga/nios2eds/bin/gnu/h-i686-mingw32/bin/../lib/gcc/nios2-elf/4.1.2/../../../../nios2-elf/lib\libc.a(lib_a-wsetup.o)
 .data          0x000135e0        0x0 d:/fpga/nios2eds/bin/gnu/h-i686-mingw32/bin/../lib/gcc/nios2-elf/4.1.2/../../../../nios2-elf/lib\libc.a(lib_a-dtoa.o)
 .data          0x000135e0        0x0 d:/fpga/nios2eds/bin/gnu/h-i686-mingw32/bin/../lib/gcc/nios2-elf/4.1.2/../../../../nios2-elf/lib\libc.a(lib_a-fflush.o)
 .data          0x000135e0        0x0 d:/fpga/nios2eds/bin/gnu/h-i686-mingw32/bin/../lib/gcc/nios2-elf/4.1.2/../../../../nios2-elf/lib\libc.a(lib_a-findfp.o)
 .data          0x000135e0        0x0 d:/fpga/nios2eds/bin/gnu/h-i686-mingw32/bin/../lib/gcc/nios2-elf/4.1.2/../../../../nios2-elf/lib\libc.a(lib_a-freer.o)
 .data          0x000135e0        0x0 d:/fpga/nios2eds/bin/gnu/h-i686-mingw32/bin/../lib/gcc/nios2-elf/4.1.2/../../../../nios2-elf/lib\libc.a(lib_a-fvwrite.o)
 .data          0x000135e0        0x0 d:/fpga/nios2eds/bin/gnu/h-i686-mingw32/bin/../lib/gcc/nios2-elf/4.1.2/../../../../nios2-elf/lib\libc.a(lib_a-fwalk.o)
 .data          0x000135e0      0x400 d:/fpga/nios2eds/bin/gnu/h-i686-mingw32/bin/../lib/gcc/nios2-elf/4.1.2/../../../../nios2-elf/lib\libc.a(lib_a-impure.o)
 .data          0x000139e0        0xc d:/fpga/nios2eds/bin/gnu/h-i686-mingw32/bin/../lib/gcc/nios2-elf/4.1.2/../../../../nios2-elf/lib\libc.a(lib_a-locale.o)
                0x000139e0                __lc_ctype
 .data          0x000139ec        0x0 d:/fpga/nios2eds/bin/gnu/h-i686-mingw32/bin/../lib/gcc/nios2-elf/4.1.2/../../../../nios2-elf/lib\libc.a(lib_a-makebuf.o)
 .data          0x000139ec      0x408 d:/fpga/nios2eds/bin/gnu/h-i686-mingw32/bin/../lib/gcc/nios2-elf/4.1.2/../../../../nios2-elf/lib\libc.a(lib_a-mallocr.o)
                0x000139ec                __malloc_av_
 .data          0x00013df4        0x0 d:/fpga/nios2eds/bin/gnu/h-i686-mingw32/bin/../lib/gcc/nios2-elf/4.1.2/../../../../nios2-elf/lib\libc.a(lib_a-memchr.o)
 .data          0x00013df4        0x0 d:/fpga/nios2eds/bin/gnu/h-i686-mingw32/bin/../lib/gcc/nios2-elf/4.1.2/../../../../nios2-elf/lib\libc.a(lib_a-memmove.o)
 .data          0x00013df4        0x0 d:/fpga/nios2eds/bin/gnu/h-i686-mingw32/bin/../lib/gcc/nios2-elf/4.1.2/../../../../nios2-elf/lib\libc.a(lib_a-mprec.o)
 .data          0x00013df4        0x0 d:/fpga/nios2eds/bin/gnu/h-i686-mingw32/bin/../lib/gcc/nios2-elf/4.1.2/../../../../nios2-elf/lib\libc.a(lib_a-reallocr.o)
 .data          0x00013df4        0x0 d:/fpga/nios2eds/bin/gnu/h-i686-mingw32/bin/../lib/gcc/nios2-elf/4.1.2/../../../../nios2-elf/lib\libc.a(lib_a-s_isinfd.o)
 .data          0x00013df4        0x0 d:/fpga/nios2eds/bin/gnu/h-i686-mingw32/bin/../lib/gcc/nios2-elf/4.1.2/../../../../nios2-elf/lib\libc.a(lib_a-s_isnand.o)
 .data          0x00013df4        0x0 d:/fpga/nios2eds/bin/gnu/h-i686-mingw32/bin/../lib/gcc/nios2-elf/4.1.2/../../../../nios2-elf/lib\libc.a(lib_a-sbrkr.o)
 .data          0x00013df4        0x0 d:/fpga/nios2eds/bin/gnu/h-i686-mingw32/bin/../lib/gcc/nios2-elf/4.1.2/../../../../nios2-elf/lib\libc.a(lib_a-stdio.o)
 .data          0x00013df4        0x0 d:/fpga/nios2eds/bin/gnu/h-i686-mingw32/bin/../lib/gcc/nios2-elf/4.1.2/../../../../nios2-elf/lib\libc.a(lib_a-strcmp.o)
 .data          0x00013df4        0x0 d:/fpga/nios2eds/bin/gnu/h-i686-mingw32/bin/../lib/gcc/nios2-elf/4.1.2/../../../../nios2-elf/lib\libc.a(lib_a-strlen.o)
 .data          0x00013df4        0x0 d:/fpga/nios2eds/bin/gnu/h-i686-mingw32/bin/../lib/gcc/nios2-elf/4.1.2/../../../../nios2-elf/lib\libc.a(lib_a-writer.o)
 .data          0x00013df4        0x0 d:/fpga/nios2eds/bin/gnu/h-i686-mingw32/bin/../lib/gcc/nios2-elf/4.1.2/../../../../nios2-elf/lib\libc.a(lib_a-callocr.o)
 .data          0x00013df4        0x0 d:/fpga/nios2eds/bin/gnu/h-i686-mingw32/bin/../lib/gcc/nios2-elf/4.1.2/../../../../nios2-elf/lib\libc.a(lib_a-closer.o)
 .data          0x00013df4        0x0 d:/fpga/nios2eds/bin/gnu/h-i686-mingw32/bin/../lib/gcc/nios2-elf/4.1.2/../../../../nios2-elf/lib\libc.a(lib_a-fclose.o)
 .data          0x00013df4        0x0 d:/fpga/nios2eds/bin/gnu/h-i686-mingw32/bin/../lib/gcc/nios2-elf/4.1.2/../../../../nios2-elf/lib\libc.a(lib_a-fstatr.o)
 .data          0x00013df4        0x0 d:/fpga/nios2eds/bin/gnu/h-i686-mingw32/bin/../lib/gcc/nios2-elf/4.1.2/../../../../nios2-elf/lib\libc.a(lib_a-int_errno.o)
 .data          0x00013df4        0x0 d:/fpga/nios2eds/bin/gnu/h-i686-mingw32/bin/../lib/gcc/nios2-elf/4.1.2/../../../../nios2-elf/lib\libc.a(lib_a-isattyr.o)
 .data          0x00013df4        0x0 d:/fpga/nios2eds/bin/gnu/h-i686-mingw32/bin/../lib/gcc/nios2-elf/4.1.2/../../../../nios2-elf/lib\libc.a(lib_a-lseekr.o)
 .data          0x00013df4        0x0 d:/fpga/nios2eds/bin/gnu/h-i686-mingw32/bin/../lib/gcc/nios2-elf/4.1.2/../../../../nios2-elf/lib\libc.a(lib_a-readr.o)
 .data          0x00013df4        0x0 d:/fpga/nios2eds/bin/gnu/h-i686-mingw32/bin/../lib/gcc/nios2-elf/4.1.2\libgcc.a(_udivdi3.o)
 .data          0x00013df4        0x0 d:/fpga/nios2eds/bin/gnu/h-i686-mingw32/bin/../lib/gcc/nios2-elf/4.1.2\libgcc.a(_umoddi3.o)
 .data          0x00013df4        0x0 d:/fpga/nios2eds/bin/gnu/h-i686-mingw32/bin/../lib/gcc/nios2-elf/4.1.2\libgcc.a(_addsub_df.o)
 .data          0x00013df4        0x0 d:/fpga/nios2eds/bin/gnu/h-i686-mingw32/bin/../lib/gcc/nios2-elf/4.1.2\libgcc.a(_mul_df.o)
 .data          0x00013df4        0x0 d:/fpga/nios2eds/bin/gnu/h-i686-mingw32/bin/../lib/gcc/nios2-elf/4.1.2\libgcc.a(_div_df.o)
 .data          0x00013df4        0x0 d:/fpga/nios2eds/bin/gnu/h-i686-mingw32/bin/../lib/gcc/nios2-elf/4.1.2\libgcc.a(_eq_df.o)
 .data          0x00013df4        0x0 d:/fpga/nios2eds/bin/gnu/h-i686-mingw32/bin/../lib/gcc/nios2-elf/4.1.2\libgcc.a(_ne_df.o)
 .data          0x00013df4        0x0 d:/fpga/nios2eds/bin/gnu/h-i686-mingw32/bin/../lib/gcc/nios2-elf/4.1.2\libgcc.a(_gt_df.o)
 .data          0x00013df4        0x0 d:/fpga/nios2eds/bin/gnu/h-i686-mingw32/bin/../lib/gcc/nios2-elf/4.1.2\libgcc.a(_ge_df.o)
 .data          0x00013df4        0x0 d:/fpga/nios2eds/bin/gnu/h-i686-mingw32/bin/../lib/gcc/nios2-elf/4.1.2\libgcc.a(_lt_df.o)
 .data          0x00013df4        0x0 d:/fpga/nios2eds/bin/gnu/h-i686-mingw32/bin/../lib/gcc/nios2-elf/4.1.2\libgcc.a(_si_to_df.o)
 .data          0x00013df4        0x0 d:/fpga/nios2eds/bin/gnu/h-i686-mingw32/bin/../lib/gcc/nios2-elf/4.1.2\libgcc.a(_df_to_si.o)
 .data          0x00013df4        0x0 d:/fpga/nios2eds/bin/gnu/h-i686-mingw32/bin/../lib/gcc/nios2-elf/4.1.2\libgcc.a(_thenan_df.o)
 .data          0x00013df4        0x0 d:/fpga/nios2eds/bin/gnu/h-i686-mingw32/bin/../lib/gcc/nios2-elf/4.1.2\libgcc.a(_usi_to_df.o)
 .data          0x00013df4        0x0 d:/fpga/nios2eds/bin/gnu/h-i686-mingw32/bin/../lib/gcc/nios2-elf/4.1.2\libgcc.a(lib2-divmod.o)
 .data          0x00013df4        0x0 d:/fpga/nios2eds/bin/gnu/h-i686-mingw32/bin/../lib/gcc/nios2-elf/4.1.2\libgcc.a(_muldi3.o)
 .data          0x00013df4        0x0 d:/fpga/nios2eds/bin/gnu/h-i686-mingw32/bin/../lib/gcc/nios2-elf/4.1.2\libgcc.a(_unpack_df.o)
 .data          0x00013df4        0x0 d:/fpga/nios2eds/bin/gnu/h-i686-mingw32/bin/../lib/gcc/nios2-elf/4.1.2\libgcc.a(_fpcmp_parts_df.o)
 .data          0x00013df4        0x0 ../Hardware_Denoise_bsp/\libhal_bsp.a(alt_close.o)
 .data          0x00013df4      0x1a8 ../Hardware_Denoise_bsp/\libhal_bsp.a(alt_dev.o)
                0x00013df4                alt_dev_null
                0x00013e1c                alt_fd_list
 .data          0x00013f9c        0x0 ../Hardware_Denoise_bsp/\libhal_bsp.a(alt_errno.o)
 .data          0x00013f9c        0x0 ../Hardware_Denoise_bsp/\libhal_bsp.a(alt_fstat.o)
 .data          0x00013f9c        0x0 ../Hardware_Denoise_bsp/\libhal_bsp.a(alt_irq_register.o)
 .data          0x00013f9c        0x0 ../Hardware_Denoise_bsp/\libhal_bsp.a(alt_irq_vars.o)
 .data          0x00013f9c        0x0 ../Hardware_Denoise_bsp/\libhal_bsp.a(alt_isatty.o)
 .data          0x00013f9c        0x0 ../Hardware_Denoise_bsp/\libhal_bsp.a(alt_load.o)
 .data          0x00013f9c        0x0 ../Hardware_Denoise_bsp/\libhal_bsp.a(alt_lseek.o)
 .data          0x00013f9c        0x0 ../Hardware_Denoise_bsp/\libhal_bsp.a(alt_main.o)
 .data          0x00013f9c        0x0 ../Hardware_Denoise_bsp/\libhal_bsp.a(alt_malloc_lock.o)
 .data          0x00013f9c        0x0 ../Hardware_Denoise_bsp/\libhal_bsp.a(alt_printf.o)
 .data          0x00013f9c        0x0 ../Hardware_Denoise_bsp/\libhal_bsp.a(alt_putchar.o)
 .data          0x00013f9c        0x0 ../Hardware_Denoise_bsp/\libhal_bsp.a(alt_read.o)
 .data          0x00013f9c        0x0 ../Hardware_Denoise_bsp/\libhal_bsp.a(alt_release_fd.o)
 .data          0x00013f9c        0x0 ../Hardware_Denoise_bsp/\libhal_bsp.a(alt_sbrk.o)
 .data          0x00013f9c        0x0 ../Hardware_Denoise_bsp/\libhal_bsp.a(alt_write.o)
 .data          0x00013f9c     0x1414 ../Hardware_Denoise_bsp/\libhal_bsp.a(alt_sys_init.o)
 .data          0x000153b0        0x0 ../Hardware_Denoise_bsp/\libhal_bsp.a(altera_avalon_jtag_uart_fd.o)
 .data          0x000153b0        0x0 ../Hardware_Denoise_bsp/\libhal_bsp.a(altera_avalon_jtag_uart_init.o)
 .data          0x000153b0        0x0 ../Hardware_Denoise_bsp/\libhal_bsp.a(altera_avalon_jtag_uart_ioctl.o)
 .data          0x000153b0        0x0 ../Hardware_Denoise_bsp/\libhal_bsp.a(altera_avalon_jtag_uart_read.o)
 .data          0x000153b0        0x0 ../Hardware_Denoise_bsp/\libhal_bsp.a(altera_avalon_jtag_uart_write.o)
 .data          0x000153b0        0x0 ../Hardware_Denoise_bsp/\libhal_bsp.a(altera_avalon_timer_ts.o)
 .data          0x000153b0        0x0 ../Hardware_Denoise_bsp/\libhal_bsp.a(altera_avalon_timer_vars.o)
 .data          0x000153b0        0x0 ../Hardware_Denoise_bsp/\libhal_bsp.a(altera_up_avalon_audio.o)
 .data          0x000153b0        0x0 ../Hardware_Denoise_bsp/\libhal_bsp.a(altera_up_avalon_character_lcd.o)
 .data          0x000153b0        0x0 ../Hardware_Denoise_bsp/\libhal_bsp.a(altera_up_avalon_ethernet.o)
 .data          0x000153b0        0x0 ../Hardware_Denoise_bsp/\libhal_bsp.a(altera_up_avalon_ethernet_low_level_driver.o)
 .data          0x000153b0        0x0 ../Hardware_Denoise_bsp/\libhal_bsp.a(altera_up_avalon_irda.o)
 .data          0x000153b0        0x0 ../Hardware_Denoise_bsp/\libhal_bsp.a(altera_up_avalon_parallel_port.o)
 .data          0x000153b0        0x0 ../Hardware_Denoise_bsp/\libhal_bsp.a(altera_up_avalon_ps2.o)
 .data          0x000153b0        0x0 ../Hardware_Denoise_bsp/\libhal_bsp.a(altera_up_avalon_rs232.o)
 .data          0x000153b0        0x0 ../Hardware_Denoise_bsp/\libhal_bsp.a(altera_up_avalon_video_character_buffer_with_dma.o)
 .data          0x000153b0        0x0 ../Hardware_Denoise_bsp/\libhal_bsp.a(altera_up_avalon_video_pixel_buffer_dma.o)
 .data          0x000153b0        0x0 ../Hardware_Denoise_bsp/\libhal_bsp.a(alt_alarm_start.o)
 .data          0x000153b0        0x0 ../Hardware_Denoise_bsp/\libhal_bsp.a(alt_dcache_flush_all.o)
 .data          0x000153b0        0x0 ../Hardware_Denoise_bsp/\libhal_bsp.a(alt_dev_llist_insert.o)
 .data          0x000153b0        0x0 ../Hardware_Denoise_bsp/\libhal_bsp.a(alt_do_ctors.o)
 .data          0x000153b0        0x0 ../Hardware_Denoise_bsp/\libhal_bsp.a(alt_do_dtors.o)
 .data          0x000153b0        0x0 ../Hardware_Denoise_bsp/\libhal_bsp.a(alt_find_dev.o)
 .data          0x000153b0        0x0 ../Hardware_Denoise_bsp/\libhal_bsp.a(alt_icache_flush_all.o)
 .data          0x000153b0        0x0 ../Hardware_Denoise_bsp/\libhal_bsp.a(alt_io_redirect.o)
 .data          0x000153b0        0x0 ../Hardware_Denoise_bsp/\libhal_bsp.a(alt_irq_entry.o)
 .data          0x000153b0        0x0 ../Hardware_Denoise_bsp/\libhal_bsp.a(alt_irq_handler.o)
 .data          0x000153b0        0x0 ../Hardware_Denoise_bsp/\libhal_bsp.a(alt_open.o)
 .data          0x000153b0        0x0 ../Hardware_Denoise_bsp/\libhal_bsp.a(alt_tick.o)
 .data          0x000153b0        0x0 ../Hardware_Denoise_bsp/\libhal_bsp.a(alt_usleep.o)
 .data          0x000153b0        0x0 ../Hardware_Denoise_bsp/\libhal_bsp.a(altera_nios2_qsys_irq.o)
 .data          0x000153b0        0x0 ../Hardware_Denoise_bsp/\libhal_bsp.a(alt_busy_sleep.o)
 .data          0x000153b0        0x0 ../Hardware_Denoise_bsp/\libhal_bsp.a(alt_exception_entry.o)
 .data          0x000153b0        0x0 ../Hardware_Denoise_bsp/\libhal_bsp.a(alt_find_file.o)
 .data          0x000153b0        0x0 ../Hardware_Denoise_bsp/\libhal_bsp.a(alt_get_fd.o)
 .data          0x000153b0        0x0 ../Hardware_Denoise_bsp/\libhal_bsp.a(alt_icache_flush.o)
 .data          0x000153b0        0x0 d:/fpga/nios2eds/bin/gnu/h-i686-mingw32/bin/../lib/gcc/nios2-elf/4.1.2/../../../../nios2-elf/lib\libc.a(lib_a-atexit.o)
 .data          0x000153b0        0x0 d:/fpga/nios2eds/bin/gnu/h-i686-mingw32/bin/../lib/gcc/nios2-elf/4.1.2/../../../../nios2-elf/lib\libc.a(lib_a-exit.o)
 .data          0x000153b0        0x0 d:/fpga/nios2eds/bin/gnu/h-i686-mingw32/bin/../lib/gcc/nios2-elf/4.1.2/../../../../nios2-elf/lib\libc.a(lib_a-memcmp.o)
 .data          0x000153b0        0x0 d:/fpga/nios2eds/bin/gnu/h-i686-mingw32/bin/../lib/gcc/nios2-elf/4.1.2/../../../../nios2-elf/lib\libc.a(lib_a-putc.o)
 .data          0x000153b0        0x0 d:/fpga/nios2eds/bin/gnu/h-i686-mingw32/bin/../lib/gcc/nios2-elf/4.1.2/../../../../nios2-elf/lib\libc.a(lib_a-wbuf.o)
 .data          0x000153b0        0x0 d:/fpga/nios2eds/bin/gnu/h-i686-mingw32/bin/../lib/gcc/nios2-elf/4.1.2/../../../../nios2-elf/lib\libc.a(lib_a-__atexit.o)
 .data          0x000153b0        0x0 d:/fpga/nios2eds/bin/gnu/h-i686-mingw32/bin/../lib/gcc/nios2-elf/4.1.2/../../../../nios2-elf/lib\libc.a(lib_a-__call_atexit.o)
 .data          0x000153b0        0x0 ../Hardware_Denoise_bsp/\libhal_bsp.a(alt_exit.o)
                0x0001d3b0                _gp = ABSOLUTE ((. + 0x8000))
                0x0001d3b0                PROVIDE (gp, _gp)
 *(.rwdata .rwdata.*)
 *(.sdata .sdata.* .gnu.linkonce.s.*)
 .sdata         0x000153b0        0x4 obj/default/media_interrupt_HAL.o
                0x000153b0                number_of_coefficients
 .sdata         0x000153b4        0x8 d:/fpga/nios2eds/bin/gnu/h-i686-mingw32/bin/../lib/gcc/nios2-elf/4.1.2/../../../../nios2-elf/lib\libc.a(lib_a-impure.o)
                0x000153b4                _impure_ptr
                0x000153b8                _global_impure_ptr
 .sdata         0x000153bc        0x8 d:/fpga/nios2eds/bin/gnu/h-i686-mingw32/bin/../lib/gcc/nios2-elf/4.1.2/../../../../nios2-elf/lib\libc.a(lib_a-locale.o)
                0x000153bc                __mb_cur_max
 .sdata         0x000153c4        0x8 d:/fpga/nios2eds/bin/gnu/h-i686-mingw32/bin/../lib/gcc/nios2-elf/4.1.2/../../../../nios2-elf/lib\libc.a(lib_a-mallocr.o)
                0x000153c4                __malloc_trim_threshold
                0x000153c8                __malloc_sbrk_base
 .sdata         0x000153cc       0x14 ../Hardware_Denoise_bsp/\libhal_bsp.a(alt_dev.o)
                0x000153cc                alt_fs_list
                0x000153d4                alt_dev_list
                0x000153dc                alt_max_fd
 .sdata         0x000153e0        0x4 ../Hardware_Denoise_bsp/\libhal_bsp.a(alt_errno.o)
                0x000153e0                alt_errno
 .sdata         0x000153e4        0x4 ../Hardware_Denoise_bsp/\libhal_bsp.a(alt_irq_vars.o)
                0x000153e4                alt_priority_mask
 .sdata         0x000153e8        0x4 ../Hardware_Denoise_bsp/\libhal_bsp.a(alt_sbrk.o)
 .sdata         0x000153ec        0x8 ../Hardware_Denoise_bsp/\libhal_bsp.a(alt_tick.o)
                0x000153ec                alt_alarm_list
 *(.sdata2 .sdata2.* .gnu.linkonce.s2.*)
                0x000153f4                . = ALIGN (0x4)
                0x000153f4                _edata = ABSOLUTE (.)
                0x000153f4                PROVIDE (edata, ABSOLUTE (.))
                0x000153f4                PROVIDE (__ram_rwdata_end, ABSOLUTE (.))
                0x000153f4                PROVIDE (__flash_rwdata_start, LOADADDR (.rwdata))

.bss            0x00017308   0x186d74
                0x00017308                __bss_start = ABSOLUTE (.)
                0x00017308                PROVIDE (__sbss_start, ABSOLUTE (.))
                0x00017308                PROVIDE (___sbss_start, ABSOLUTE (.))
 *(.dynsbss)
 *(.sbss .sbss.* .gnu.linkonce.sb.*)
 .sbss          0x00017308        0x4 obj/default/PS2_ISR.o
                0x00017308                count
 .sbss          0x0001730c        0x4 obj/default/PS2_ISR.o
                0x0001730c                flag
 .sbss          0x00017310       0x14 obj/default/globals.o
                0x00017310                byte2
                0x00017311                byte3
                0x00017312                copy_byte3
                0x00017313                byte1
                0x00017314                copy_byte1
                0x00017315                copy_byte2
                0x00017318                timeout
                0x0001731c                buf_index_play
                0x00017320                buf_index_record
 .sbss          0x00017324       0x44 obj/default/media_interrupt_HAL.o
                0x00017324                echo
                0x00017328                mouse_width
                0x0001732c                prev_y_mouse
                0x00017330                y_mouse
                0x00017334                flag_denoise
                0x00017338                prev_y_mouse_front
                0x0001733c                prev_y_mouse_back
                0x00017340                max_y_mouse
                0x00017344                prev_x_mouse
                0x00017348                max_x_mouse
                0x0001734c                flag_play
                0x00017350                right_button_click
                0x00017354                left_button_click
                0x00017358                prev_x_mouse_back
                0x0001735c                x_mouse
                0x00017360                middle_button_click
                0x00017364                prev_x_mouse_front
 .sbss          0x00017368        0xc d:/fpga/nios2eds/bin/gnu/h-i686-mingw32/bin/../lib/gcc/nios2-elf/4.1.2/../../../../nios2-elf/lib\libc.a(lib_a-locale.o)
                0x00017368                __nlocale_changed
                0x0001736c                __mlocale_changed
                0x00017370                _PathLocale
 .sbss          0x00017374        0xc d:/fpga/nios2eds/bin/gnu/h-i686-mingw32/bin/../lib/gcc/nios2-elf/4.1.2/../../../../nios2-elf/lib\libc.a(lib_a-mallocr.o)
                0x00017374                __malloc_top_pad
                0x00017378                __malloc_max_sbrked_mem
                0x0001737c                __malloc_max_total_mem
 .sbss          0x00017380        0x4 d:/fpga/nios2eds/bin/gnu/h-i686-mingw32/bin/../lib/gcc/nios2-elf/4.1.2/../../../../nios2-elf/lib\libc.a(lib_a-int_errno.o)
                0x00017380                errno
 .sbss          0x00017384        0x4 ../Hardware_Denoise_bsp/\libhal_bsp.a(alt_irq_vars.o)
                0x00017384                alt_irq_active
 .sbss          0x00017388        0xc ../Hardware_Denoise_bsp/\libhal_bsp.a(alt_main.o)
                0x00017388                alt_argc
                0x0001738c                alt_argv
                0x00017390                alt_envp
 .sbss          0x00017394        0x8 ../Hardware_Denoise_bsp/\libhal_bsp.a(altera_avalon_timer_vars.o)
                0x00017394                altera_avalon_timer_ts_base
                0x00017398                altera_avalon_timer_ts_freq
 .sbss          0x0001739c        0x8 ../Hardware_Denoise_bsp/\libhal_bsp.a(alt_tick.o)
                0x0001739c                _alt_tick_rate
                0x000173a0                _alt_nticks
 *(.sbss2 .sbss2.* .gnu.linkonce.sb2.*)
 *(.scommon)
                0x000173a4                PROVIDE (__sbss_end, ABSOLUTE (.))
                0x000173a4                PROVIDE (___sbss_end, ABSOLUTE (.))
 *(.dynbss)
 *(.bss .bss.* .gnu.linkonce.b.*)
 .bss           0x000173a4        0x0 ../Hardware_Denoise_bsp//obj/HAL/src/crt0.o
 .bss           0x000173a4        0x0 obj/default/PS2_ISR.o
 .bss           0x000173a4        0x0 obj/default/audio_ISR.o
 .bss           0x000173a4        0x0 obj/default/globals.o
 .bss           0x000173a4        0x0 obj/default/interval_timer_ISR.o
 .bss           0x000173a4        0x0 obj/default/media_interrupt_HAL.o
 .bss           0x000173a4        0x0 obj/default/pushbutton_ISR.o
 .bss           0x000173a4        0x0 d:/fpga/nios2eds/bin/gnu/h-i686-mingw32/bin/../lib/gcc/nios2-elf/4.1.2\libgcc.a(_si_to_sf.o)
 .bss           0x000173a4        0x0 d:/fpga/nios2eds/bin/gnu/h-i686-mingw32/bin/../lib/gcc/nios2-elf/4.1.2\libgcc.a(_sf_to_si.o)
 .bss           0x000173a4        0x0 d:/fpga/nios2eds/bin/gnu/h-i686-mingw32/bin/../lib/gcc/nios2-elf/4.1.2\libgcc.a(_sf_to_df.o)
 .bss           0x000173a4        0x0 d:/fpga/nios2eds/bin/gnu/h-i686-mingw32/bin/../lib/gcc/nios2-elf/4.1.2\libgcc.a(_usi_to_sf.o)
 .bss           0x000173a4        0x0 d:/fpga/nios2eds/bin/gnu/h-i686-mingw32/bin/../lib/gcc/nios2-elf/4.1.2\libgcc.a(_make_df.o)
 .bss           0x000173a4        0x0 d:/fpga/nios2eds/bin/gnu/h-i686-mingw32/bin/../lib/gcc/nios2-elf/4.1.2\libgcc.a(_clzsi2.o)
 .bss           0x000173a4        0x0 d:/fpga/nios2eds/bin/gnu/h-i686-mingw32/bin/../lib/gcc/nios2-elf/4.1.2\libgcc.a(_pack_sf.o)
 .bss           0x000173a4        0x0 d:/fpga/nios2eds/bin/gnu/h-i686-mingw32/bin/../lib/gcc/nios2-elf/4.1.2\libgcc.a(_unpack_sf.o)
 .bss           0x000173a4        0x0 d:/fpga/nios2eds/bin/gnu/h-i686-mingw32/bin/../lib/gcc/nios2-elf/4.1.2\libgcc.a(_pack_df.o)
 .bss           0x000173a4        0x0 d:/fpga/nios2eds/bin/gnu/h-i686-mingw32/bin/../lib/gcc/nios2-elf/4.1.2\libgcc.a(_clz.o)
 .bss           0x000173a4        0x0 d:/fpga/nios2eds/bin/gnu/h-i686-mingw32/bin/../lib/gcc/nios2-elf/4.1.2/../../../../nios2-elf/lib\libc.a(lib_a-memcpy.o)
 .bss           0x000173a4        0x0 d:/fpga/nios2eds/bin/gnu/h-i686-mingw32/bin/../lib/gcc/nios2-elf/4.1.2/../../../../nios2-elf/lib\libc.a(lib_a-memset.o)
 .bss           0x000173a4        0x0 d:/fpga/nios2eds/bin/gnu/h-i686-mingw32/bin/../lib/gcc/nios2-elf/4.1.2/../../../../nios2-elf/lib\libc.a(lib_a-printf.o)
 .bss           0x000173a4        0x0 d:/fpga/nios2eds/bin/gnu/h-i686-mingw32/bin/../lib/gcc/nios2-elf/4.1.2/../../../../nios2-elf/lib\libc.a(lib_a-vfprintf.o)
 .bss           0x000173a4        0x0 d:/fpga/nios2eds/bin/gnu/h-i686-mingw32/bin/../lib/gcc/nios2-elf/4.1.2/../../../../nios2-elf/lib\libc.a(lib_a-wsetup.o)
 .bss           0x000173a4        0x0 d:/fpga/nios2eds/bin/gnu/h-i686-mingw32/bin/../lib/gcc/nios2-elf/4.1.2/../../../../nios2-elf/lib\libc.a(lib_a-dtoa.o)
 .bss           0x000173a4        0x0 d:/fpga/nios2eds/bin/gnu/h-i686-mingw32/bin/../lib/gcc/nios2-elf/4.1.2/../../../../nios2-elf/lib\libc.a(lib_a-fflush.o)
 .bss           0x000173a4        0x0 d:/fpga/nios2eds/bin/gnu/h-i686-mingw32/bin/../lib/gcc/nios2-elf/4.1.2/../../../../nios2-elf/lib\libc.a(lib_a-findfp.o)
 .bss           0x000173a4        0x0 d:/fpga/nios2eds/bin/gnu/h-i686-mingw32/bin/../lib/gcc/nios2-elf/4.1.2/../../../../nios2-elf/lib\libc.a(lib_a-freer.o)
 .bss           0x000173a4        0x0 d:/fpga/nios2eds/bin/gnu/h-i686-mingw32/bin/../lib/gcc/nios2-elf/4.1.2/../../../../nios2-elf/lib\libc.a(lib_a-fvwrite.o)
 .bss           0x000173a4        0x0 d:/fpga/nios2eds/bin/gnu/h-i686-mingw32/bin/../lib/gcc/nios2-elf/4.1.2/../../../../nios2-elf/lib\libc.a(lib_a-fwalk.o)
 .bss           0x000173a4        0x0 d:/fpga/nios2eds/bin/gnu/h-i686-mingw32/bin/../lib/gcc/nios2-elf/4.1.2/../../../../nios2-elf/lib\libc.a(lib_a-impure.o)
 .bss           0x000173a4        0x0 d:/fpga/nios2eds/bin/gnu/h-i686-mingw32/bin/../lib/gcc/nios2-elf/4.1.2/../../../../nios2-elf/lib\libc.a(lib_a-locale.o)
 .bss           0x000173a4        0x0 d:/fpga/nios2eds/bin/gnu/h-i686-mingw32/bin/../lib/gcc/nios2-elf/4.1.2/../../../../nios2-elf/lib\libc.a(lib_a-makebuf.o)
 .bss           0x000173a4       0x28 d:/fpga/nios2eds/bin/gnu/h-i686-mingw32/bin/../lib/gcc/nios2-elf/4.1.2/../../../../nios2-elf/lib\libc.a(lib_a-mallocr.o)
                0x000173a4                __malloc_current_mallinfo
 .bss           0x000173cc        0x0 d:/fpga/nios2eds/bin/gnu/h-i686-mingw32/bin/../lib/gcc/nios2-elf/4.1.2/../../../../nios2-elf/lib\libc.a(lib_a-memchr.o)
 .bss           0x000173cc        0x0 d:/fpga/nios2eds/bin/gnu/h-i686-mingw32/bin/../lib/gcc/nios2-elf/4.1.2/../../../../nios2-elf/lib\libc.a(lib_a-memmove.o)
 .bss           0x000173cc        0x0 d:/fpga/nios2eds/bin/gnu/h-i686-mingw32/bin/../lib/gcc/nios2-elf/4.1.2/../../../../nios2-elf/lib\libc.a(lib_a-mprec.o)
 .bss           0x000173cc        0x0 d:/fpga/nios2eds/bin/gnu/h-i686-mingw32/bin/../lib/gcc/nios2-elf/4.1.2/../../../../nios2-elf/lib\libc.a(lib_a-reallocr.o)
 .bss           0x000173cc        0x0 d:/fpga/nios2eds/bin/gnu/h-i686-mingw32/bin/../lib/gcc/nios2-elf/4.1.2/../../../../nios2-elf/lib\libc.a(lib_a-s_isinfd.o)
 .bss           0x000173cc        0x0 d:/fpga/nios2eds/bin/gnu/h-i686-mingw32/bin/../lib/gcc/nios2-elf/4.1.2/../../../../nios2-elf/lib\libc.a(lib_a-s_isnand.o)
 .bss           0x000173cc        0x0 d:/fpga/nios2eds/bin/gnu/h-i686-mingw32/bin/../lib/gcc/nios2-elf/4.1.2/../../../../nios2-elf/lib\libc.a(lib_a-sbrkr.o)
 .bss           0x000173cc        0x0 d:/fpga/nios2eds/bin/gnu/h-i686-mingw32/bin/../lib/gcc/nios2-elf/4.1.2/../../../../nios2-elf/lib\libc.a(lib_a-stdio.o)
 .bss           0x000173cc        0x0 d:/fpga/nios2eds/bin/gnu/h-i686-mingw32/bin/../lib/gcc/nios2-elf/4.1.2/../../../../nios2-elf/lib\libc.a(lib_a-strcmp.o)
 .bss           0x000173cc        0x0 d:/fpga/nios2eds/bin/gnu/h-i686-mingw32/bin/../lib/gcc/nios2-elf/4.1.2/../../../../nios2-elf/lib\libc.a(lib_a-strlen.o)
 .bss           0x000173cc        0x0 d:/fpga/nios2eds/bin/gnu/h-i686-mingw32/bin/../lib/gcc/nios2-elf/4.1.2/../../../../nios2-elf/lib\libc.a(lib_a-writer.o)
 .bss           0x000173cc        0x0 d:/fpga/nios2eds/bin/gnu/h-i686-mingw32/bin/../lib/gcc/nios2-elf/4.1.2/../../../../nios2-elf/lib\libc.a(lib_a-callocr.o)
 .bss           0x000173cc        0x0 d:/fpga/nios2eds/bin/gnu/h-i686-mingw32/bin/../lib/gcc/nios2-elf/4.1.2/../../../../nios2-elf/lib\libc.a(lib_a-closer.o)
 .bss           0x000173cc        0x0 d:/fpga/nios2eds/bin/gnu/h-i686-mingw32/bin/../lib/gcc/nios2-elf/4.1.2/../../../../nios2-elf/lib\libc.a(lib_a-fclose.o)
 .bss           0x000173cc        0x0 d:/fpga/nios2eds/bin/gnu/h-i686-mingw32/bin/../lib/gcc/nios2-elf/4.1.2/../../../../nios2-elf/lib\libc.a(lib_a-fstatr.o)
 .bss           0x000173cc        0x0 d:/fpga/nios2eds/bin/gnu/h-i686-mingw32/bin/../lib/gcc/nios2-elf/4.1.2/../../../../nios2-elf/lib\libc.a(lib_a-int_errno.o)
 .bss           0x000173cc        0x0 d:/fpga/nios2eds/bin/gnu/h-i686-mingw32/bin/../lib/gcc/nios2-elf/4.1.2/../../../../nios2-elf/lib\libc.a(lib_a-isattyr.o)
 .bss           0x000173cc        0x0 d:/fpga/nios2eds/bin/gnu/h-i686-mingw32/bin/../lib/gcc/nios2-elf/4.1.2/../../../../nios2-elf/lib\libc.a(lib_a-lseekr.o)
 .bss           0x000173cc        0x0 d:/fpga/nios2eds/bin/gnu/h-i686-mingw32/bin/../lib/gcc/nios2-elf/4.1.2/../../../../nios2-elf/lib\libc.a(lib_a-readr.o)
 .bss           0x000173cc        0x0 d:/fpga/nios2eds/bin/gnu/h-i686-mingw32/bin/../lib/gcc/nios2-elf/4.1.2\libgcc.a(_udivdi3.o)
 .bss           0x000173cc        0x0 d:/fpga/nios2eds/bin/gnu/h-i686-mingw32/bin/../lib/gcc/nios2-elf/4.1.2\libgcc.a(_umoddi3.o)
 .bss           0x000173cc        0x0 d:/fpga/nios2eds/bin/gnu/h-i686-mingw32/bin/../lib/gcc/nios2-elf/4.1.2\libgcc.a(_addsub_df.o)
 .bss           0x000173cc        0x0 d:/fpga/nios2eds/bin/gnu/h-i686-mingw32/bin/../lib/gcc/nios2-elf/4.1.2\libgcc.a(_mul_df.o)
 .bss           0x000173cc        0x0 d:/fpga/nios2eds/bin/gnu/h-i686-mingw32/bin/../lib/gcc/nios2-elf/4.1.2\libgcc.a(_div_df.o)
 .bss           0x000173cc        0x0 d:/fpga/nios2eds/bin/gnu/h-i686-mingw32/bin/../lib/gcc/nios2-elf/4.1.2\libgcc.a(_eq_df.o)
 .bss           0x000173cc        0x0 d:/fpga/nios2eds/bin/gnu/h-i686-mingw32/bin/../lib/gcc/nios2-elf/4.1.2\libgcc.a(_ne_df.o)
 .bss           0x000173cc        0x0 d:/fpga/nios2eds/bin/gnu/h-i686-mingw32/bin/../lib/gcc/nios2-elf/4.1.2\libgcc.a(_gt_df.o)
 .bss           0x000173cc        0x0 d:/fpga/nios2eds/bin/gnu/h-i686-mingw32/bin/../lib/gcc/nios2-elf/4.1.2\libgcc.a(_ge_df.o)
 .bss           0x000173cc        0x0 d:/fpga/nios2eds/bin/gnu/h-i686-mingw32/bin/../lib/gcc/nios2-elf/4.1.2\libgcc.a(_lt_df.o)
 .bss           0x000173cc        0x0 d:/fpga/nios2eds/bin/gnu/h-i686-mingw32/bin/../lib/gcc/nios2-elf/4.1.2\libgcc.a(_si_to_df.o)
 .bss           0x000173cc        0x0 d:/fpga/nios2eds/bin/gnu/h-i686-mingw32/bin/../lib/gcc/nios2-elf/4.1.2\libgcc.a(_df_to_si.o)
 .bss           0x000173cc        0x0 d:/fpga/nios2eds/bin/gnu/h-i686-mingw32/bin/../lib/gcc/nios2-elf/4.1.2\libgcc.a(_thenan_df.o)
 .bss           0x000173cc        0x0 d:/fpga/nios2eds/bin/gnu/h-i686-mingw32/bin/../lib/gcc/nios2-elf/4.1.2\libgcc.a(_usi_to_df.o)
 .bss           0x000173cc        0x0 d:/fpga/nios2eds/bin/gnu/h-i686-mingw32/bin/../lib/gcc/nios2-elf/4.1.2\libgcc.a(lib2-divmod.o)
 .bss           0x000173cc        0x0 d:/fpga/nios2eds/bin/gnu/h-i686-mingw32/bin/../lib/gcc/nios2-elf/4.1.2\libgcc.a(_muldi3.o)
 .bss           0x000173cc        0x0 d:/fpga/nios2eds/bin/gnu/h-i686-mingw32/bin/../lib/gcc/nios2-elf/4.1.2\libgcc.a(_unpack_df.o)
 .bss           0x000173cc        0x0 d:/fpga/nios2eds/bin/gnu/h-i686-mingw32/bin/../lib/gcc/nios2-elf/4.1.2\libgcc.a(_fpcmp_parts_df.o)
 .bss           0x000173cc        0x0 ../Hardware_Denoise_bsp/\libhal_bsp.a(alt_close.o)
 .bss           0x000173cc        0x0 ../Hardware_Denoise_bsp/\libhal_bsp.a(alt_dev.o)
 .bss           0x000173cc        0x0 ../Hardware_Denoise_bsp/\libhal_bsp.a(alt_errno.o)
 .bss           0x000173cc        0x0 ../Hardware_Denoise_bsp/\libhal_bsp.a(alt_fstat.o)
 .bss           0x000173cc        0x0 ../Hardware_Denoise_bsp/\libhal_bsp.a(alt_irq_register.o)
 .bss           0x000173cc        0x0 ../Hardware_Denoise_bsp/\libhal_bsp.a(alt_irq_vars.o)
 .bss           0x000173cc        0x0 ../Hardware_Denoise_bsp/\libhal_bsp.a(alt_isatty.o)
 .bss           0x000173cc        0x0 ../Hardware_Denoise_bsp/\libhal_bsp.a(alt_load.o)
 .bss           0x000173cc        0x0 ../Hardware_Denoise_bsp/\libhal_bsp.a(alt_lseek.o)
 .bss           0x000173cc        0x0 ../Hardware_Denoise_bsp/\libhal_bsp.a(alt_main.o)
 .bss           0x000173cc        0x0 ../Hardware_Denoise_bsp/\libhal_bsp.a(alt_malloc_lock.o)
 .bss           0x000173cc        0x0 ../Hardware_Denoise_bsp/\libhal_bsp.a(alt_printf.o)
 .bss           0x000173cc        0x0 ../Hardware_Denoise_bsp/\libhal_bsp.a(alt_putchar.o)
 .bss           0x000173cc        0x0 ../Hardware_Denoise_bsp/\libhal_bsp.a(alt_read.o)
 .bss           0x000173cc        0x0 ../Hardware_Denoise_bsp/\libhal_bsp.a(alt_release_fd.o)
 .bss           0x000173cc        0x0 ../Hardware_Denoise_bsp/\libhal_bsp.a(alt_sbrk.o)
 .bss           0x000173cc        0x0 ../Hardware_Denoise_bsp/\libhal_bsp.a(alt_write.o)
 .bss           0x000173cc        0x0 ../Hardware_Denoise_bsp/\libhal_bsp.a(alt_sys_init.o)
 .bss           0x000173cc        0x0 ../Hardware_Denoise_bsp/\libhal_bsp.a(altera_avalon_jtag_uart_fd.o)
 .bss           0x000173cc        0x0 ../Hardware_Denoise_bsp/\libhal_bsp.a(altera_avalon_jtag_uart_init.o)
 .bss           0x000173cc        0x0 ../Hardware_Denoise_bsp/\libhal_bsp.a(altera_avalon_jtag_uart_ioctl.o)
 .bss           0x000173cc        0x0 ../Hardware_Denoise_bsp/\libhal_bsp.a(altera_avalon_jtag_uart_read.o)
 .bss           0x000173cc        0x0 ../Hardware_Denoise_bsp/\libhal_bsp.a(altera_avalon_jtag_uart_write.o)
 .bss           0x000173cc        0x0 ../Hardware_Denoise_bsp/\libhal_bsp.a(altera_avalon_timer_ts.o)
 .bss           0x000173cc        0x0 ../Hardware_Denoise_bsp/\libhal_bsp.a(altera_avalon_timer_vars.o)
 .bss           0x000173cc        0x0 ../Hardware_Denoise_bsp/\libhal_bsp.a(altera_up_avalon_audio.o)
 .bss           0x000173cc        0x0 ../Hardware_Denoise_bsp/\libhal_bsp.a(altera_up_avalon_character_lcd.o)
 .bss           0x000173cc        0x0 ../Hardware_Denoise_bsp/\libhal_bsp.a(altera_up_avalon_ethernet.o)
 .bss           0x000173cc        0x0 ../Hardware_Denoise_bsp/\libhal_bsp.a(altera_up_avalon_ethernet_low_level_driver.o)
 .bss           0x000173cc        0x0 ../Hardware_Denoise_bsp/\libhal_bsp.a(altera_up_avalon_irda.o)
 .bss           0x000173cc        0x0 ../Hardware_Denoise_bsp/\libhal_bsp.a(altera_up_avalon_parallel_port.o)
 .bss           0x000173cc        0x0 ../Hardware_Denoise_bsp/\libhal_bsp.a(altera_up_avalon_ps2.o)
 .bss           0x000173cc        0x0 ../Hardware_Denoise_bsp/\libhal_bsp.a(altera_up_avalon_rs232.o)
 .bss           0x000173cc        0x0 ../Hardware_Denoise_bsp/\libhal_bsp.a(altera_up_avalon_video_character_buffer_with_dma.o)
 .bss           0x000173cc        0x0 ../Hardware_Denoise_bsp/\libhal_bsp.a(altera_up_avalon_video_pixel_buffer_dma.o)
 .bss           0x000173cc        0x0 ../Hardware_Denoise_bsp/\libhal_bsp.a(alt_alarm_start.o)
 .bss           0x000173cc        0x0 ../Hardware_Denoise_bsp/\libhal_bsp.a(alt_dcache_flush_all.o)
 .bss           0x000173cc        0x0 ../Hardware_Denoise_bsp/\libhal_bsp.a(alt_dev_llist_insert.o)
 .bss           0x000173cc        0x0 ../Hardware_Denoise_bsp/\libhal_bsp.a(alt_do_ctors.o)
 .bss           0x000173cc        0x0 ../Hardware_Denoise_bsp/\libhal_bsp.a(alt_do_dtors.o)
 .bss           0x000173cc        0x0 ../Hardware_Denoise_bsp/\libhal_bsp.a(alt_find_dev.o)
 .bss           0x000173cc        0x0 ../Hardware_Denoise_bsp/\libhal_bsp.a(alt_icache_flush_all.o)
 .bss           0x000173cc        0x0 ../Hardware_Denoise_bsp/\libhal_bsp.a(alt_io_redirect.o)
 .bss           0x000173cc        0x0 ../Hardware_Denoise_bsp/\libhal_bsp.a(alt_irq_entry.o)
 .bss           0x000173cc        0x0 ../Hardware_Denoise_bsp/\libhal_bsp.a(alt_irq_handler.o)
 .bss           0x000173cc        0x0 ../Hardware_Denoise_bsp/\libhal_bsp.a(alt_open.o)
 .bss           0x000173cc        0x0 ../Hardware_Denoise_bsp/\libhal_bsp.a(alt_tick.o)
 .bss           0x000173cc        0x0 ../Hardware_Denoise_bsp/\libhal_bsp.a(alt_usleep.o)
 .bss           0x000173cc        0x0 ../Hardware_Denoise_bsp/\libhal_bsp.a(altera_nios2_qsys_irq.o)
 .bss           0x000173cc        0x0 ../Hardware_Denoise_bsp/\libhal_bsp.a(alt_busy_sleep.o)
 .bss           0x000173cc        0x0 ../Hardware_Denoise_bsp/\libhal_bsp.a(alt_exception_entry.o)
 .bss           0x000173cc        0x0 ../Hardware_Denoise_bsp/\libhal_bsp.a(alt_find_file.o)
 .bss           0x000173cc        0x0 ../Hardware_Denoise_bsp/\libhal_bsp.a(alt_get_fd.o)
 .bss           0x000173cc        0x0 ../Hardware_Denoise_bsp/\libhal_bsp.a(alt_icache_flush.o)
 .bss           0x000173cc        0x0 d:/fpga/nios2eds/bin/gnu/h-i686-mingw32/bin/../lib/gcc/nios2-elf/4.1.2/../../../../nios2-elf/lib\libc.a(lib_a-atexit.o)
 .bss           0x000173cc        0x0 d:/fpga/nios2eds/bin/gnu/h-i686-mingw32/bin/../lib/gcc/nios2-elf/4.1.2/../../../../nios2-elf/lib\libc.a(lib_a-exit.o)
 .bss           0x000173cc        0x0 d:/fpga/nios2eds/bin/gnu/h-i686-mingw32/bin/../lib/gcc/nios2-elf/4.1.2/../../../../nios2-elf/lib\libc.a(lib_a-memcmp.o)
 .bss           0x000173cc        0x0 d:/fpga/nios2eds/bin/gnu/h-i686-mingw32/bin/../lib/gcc/nios2-elf/4.1.2/../../../../nios2-elf/lib\libc.a(lib_a-putc.o)
 .bss           0x000173cc        0x0 d:/fpga/nios2eds/bin/gnu/h-i686-mingw32/bin/../lib/gcc/nios2-elf/4.1.2/../../../../nios2-elf/lib\libc.a(lib_a-wbuf.o)
 .bss           0x000173cc        0x0 d:/fpga/nios2eds/bin/gnu/h-i686-mingw32/bin/../lib/gcc/nios2-elf/4.1.2/../../../../nios2-elf/lib\libc.a(lib_a-__atexit.o)
 .bss           0x000173cc        0x0 d:/fpga/nios2eds/bin/gnu/h-i686-mingw32/bin/../lib/gcc/nios2-elf/4.1.2/../../../../nios2-elf/lib\libc.a(lib_a-__call_atexit.o)
 .bss           0x000173cc        0x0 ../Hardware_Denoise_bsp/\libhal_bsp.a(alt_exit.o)
 *(COMMON)
 COMMON         0x000173cc   0x186a00 obj/default/audio_ISR.o
                0x000173cc                record_l_buf
                0x00078e4c                play_l_buf
                0x000da8cc                record_r_buf
                0x0013c34c                play_r_buf
 COMMON         0x0019ddcc       0x20 obj/default/globals.o
                0x0019ddcc                up_dev
 COMMON         0x0019ddec      0x100 ../Hardware_Denoise_bsp/\libhal_bsp.a(alt_irq_handler.o)
                0x0019ddec                alt_irq
 COMMON         0x0019deec      0x190 d:/fpga/nios2eds/bin/gnu/h-i686-mingw32/bin/../lib/gcc/nios2-elf/4.1.2/../../../../nios2-elf/lib\libc.a(lib_a-atexit.o)
                0x0019deec                _atexit0
                0x0019e07c                . = ALIGN (0x4)
                0x0019e07c                __bss_end = ABSOLUTE (.)

.SDRAM          0x0019e07c        0x0
                0x0019e07c                PROVIDE (_alt_partition_SDRAM_start, ABSOLUTE (.))
 *(.SDRAM. SDRAM.*)
                0x0019e07c                . = ALIGN (0x4)
                0x0019e07c                PROVIDE (_alt_partition_SDRAM_end, ABSOLUTE (.))
                0x0019e07c                _end = ABSOLUTE (.)
                0x0019e07c                end = ABSOLUTE (.)
                0x0019e07c                __alt_stack_base = ABSOLUTE (.)
                0x0019e07c                PROVIDE (_alt_partition_SDRAM_load_addr, LOADADDR (.SDRAM))

.Flash_flash_data
                0x0c000000        0x0 load address 0x0019e07c
                0x0c000000                PROVIDE (_alt_partition_Flash_flash_data_start, ABSOLUTE (.))
 *(.Flash_flash_data. Flash_flash_data.*)
                0x0c000000                . = ALIGN (0x4)
                0x0c000000                PROVIDE (_alt_partition_Flash_flash_data_end, ABSOLUTE (.))
                0x0019e07c                PROVIDE (_alt_partition_Flash_flash_data_load_addr, LOADADDR (.Flash_flash_data))

.stab
 *(.stab)

.stabstr
 *(.stabstr)

.stab.excl
 *(.stab.excl)

.stab.exclstr
 *(.stab.exclstr)

.stab.index
 *(.stab.index)

.stab.indexstr
 *(.stab.indexstr)

.comment        0x00000000       0x26
 *(.comment)
 .comment       0x00000000       0x26 obj/default/PS2_ISR.o
                                 0x27 (size before relaxing)
 .comment       0x00000000       0x27 obj/default/audio_ISR.o
 .comment       0x00000000       0x27 obj/default/globals.o
 .comment       0x00000000       0x27 obj/default/interval_timer_ISR.o
 .comment       0x00000000       0x27 obj/default/media_interrupt_HAL.o
 .comment       0x00000000       0x27 obj/default/pushbutton_ISR.o
 .comment       0x00000000       0x27 d:/fpga/nios2eds/bin/gnu/h-i686-mingw32/bin/../lib/gcc/nios2-elf/4.1.2\libgcc.a(_si_to_sf.o)
 .comment       0x00000000       0x27 d:/fpga/nios2eds/bin/gnu/h-i686-mingw32/bin/../lib/gcc/nios2-elf/4.1.2\libgcc.a(_sf_to_si.o)
 .comment       0x00000000       0x27 d:/fpga/nios2eds/bin/gnu/h-i686-mingw32/bin/../lib/gcc/nios2-elf/4.1.2\libgcc.a(_sf_to_df.o)
 .comment       0x00000000       0x27 d:/fpga/nios2eds/bin/gnu/h-i686-mingw32/bin/../lib/gcc/nios2-elf/4.1.2\libgcc.a(_usi_to_sf.o)
 .comment       0x00000000       0x27 d:/fpga/nios2eds/bin/gnu/h-i686-mingw32/bin/../lib/gcc/nios2-elf/4.1.2\libgcc.a(_make_df.o)
 .comment       0x00000000       0x27 d:/fpga/nios2eds/bin/gnu/h-i686-mingw32/bin/../lib/gcc/nios2-elf/4.1.2\libgcc.a(_clzsi2.o)
 .comment       0x00000000       0x27 d:/fpga/nios2eds/bin/gnu/h-i686-mingw32/bin/../lib/gcc/nios2-elf/4.1.2\libgcc.a(_pack_sf.o)
 .comment       0x00000000       0x27 d:/fpga/nios2eds/bin/gnu/h-i686-mingw32/bin/../lib/gcc/nios2-elf/4.1.2\libgcc.a(_unpack_sf.o)
 .comment       0x00000000       0x27 d:/fpga/nios2eds/bin/gnu/h-i686-mingw32/bin/../lib/gcc/nios2-elf/4.1.2\libgcc.a(_pack_df.o)
 .comment       0x00000000       0x27 d:/fpga/nios2eds/bin/gnu/h-i686-mingw32/bin/../lib/gcc/nios2-elf/4.1.2\libgcc.a(_clz.o)
 .comment       0x00000000       0x27 d:/fpga/nios2eds/bin/gnu/h-i686-mingw32/bin/../lib/gcc/nios2-elf/4.1.2/../../../../nios2-elf/lib\libc.a(lib_a-memcpy.o)
 .comment       0x00000000       0x27 d:/fpga/nios2eds/bin/gnu/h-i686-mingw32/bin/../lib/gcc/nios2-elf/4.1.2/../../../../nios2-elf/lib\libc.a(lib_a-memset.o)
 .comment       0x00000000       0x27 d:/fpga/nios2eds/bin/gnu/h-i686-mingw32/bin/../lib/gcc/nios2-elf/4.1.2/../../../../nios2-elf/lib\libc.a(lib_a-printf.o)
 .comment       0x00000000       0x27 d:/fpga/nios2eds/bin/gnu/h-i686-mingw32/bin/../lib/gcc/nios2-elf/4.1.2/../../../../nios2-elf/lib\libc.a(lib_a-vfprintf.o)
 .comment       0x00000000       0x27 d:/fpga/nios2eds/bin/gnu/h-i686-mingw32/bin/../lib/gcc/nios2-elf/4.1.2/../../../../nios2-elf/lib\libc.a(lib_a-wsetup.o)
 .comment       0x00000000       0x27 d:/fpga/nios2eds/bin/gnu/h-i686-mingw32/bin/../lib/gcc/nios2-elf/4.1.2/../../../../nios2-elf/lib\libc.a(lib_a-dtoa.o)
 .comment       0x00000000       0x27 d:/fpga/nios2eds/bin/gnu/h-i686-mingw32/bin/../lib/gcc/nios2-elf/4.1.2/../../../../nios2-elf/lib\libc.a(lib_a-fflush.o)
 .comment       0x00000000       0x27 d:/fpga/nios2eds/bin/gnu/h-i686-mingw32/bin/../lib/gcc/nios2-elf/4.1.2/../../../../nios2-elf/lib\libc.a(lib_a-findfp.o)
 .comment       0x00000000       0x27 d:/fpga/nios2eds/bin/gnu/h-i686-mingw32/bin/../lib/gcc/nios2-elf/4.1.2/../../../../nios2-elf/lib\libc.a(lib_a-freer.o)
 .comment       0x00000000       0x27 d:/fpga/nios2eds/bin/gnu/h-i686-mingw32/bin/../lib/gcc/nios2-elf/4.1.2/../../../../nios2-elf/lib\libc.a(lib_a-fvwrite.o)
 .comment       0x00000000       0x27 d:/fpga/nios2eds/bin/gnu/h-i686-mingw32/bin/../lib/gcc/nios2-elf/4.1.2/../../../../nios2-elf/lib\libc.a(lib_a-fwalk.o)
 .comment       0x00000000       0x27 d:/fpga/nios2eds/bin/gnu/h-i686-mingw32/bin/../lib/gcc/nios2-elf/4.1.2/../../../../nios2-elf/lib\libc.a(lib_a-impure.o)
 .comment       0x00000000       0x27 d:/fpga/nios2eds/bin/gnu/h-i686-mingw32/bin/../lib/gcc/nios2-elf/4.1.2/../../../../nios2-elf/lib\libc.a(lib_a-locale.o)
 .comment       0x00000000       0x27 d:/fpga/nios2eds/bin/gnu/h-i686-mingw32/bin/../lib/gcc/nios2-elf/4.1.2/../../../../nios2-elf/lib\libc.a(lib_a-makebuf.o)
 .comment       0x00000000       0x27 d:/fpga/nios2eds/bin/gnu/h-i686-mingw32/bin/../lib/gcc/nios2-elf/4.1.2/../../../../nios2-elf/lib\libc.a(lib_a-mallocr.o)
 .comment       0x00000000       0x27 d:/fpga/nios2eds/bin/gnu/h-i686-mingw32/bin/../lib/gcc/nios2-elf/4.1.2/../../../../nios2-elf/lib\libc.a(lib_a-memchr.o)
 .comment       0x00000000       0x27 d:/fpga/nios2eds/bin/gnu/h-i686-mingw32/bin/../lib/gcc/nios2-elf/4.1.2/../../../../nios2-elf/lib\libc.a(lib_a-memmove.o)
 .comment       0x00000000       0x27 d:/fpga/nios2eds/bin/gnu/h-i686-mingw32/bin/../lib/gcc/nios2-elf/4.1.2/../../../../nios2-elf/lib\libc.a(lib_a-mprec.o)
 .comment       0x00000000       0x27 d:/fpga/nios2eds/bin/gnu/h-i686-mingw32/bin/../lib/gcc/nios2-elf/4.1.2/../../../../nios2-elf/lib\libc.a(lib_a-reallocr.o)
 .comment       0x00000000       0x27 d:/fpga/nios2eds/bin/gnu/h-i686-mingw32/bin/../lib/gcc/nios2-elf/4.1.2/../../../../nios2-elf/lib\libc.a(lib_a-s_isinfd.o)
 .comment       0x00000000       0x27 d:/fpga/nios2eds/bin/gnu/h-i686-mingw32/bin/../lib/gcc/nios2-elf/4.1.2/../../../../nios2-elf/lib\libc.a(lib_a-s_isnand.o)
 .comment       0x00000000       0x27 d:/fpga/nios2eds/bin/gnu/h-i686-mingw32/bin/../lib/gcc/nios2-elf/4.1.2/../../../../nios2-elf/lib\libc.a(lib_a-sbrkr.o)
 .comment       0x00000000       0x27 d:/fpga/nios2eds/bin/gnu/h-i686-mingw32/bin/../lib/gcc/nios2-elf/4.1.2/../../../../nios2-elf/lib\libc.a(lib_a-stdio.o)
 .comment       0x00000000       0x27 d:/fpga/nios2eds/bin/gnu/h-i686-mingw32/bin/../lib/gcc/nios2-elf/4.1.2/../../../../nios2-elf/lib\libc.a(lib_a-strcmp.o)
 .comment       0x00000000       0x27 d:/fpga/nios2eds/bin/gnu/h-i686-mingw32/bin/../lib/gcc/nios2-elf/4.1.2/../../../../nios2-elf/lib\libc.a(lib_a-strlen.o)
 .comment       0x00000000       0x27 d:/fpga/nios2eds/bin/gnu/h-i686-mingw32/bin/../lib/gcc/nios2-elf/4.1.2/../../../../nios2-elf/lib\libc.a(lib_a-writer.o)
 .comment       0x00000000       0x27 d:/fpga/nios2eds/bin/gnu/h-i686-mingw32/bin/../lib/gcc/nios2-elf/4.1.2/../../../../nios2-elf/lib\libc.a(lib_a-callocr.o)
 .comment       0x00000000       0x27 d:/fpga/nios2eds/bin/gnu/h-i686-mingw32/bin/../lib/gcc/nios2-elf/4.1.2/../../../../nios2-elf/lib\libc.a(lib_a-closer.o)
 .comment       0x00000000       0x27 d:/fpga/nios2eds/bin/gnu/h-i686-mingw32/bin/../lib/gcc/nios2-elf/4.1.2/../../../../nios2-elf/lib\libc.a(lib_a-fclose.o)
 .comment       0x00000000       0x27 d:/fpga/nios2eds/bin/gnu/h-i686-mingw32/bin/../lib/gcc/nios2-elf/4.1.2/../../../../nios2-elf/lib\libc.a(lib_a-fstatr.o)
 .comment       0x00000000       0x27 d:/fpga/nios2eds/bin/gnu/h-i686-mingw32/bin/../lib/gcc/nios2-elf/4.1.2/../../../../nios2-elf/lib\libc.a(lib_a-int_errno.o)
 .comment       0x00000000       0x27 d:/fpga/nios2eds/bin/gnu/h-i686-mingw32/bin/../lib/gcc/nios2-elf/4.1.2/../../../../nios2-elf/lib\libc.a(lib_a-isattyr.o)
 .comment       0x00000000       0x27 d:/fpga/nios2eds/bin/gnu/h-i686-mingw32/bin/../lib/gcc/nios2-elf/4.1.2/../../../../nios2-elf/lib\libc.a(lib_a-lseekr.o)
 .comment       0x00000000       0x27 d:/fpga/nios2eds/bin/gnu/h-i686-mingw32/bin/../lib/gcc/nios2-elf/4.1.2/../../../../nios2-elf/lib\libc.a(lib_a-readr.o)
 .comment       0x00000000       0x27 d:/fpga/nios2eds/bin/gnu/h-i686-mingw32/bin/../lib/gcc/nios2-elf/4.1.2\libgcc.a(_udivdi3.o)
 .comment       0x00000000       0x27 d:/fpga/nios2eds/bin/gnu/h-i686-mingw32/bin/../lib/gcc/nios2-elf/4.1.2\libgcc.a(_umoddi3.o)
 .comment       0x00000000       0x27 d:/fpga/nios2eds/bin/gnu/h-i686-mingw32/bin/../lib/gcc/nios2-elf/4.1.2\libgcc.a(_addsub_df.o)
 .comment       0x00000000       0x27 d:/fpga/nios2eds/bin/gnu/h-i686-mingw32/bin/../lib/gcc/nios2-elf/4.1.2\libgcc.a(_mul_df.o)
 .comment       0x00000000       0x27 d:/fpga/nios2eds/bin/gnu/h-i686-mingw32/bin/../lib/gcc/nios2-elf/4.1.2\libgcc.a(_div_df.o)
 .comment       0x00000000       0x27 d:/fpga/nios2eds/bin/gnu/h-i686-mingw32/bin/../lib/gcc/nios2-elf/4.1.2\libgcc.a(_eq_df.o)
 .comment       0x00000000       0x27 d:/fpga/nios2eds/bin/gnu/h-i686-mingw32/bin/../lib/gcc/nios2-elf/4.1.2\libgcc.a(_ne_df.o)
 .comment       0x00000000       0x27 d:/fpga/nios2eds/bin/gnu/h-i686-mingw32/bin/../lib/gcc/nios2-elf/4.1.2\libgcc.a(_gt_df.o)
 .comment       0x00000000       0x27 d:/fpga/nios2eds/bin/gnu/h-i686-mingw32/bin/../lib/gcc/nios2-elf/4.1.2\libgcc.a(_ge_df.o)
 .comment       0x00000000       0x27 d:/fpga/nios2eds/bin/gnu/h-i686-mingw32/bin/../lib/gcc/nios2-elf/4.1.2\libgcc.a(_lt_df.o)
 .comment       0x00000000       0x27 d:/fpga/nios2eds/bin/gnu/h-i686-mingw32/bin/../lib/gcc/nios2-elf/4.1.2\libgcc.a(_si_to_df.o)
 .comment       0x00000000       0x27 d:/fpga/nios2eds/bin/gnu/h-i686-mingw32/bin/../lib/gcc/nios2-elf/4.1.2\libgcc.a(_df_to_si.o)
 .comment       0x00000000       0x27 d:/fpga/nios2eds/bin/gnu/h-i686-mingw32/bin/../lib/gcc/nios2-elf/4.1.2\libgcc.a(_thenan_df.o)
 .comment       0x00000000       0x27 d:/fpga/nios2eds/bin/gnu/h-i686-mingw32/bin/../lib/gcc/nios2-elf/4.1.2\libgcc.a(_usi_to_df.o)
 .comment       0x00000000       0x27 d:/fpga/nios2eds/bin/gnu/h-i686-mingw32/bin/../lib/gcc/nios2-elf/4.1.2\libgcc.a(lib2-divmod.o)
 .comment       0x00000000       0x27 d:/fpga/nios2eds/bin/gnu/h-i686-mingw32/bin/../lib/gcc/nios2-elf/4.1.2\libgcc.a(_muldi3.o)
 .comment       0x00000000       0x27 d:/fpga/nios2eds/bin/gnu/h-i686-mingw32/bin/../lib/gcc/nios2-elf/4.1.2\libgcc.a(_unpack_df.o)
 .comment       0x00000000       0x27 d:/fpga/nios2eds/bin/gnu/h-i686-mingw32/bin/../lib/gcc/nios2-elf/4.1.2\libgcc.a(_fpcmp_parts_df.o)
 .comment       0x00000000       0x27 ../Hardware_Denoise_bsp/\libhal_bsp.a(alt_close.o)
 .comment       0x00000000       0x27 ../Hardware_Denoise_bsp/\libhal_bsp.a(alt_dev.o)
 .comment       0x00000000       0x27 ../Hardware_Denoise_bsp/\libhal_bsp.a(alt_errno.o)
 .comment       0x00000000       0x27 ../Hardware_Denoise_bsp/\libhal_bsp.a(alt_fstat.o)
 .comment       0x00000000       0x27 ../Hardware_Denoise_bsp/\libhal_bsp.a(alt_irq_register.o)
 .comment       0x00000000       0x27 ../Hardware_Denoise_bsp/\libhal_bsp.a(alt_irq_vars.o)
 .comment       0x00000000       0x27 ../Hardware_Denoise_bsp/\libhal_bsp.a(alt_isatty.o)
 .comment       0x00000000       0x27 ../Hardware_Denoise_bsp/\libhal_bsp.a(alt_load.o)
 .comment       0x00000000       0x27 ../Hardware_Denoise_bsp/\libhal_bsp.a(alt_lseek.o)
 .comment       0x00000000       0x27 ../Hardware_Denoise_bsp/\libhal_bsp.a(alt_main.o)
 .comment       0x00000000       0x27 ../Hardware_Denoise_bsp/\libhal_bsp.a(alt_malloc_lock.o)
 .comment       0x00000000       0x27 ../Hardware_Denoise_bsp/\libhal_bsp.a(alt_printf.o)
 .comment       0x00000000       0x27 ../Hardware_Denoise_bsp/\libhal_bsp.a(alt_putchar.o)
 .comment       0x00000000       0x27 ../Hardware_Denoise_bsp/\libhal_bsp.a(alt_read.o)
 .comment       0x00000000       0x27 ../Hardware_Denoise_bsp/\libhal_bsp.a(alt_release_fd.o)
 .comment       0x00000000       0x27 ../Hardware_Denoise_bsp/\libhal_bsp.a(alt_sbrk.o)
 .comment       0x00000000       0x27 ../Hardware_Denoise_bsp/\libhal_bsp.a(alt_write.o)
 .comment       0x00000000       0x27 ../Hardware_Denoise_bsp/\libhal_bsp.a(alt_sys_init.o)
 .comment       0x00000000       0x27 ../Hardware_Denoise_bsp/\libhal_bsp.a(altera_avalon_jtag_uart_fd.o)
 .comment       0x00000000       0x27 ../Hardware_Denoise_bsp/\libhal_bsp.a(altera_avalon_jtag_uart_init.o)
 .comment       0x00000000       0x27 ../Hardware_Denoise_bsp/\libhal_bsp.a(altera_avalon_jtag_uart_ioctl.o)
 .comment       0x00000000       0x27 ../Hardware_Denoise_bsp/\libhal_bsp.a(altera_avalon_jtag_uart_read.o)
 .comment       0x00000000       0x27 ../Hardware_Denoise_bsp/\libhal_bsp.a(altera_avalon_jtag_uart_write.o)
 .comment       0x00000000       0x27 ../Hardware_Denoise_bsp/\libhal_bsp.a(altera_avalon_timer_ts.o)
 .comment       0x00000000       0x27 ../Hardware_Denoise_bsp/\libhal_bsp.a(altera_avalon_timer_vars.o)
 .comment       0x00000000       0x27 ../Hardware_Denoise_bsp/\libhal_bsp.a(altera_up_avalon_audio.o)
 .comment       0x00000000       0x27 ../Hardware_Denoise_bsp/\libhal_bsp.a(altera_up_avalon_character_lcd.o)
 .comment       0x00000000       0x27 ../Hardware_Denoise_bsp/\libhal_bsp.a(altera_up_avalon_ethernet.o)
 .comment       0x00000000       0x27 ../Hardware_Denoise_bsp/\libhal_bsp.a(altera_up_avalon_ethernet_low_level_driver.o)
 .comment       0x00000000       0x27 ../Hardware_Denoise_bsp/\libhal_bsp.a(altera_up_avalon_irda.o)
 .comment       0x00000000       0x27 ../Hardware_Denoise_bsp/\libhal_bsp.a(altera_up_avalon_parallel_port.o)
 .comment       0x00000000       0x27 ../Hardware_Denoise_bsp/\libhal_bsp.a(altera_up_avalon_ps2.o)
 .comment       0x00000000       0x27 ../Hardware_Denoise_bsp/\libhal_bsp.a(altera_up_avalon_rs232.o)
 .comment       0x00000000       0x27 ../Hardware_Denoise_bsp/\libhal_bsp.a(altera_up_avalon_video_character_buffer_with_dma.o)
 .comment       0x00000000       0x27 ../Hardware_Denoise_bsp/\libhal_bsp.a(altera_up_avalon_video_pixel_buffer_dma.o)
 .comment       0x00000000       0x27 ../Hardware_Denoise_bsp/\libhal_bsp.a(alt_alarm_start.o)
 .comment       0x00000000       0x27 ../Hardware_Denoise_bsp/\libhal_bsp.a(alt_dcache_flush_all.o)
 .comment       0x00000000       0x27 ../Hardware_Denoise_bsp/\libhal_bsp.a(alt_dev_llist_insert.o)
 .comment       0x00000000       0x27 ../Hardware_Denoise_bsp/\libhal_bsp.a(alt_do_ctors.o)
 .comment       0x00000000       0x27 ../Hardware_Denoise_bsp/\libhal_bsp.a(alt_do_dtors.o)
 .comment       0x00000000       0x27 ../Hardware_Denoise_bsp/\libhal_bsp.a(alt_find_dev.o)
 .comment       0x00000000       0x27 ../Hardware_Denoise_bsp/\libhal_bsp.a(alt_icache_flush_all.o)
 .comment       0x00000000       0x27 ../Hardware_Denoise_bsp/\libhal_bsp.a(alt_io_redirect.o)
 .comment       0x00000000       0x27 ../Hardware_Denoise_bsp/\libhal_bsp.a(alt_irq_handler.o)
 .comment       0x00000000       0x27 ../Hardware_Denoise_bsp/\libhal_bsp.a(alt_open.o)
 .comment       0x00000000       0x27 ../Hardware_Denoise_bsp/\libhal_bsp.a(alt_tick.o)
 .comment       0x00000000       0x27 ../Hardware_Denoise_bsp/\libhal_bsp.a(alt_usleep.o)
 .comment       0x00000000       0x27 ../Hardware_Denoise_bsp/\libhal_bsp.a(altera_nios2_qsys_irq.o)
 .comment       0x00000000       0x27 ../Hardware_Denoise_bsp/\libhal_bsp.a(alt_busy_sleep.o)
 .comment       0x00000000       0x27 ../Hardware_Denoise_bsp/\libhal_bsp.a(alt_find_file.o)
 .comment       0x00000000       0x27 ../Hardware_Denoise_bsp/\libhal_bsp.a(alt_get_fd.o)
 .comment       0x00000000       0x27 ../Hardware_Denoise_bsp/\libhal_bsp.a(alt_icache_flush.o)
 .comment       0x00000000       0x27 d:/fpga/nios2eds/bin/gnu/h-i686-mingw32/bin/../lib/gcc/nios2-elf/4.1.2/../../../../nios2-elf/lib\libc.a(lib_a-atexit.o)
 .comment       0x00000000       0x27 d:/fpga/nios2eds/bin/gnu/h-i686-mingw32/bin/../lib/gcc/nios2-elf/4.1.2/../../../../nios2-elf/lib\libc.a(lib_a-exit.o)
 .comment       0x00000000       0x27 d:/fpga/nios2eds/bin/gnu/h-i686-mingw32/bin/../lib/gcc/nios2-elf/4.1.2/../../../../nios2-elf/lib\libc.a(lib_a-memcmp.o)
 .comment       0x00000000       0x27 d:/fpga/nios2eds/bin/gnu/h-i686-mingw32/bin/../lib/gcc/nios2-elf/4.1.2/../../../../nios2-elf/lib\libc.a(lib_a-putc.o)
 .comment       0x00000000       0x27 d:/fpga/nios2eds/bin/gnu/h-i686-mingw32/bin/../lib/gcc/nios2-elf/4.1.2/../../../../nios2-elf/lib\libc.a(lib_a-wbuf.o)
 .comment       0x00000000       0x27 d:/fpga/nios2eds/bin/gnu/h-i686-mingw32/bin/../lib/gcc/nios2-elf/4.1.2/../../../../nios2-elf/lib\libc.a(lib_a-__atexit.o)
 .comment       0x00000000       0x27 d:/fpga/nios2eds/bin/gnu/h-i686-mingw32/bin/../lib/gcc/nios2-elf/4.1.2/../../../../nios2-elf/lib\libc.a(lib_a-__call_atexit.o)
 .comment       0x00000000       0x27 ../Hardware_Denoise_bsp/\libhal_bsp.a(alt_exit.o)

.debug
 *(.debug)

.line
 *(.line)

.debug_srcinfo
 *(.debug_srcinfo)

.debug_sfnames
 *(.debug_sfnames)

.debug_aranges  0x00000000      0xf98
 *(.debug_aranges)
 .debug_aranges
                0x00000000       0x28 ../Hardware_Denoise_bsp//obj/HAL/src/crt0.o
 .debug_aranges
                0x00000028       0x20 obj/default/PS2_ISR.o
 .debug_aranges
                0x00000048       0x20 obj/default/audio_ISR.o
 .debug_aranges
                0x00000068       0x20 obj/default/interval_timer_ISR.o
 .debug_aranges
                0x00000088       0x20 obj/default/media_interrupt_HAL.o
 .debug_aranges
                0x000000a8       0x20 obj/default/pushbutton_ISR.o
 .debug_aranges
                0x000000c8       0x20 d:/fpga/nios2eds/bin/gnu/h-i686-mingw32/bin/../lib/gcc/nios2-elf/4.1.2\libgcc.a(_si_to_sf.o)
 .debug_aranges
                0x000000e8       0x20 d:/fpga/nios2eds/bin/gnu/h-i686-mingw32/bin/../lib/gcc/nios2-elf/4.1.2\libgcc.a(_sf_to_si.o)
 .debug_aranges
                0x00000108       0x20 d:/fpga/nios2eds/bin/gnu/h-i686-mingw32/bin/../lib/gcc/nios2-elf/4.1.2\libgcc.a(_sf_to_df.o)
 .debug_aranges
                0x00000128       0x20 d:/fpga/nios2eds/bin/gnu/h-i686-mingw32/bin/../lib/gcc/nios2-elf/4.1.2\libgcc.a(_usi_to_sf.o)
 .debug_aranges
                0x00000148       0x20 d:/fpga/nios2eds/bin/gnu/h-i686-mingw32/bin/../lib/gcc/nios2-elf/4.1.2\libgcc.a(_make_df.o)
 .debug_aranges
                0x00000168       0x20 d:/fpga/nios2eds/bin/gnu/h-i686-mingw32/bin/../lib/gcc/nios2-elf/4.1.2\libgcc.a(_clzsi2.o)
 .debug_aranges
                0x00000188       0x20 d:/fpga/nios2eds/bin/gnu/h-i686-mingw32/bin/../lib/gcc/nios2-elf/4.1.2\libgcc.a(_pack_sf.o)
 .debug_aranges
                0x000001a8       0x20 d:/fpga/nios2eds/bin/gnu/h-i686-mingw32/bin/../lib/gcc/nios2-elf/4.1.2\libgcc.a(_unpack_sf.o)
 .debug_aranges
                0x000001c8       0x20 d:/fpga/nios2eds/bin/gnu/h-i686-mingw32/bin/../lib/gcc/nios2-elf/4.1.2\libgcc.a(_pack_df.o)
 .debug_aranges
                0x000001e8       0x20 d:/fpga/nios2eds/bin/gnu/h-i686-mingw32/bin/../lib/gcc/nios2-elf/4.1.2/../../../../nios2-elf/lib\libc.a(lib_a-memcpy.o)
 .debug_aranges
                0x00000208       0x20 d:/fpga/nios2eds/bin/gnu/h-i686-mingw32/bin/../lib/gcc/nios2-elf/4.1.2/../../../../nios2-elf/lib\libc.a(lib_a-memset.o)
 .debug_aranges
                0x00000228       0x20 d:/fpga/nios2eds/bin/gnu/h-i686-mingw32/bin/../lib/gcc/nios2-elf/4.1.2/../../../../nios2-elf/lib\libc.a(lib_a-printf.o)
 .debug_aranges
                0x00000248       0x20 d:/fpga/nios2eds/bin/gnu/h-i686-mingw32/bin/../lib/gcc/nios2-elf/4.1.2/../../../../nios2-elf/lib\libc.a(lib_a-vfprintf.o)
 .debug_aranges
                0x00000268       0x20 d:/fpga/nios2eds/bin/gnu/h-i686-mingw32/bin/../lib/gcc/nios2-elf/4.1.2/../../../../nios2-elf/lib\libc.a(lib_a-wsetup.o)
 .debug_aranges
                0x00000288       0x20 d:/fpga/nios2eds/bin/gnu/h-i686-mingw32/bin/../lib/gcc/nios2-elf/4.1.2/../../../../nios2-elf/lib\libc.a(lib_a-dtoa.o)
 .debug_aranges
                0x000002a8       0x20 d:/fpga/nios2eds/bin/gnu/h-i686-mingw32/bin/../lib/gcc/nios2-elf/4.1.2/../../../../nios2-elf/lib\libc.a(lib_a-fflush.o)
 .debug_aranges
                0x000002c8       0x20 d:/fpga/nios2eds/bin/gnu/h-i686-mingw32/bin/../lib/gcc/nios2-elf/4.1.2/../../../../nios2-elf/lib\libc.a(lib_a-findfp.o)
 .debug_aranges
                0x000002e8       0x20 d:/fpga/nios2eds/bin/gnu/h-i686-mingw32/bin/../lib/gcc/nios2-elf/4.1.2/../../../../nios2-elf/lib\libc.a(lib_a-freer.o)
 .debug_aranges
                0x00000308       0x20 d:/fpga/nios2eds/bin/gnu/h-i686-mingw32/bin/../lib/gcc/nios2-elf/4.1.2/../../../../nios2-elf/lib\libc.a(lib_a-fvwrite.o)
 .debug_aranges
                0x00000328       0x20 d:/fpga/nios2eds/bin/gnu/h-i686-mingw32/bin/../lib/gcc/nios2-elf/4.1.2/../../../../nios2-elf/lib\libc.a(lib_a-fwalk.o)
 .debug_aranges
                0x00000348       0x20 d:/fpga/nios2eds/bin/gnu/h-i686-mingw32/bin/../lib/gcc/nios2-elf/4.1.2/../../../../nios2-elf/lib\libc.a(lib_a-locale.o)
 .debug_aranges
                0x00000368       0x20 d:/fpga/nios2eds/bin/gnu/h-i686-mingw32/bin/../lib/gcc/nios2-elf/4.1.2/../../../../nios2-elf/lib\libc.a(lib_a-makebuf.o)
 .debug_aranges
                0x00000388       0x20 d:/fpga/nios2eds/bin/gnu/h-i686-mingw32/bin/../lib/gcc/nios2-elf/4.1.2/../../../../nios2-elf/lib\libc.a(lib_a-mallocr.o)
 .debug_aranges
                0x000003a8       0x20 d:/fpga/nios2eds/bin/gnu/h-i686-mingw32/bin/../lib/gcc/nios2-elf/4.1.2/../../../../nios2-elf/lib\libc.a(lib_a-memchr.o)
 .debug_aranges
                0x000003c8       0x20 d:/fpga/nios2eds/bin/gnu/h-i686-mingw32/bin/../lib/gcc/nios2-elf/4.1.2/../../../../nios2-elf/lib\libc.a(lib_a-memmove.o)
 .debug_aranges
                0x000003e8       0x20 d:/fpga/nios2eds/bin/gnu/h-i686-mingw32/bin/../lib/gcc/nios2-elf/4.1.2/../../../../nios2-elf/lib\libc.a(lib_a-mprec.o)
 .debug_aranges
                0x00000408       0x20 d:/fpga/nios2eds/bin/gnu/h-i686-mingw32/bin/../lib/gcc/nios2-elf/4.1.2/../../../../nios2-elf/lib\libc.a(lib_a-reallocr.o)
 .debug_aranges
                0x00000428       0x20 d:/fpga/nios2eds/bin/gnu/h-i686-mingw32/bin/../lib/gcc/nios2-elf/4.1.2/../../../../nios2-elf/lib\libc.a(lib_a-s_isinfd.o)
 .debug_aranges
                0x00000448       0x20 d:/fpga/nios2eds/bin/gnu/h-i686-mingw32/bin/../lib/gcc/nios2-elf/4.1.2/../../../../nios2-elf/lib\libc.a(lib_a-s_isnand.o)
 .debug_aranges
                0x00000468       0x20 d:/fpga/nios2eds/bin/gnu/h-i686-mingw32/bin/../lib/gcc/nios2-elf/4.1.2/../../../../nios2-elf/lib\libc.a(lib_a-sbrkr.o)
 .debug_aranges
                0x00000488       0x20 d:/fpga/nios2eds/bin/gnu/h-i686-mingw32/bin/../lib/gcc/nios2-elf/4.1.2/../../../../nios2-elf/lib\libc.a(lib_a-stdio.o)
 .debug_aranges
                0x000004a8       0x20 d:/fpga/nios2eds/bin/gnu/h-i686-mingw32/bin/../lib/gcc/nios2-elf/4.1.2/../../../../nios2-elf/lib\libc.a(lib_a-strcmp.o)
 .debug_aranges
                0x000004c8       0x20 d:/fpga/nios2eds/bin/gnu/h-i686-mingw32/bin/../lib/gcc/nios2-elf/4.1.2/../../../../nios2-elf/lib\libc.a(lib_a-strlen.o)
 .debug_aranges
                0x000004e8       0x20 d:/fpga/nios2eds/bin/gnu/h-i686-mingw32/bin/../lib/gcc/nios2-elf/4.1.2/../../../../nios2-elf/lib\libc.a(lib_a-writer.o)
 .debug_aranges
                0x00000508       0x20 d:/fpga/nios2eds/bin/gnu/h-i686-mingw32/bin/../lib/gcc/nios2-elf/4.1.2/../../../../nios2-elf/lib\libc.a(lib_a-callocr.o)
 .debug_aranges
                0x00000528       0x20 d:/fpga/nios2eds/bin/gnu/h-i686-mingw32/bin/../lib/gcc/nios2-elf/4.1.2/../../../../nios2-elf/lib\libc.a(lib_a-closer.o)
 .debug_aranges
                0x00000548       0x20 d:/fpga/nios2eds/bin/gnu/h-i686-mingw32/bin/../lib/gcc/nios2-elf/4.1.2/../../../../nios2-elf/lib\libc.a(lib_a-fclose.o)
 .debug_aranges
                0x00000568       0x20 d:/fpga/nios2eds/bin/gnu/h-i686-mingw32/bin/../lib/gcc/nios2-elf/4.1.2/../../../../nios2-elf/lib\libc.a(lib_a-fstatr.o)
 .debug_aranges
                0x00000588       0x20 d:/fpga/nios2eds/bin/gnu/h-i686-mingw32/bin/../lib/gcc/nios2-elf/4.1.2/../../../../nios2-elf/lib\libc.a(lib_a-isattyr.o)
 .debug_aranges
                0x000005a8       0x20 d:/fpga/nios2eds/bin/gnu/h-i686-mingw32/bin/../lib/gcc/nios2-elf/4.1.2/../../../../nios2-elf/lib\libc.a(lib_a-lseekr.o)
 .debug_aranges
                0x000005c8       0x20 d:/fpga/nios2eds/bin/gnu/h-i686-mingw32/bin/../lib/gcc/nios2-elf/4.1.2/../../../../nios2-elf/lib\libc.a(lib_a-readr.o)
 .debug_aranges
                0x000005e8       0x20 d:/fpga/nios2eds/bin/gnu/h-i686-mingw32/bin/../lib/gcc/nios2-elf/4.1.2\libgcc.a(_udivdi3.o)
 .debug_aranges
                0x00000608       0x20 d:/fpga/nios2eds/bin/gnu/h-i686-mingw32/bin/../lib/gcc/nios2-elf/4.1.2\libgcc.a(_umoddi3.o)
 .debug_aranges
                0x00000628       0x20 d:/fpga/nios2eds/bin/gnu/h-i686-mingw32/bin/../lib/gcc/nios2-elf/4.1.2\libgcc.a(_addsub_df.o)
 .debug_aranges
                0x00000648       0x20 d:/fpga/nios2eds/bin/gnu/h-i686-mingw32/bin/../lib/gcc/nios2-elf/4.1.2\libgcc.a(_mul_df.o)
 .debug_aranges
                0x00000668       0x20 d:/fpga/nios2eds/bin/gnu/h-i686-mingw32/bin/../lib/gcc/nios2-elf/4.1.2\libgcc.a(_div_df.o)
 .debug_aranges
                0x00000688       0x20 d:/fpga/nios2eds/bin/gnu/h-i686-mingw32/bin/../lib/gcc/nios2-elf/4.1.2\libgcc.a(_eq_df.o)
 .debug_aranges
                0x000006a8       0x20 d:/fpga/nios2eds/bin/gnu/h-i686-mingw32/bin/../lib/gcc/nios2-elf/4.1.2\libgcc.a(_ne_df.o)
 .debug_aranges
                0x000006c8       0x20 d:/fpga/nios2eds/bin/gnu/h-i686-mingw32/bin/../lib/gcc/nios2-elf/4.1.2\libgcc.a(_gt_df.o)
 .debug_aranges
                0x000006e8       0x20 d:/fpga/nios2eds/bin/gnu/h-i686-mingw32/bin/../lib/gcc/nios2-elf/4.1.2\libgcc.a(_ge_df.o)
 .debug_aranges
                0x00000708       0x20 d:/fpga/nios2eds/bin/gnu/h-i686-mingw32/bin/../lib/gcc/nios2-elf/4.1.2\libgcc.a(_lt_df.o)
 .debug_aranges
                0x00000728       0x20 d:/fpga/nios2eds/bin/gnu/h-i686-mingw32/bin/../lib/gcc/nios2-elf/4.1.2\libgcc.a(_si_to_df.o)
 .debug_aranges
                0x00000748       0x20 d:/fpga/nios2eds/bin/gnu/h-i686-mingw32/bin/../lib/gcc/nios2-elf/4.1.2\libgcc.a(_df_to_si.o)
 .debug_aranges
                0x00000768       0x20 d:/fpga/nios2eds/bin/gnu/h-i686-mingw32/bin/../lib/gcc/nios2-elf/4.1.2\libgcc.a(_usi_to_df.o)
 .debug_aranges
                0x00000788       0x20 d:/fpga/nios2eds/bin/gnu/h-i686-mingw32/bin/../lib/gcc/nios2-elf/4.1.2\libgcc.a(lib2-divmod.o)
 .debug_aranges
                0x000007a8       0x20 d:/fpga/nios2eds/bin/gnu/h-i686-mingw32/bin/../lib/gcc/nios2-elf/4.1.2\libgcc.a(_muldi3.o)
 .debug_aranges
                0x000007c8       0x20 d:/fpga/nios2eds/bin/gnu/h-i686-mingw32/bin/../lib/gcc/nios2-elf/4.1.2\libgcc.a(_unpack_df.o)
 .debug_aranges
                0x000007e8       0x20 d:/fpga/nios2eds/bin/gnu/h-i686-mingw32/bin/../lib/gcc/nios2-elf/4.1.2\libgcc.a(_fpcmp_parts_df.o)
 .debug_aranges
                0x00000808       0x20 ../Hardware_Denoise_bsp/\libhal_bsp.a(alt_close.o)
 .debug_aranges
                0x00000828       0x20 ../Hardware_Denoise_bsp/\libhal_bsp.a(alt_dev.o)
 .debug_aranges
                0x00000848       0x20 ../Hardware_Denoise_bsp/\libhal_bsp.a(alt_fstat.o)
 .debug_aranges
                0x00000868       0x20 ../Hardware_Denoise_bsp/\libhal_bsp.a(alt_irq_register.o)
 .debug_aranges
                0x00000888       0x20 ../Hardware_Denoise_bsp/\libhal_bsp.a(alt_isatty.o)
 .debug_aranges
                0x000008a8       0x20 ../Hardware_Denoise_bsp/\libhal_bsp.a(alt_load.o)
 .debug_aranges
                0x000008c8       0x20 ../Hardware_Denoise_bsp/\libhal_bsp.a(alt_lseek.o)
 .debug_aranges
                0x000008e8       0x20 ../Hardware_Denoise_bsp/\libhal_bsp.a(alt_main.o)
 .debug_aranges
                0x00000908       0x20 ../Hardware_Denoise_bsp/\libhal_bsp.a(alt_malloc_lock.o)
 .debug_aranges
                0x00000928       0x20 ../Hardware_Denoise_bsp/\libhal_bsp.a(alt_printf.o)
 .debug_aranges
                0x00000948       0x20 ../Hardware_Denoise_bsp/\libhal_bsp.a(alt_putchar.o)
 .debug_aranges
                0x00000968       0x20 ../Hardware_Denoise_bsp/\libhal_bsp.a(alt_read.o)
 .debug_aranges
                0x00000988       0x20 ../Hardware_Denoise_bsp/\libhal_bsp.a(alt_release_fd.o)
 .debug_aranges
                0x000009a8       0x20 ../Hardware_Denoise_bsp/\libhal_bsp.a(alt_sbrk.o)
 .debug_aranges
                0x000009c8       0x20 ../Hardware_Denoise_bsp/\libhal_bsp.a(alt_write.o)
 .debug_aranges
                0x000009e8       0x20 ../Hardware_Denoise_bsp/\libhal_bsp.a(alt_sys_init.o)
 .debug_aranges
                0x00000a08       0x20 ../Hardware_Denoise_bsp/\libhal_bsp.a(altera_avalon_jtag_uart_fd.o)
 .debug_aranges
                0x00000a28       0x20 ../Hardware_Denoise_bsp/\libhal_bsp.a(altera_avalon_jtag_uart_init.o)
 .debug_aranges
                0x00000a48       0x20 ../Hardware_Denoise_bsp/\libhal_bsp.a(altera_avalon_jtag_uart_ioctl.o)
 .debug_aranges
                0x00000a68       0x20 ../Hardware_Denoise_bsp/\libhal_bsp.a(altera_avalon_jtag_uart_read.o)
 .debug_aranges
                0x00000a88       0x20 ../Hardware_Denoise_bsp/\libhal_bsp.a(altera_avalon_jtag_uart_write.o)
 .debug_aranges
                0x00000aa8       0x20 ../Hardware_Denoise_bsp/\libhal_bsp.a(altera_avalon_timer_ts.o)
 .debug_aranges
                0x00000ac8       0x20 ../Hardware_Denoise_bsp/\libhal_bsp.a(altera_up_avalon_audio.o)
 .debug_aranges
                0x00000ae8       0x20 ../Hardware_Denoise_bsp/\libhal_bsp.a(altera_up_avalon_character_lcd.o)
 .debug_aranges
                0x00000b08       0x20 ../Hardware_Denoise_bsp/\libhal_bsp.a(altera_up_avalon_ethernet.o)
 .debug_aranges
                0x00000b28       0x20 ../Hardware_Denoise_bsp/\libhal_bsp.a(altera_up_avalon_ethernet_low_level_driver.o)
 .debug_aranges
                0x00000b48       0x20 ../Hardware_Denoise_bsp/\libhal_bsp.a(altera_up_avalon_irda.o)
 .debug_aranges
                0x00000b68       0x20 ../Hardware_Denoise_bsp/\libhal_bsp.a(altera_up_avalon_parallel_port.o)
 .debug_aranges
                0x00000b88       0x20 ../Hardware_Denoise_bsp/\libhal_bsp.a(altera_up_avalon_ps2.o)
 .debug_aranges
                0x00000ba8       0x20 ../Hardware_Denoise_bsp/\libhal_bsp.a(altera_up_avalon_rs232.o)
 .debug_aranges
                0x00000bc8       0x20 ../Hardware_Denoise_bsp/\libhal_bsp.a(altera_up_avalon_video_character_buffer_with_dma.o)
 .debug_aranges
                0x00000be8       0x20 ../Hardware_Denoise_bsp/\libhal_bsp.a(altera_up_avalon_video_pixel_buffer_dma.o)
 .debug_aranges
                0x00000c08       0x20 ../Hardware_Denoise_bsp/\libhal_bsp.a(alt_alarm_start.o)
 .debug_aranges
                0x00000c28       0x20 ../Hardware_Denoise_bsp/\libhal_bsp.a(alt_dcache_flush_all.o)
 .debug_aranges
                0x00000c48       0x20 ../Hardware_Denoise_bsp/\libhal_bsp.a(alt_dev_llist_insert.o)
 .debug_aranges
                0x00000c68       0x20 ../Hardware_Denoise_bsp/\libhal_bsp.a(alt_do_ctors.o)
 .debug_aranges
                0x00000c88       0x20 ../Hardware_Denoise_bsp/\libhal_bsp.a(alt_do_dtors.o)
 .debug_aranges
                0x00000ca8       0x20 ../Hardware_Denoise_bsp/\libhal_bsp.a(alt_find_dev.o)
 .debug_aranges
                0x00000cc8       0x20 ../Hardware_Denoise_bsp/\libhal_bsp.a(alt_icache_flush_all.o)
 .debug_aranges
                0x00000ce8       0x20 ../Hardware_Denoise_bsp/\libhal_bsp.a(alt_io_redirect.o)
 .debug_aranges
                0x00000d08       0x30 ../Hardware_Denoise_bsp/\libhal_bsp.a(alt_irq_entry.o)
 .debug_aranges
                0x00000d38       0x28 ../Hardware_Denoise_bsp/\libhal_bsp.a(alt_irq_handler.o)
 .debug_aranges
                0x00000d60       0x20 ../Hardware_Denoise_bsp/\libhal_bsp.a(alt_open.o)
 .debug_aranges
                0x00000d80       0x20 ../Hardware_Denoise_bsp/\libhal_bsp.a(alt_tick.o)
 .debug_aranges
                0x00000da0       0x20 ../Hardware_Denoise_bsp/\libhal_bsp.a(alt_usleep.o)
 .debug_aranges
                0x00000dc0       0x20 ../Hardware_Denoise_bsp/\libhal_bsp.a(altera_nios2_qsys_irq.o)
 .debug_aranges
                0x00000de0       0x20 ../Hardware_Denoise_bsp/\libhal_bsp.a(alt_busy_sleep.o)
 .debug_aranges
                0x00000e00       0x38 ../Hardware_Denoise_bsp/\libhal_bsp.a(alt_exception_entry.o)
 .debug_aranges
                0x00000e38       0x20 ../Hardware_Denoise_bsp/\libhal_bsp.a(alt_find_file.o)
 .debug_aranges
                0x00000e58       0x20 ../Hardware_Denoise_bsp/\libhal_bsp.a(alt_get_fd.o)
 .debug_aranges
                0x00000e78       0x20 ../Hardware_Denoise_bsp/\libhal_bsp.a(alt_icache_flush.o)
 .debug_aranges
                0x00000e98       0x20 d:/fpga/nios2eds/bin/gnu/h-i686-mingw32/bin/../lib/gcc/nios2-elf/4.1.2/../../../../nios2-elf/lib\libc.a(lib_a-atexit.o)
 .debug_aranges
                0x00000eb8       0x20 d:/fpga/nios2eds/bin/gnu/h-i686-mingw32/bin/../lib/gcc/nios2-elf/4.1.2/../../../../nios2-elf/lib\libc.a(lib_a-exit.o)
 .debug_aranges
                0x00000ed8       0x20 d:/fpga/nios2eds/bin/gnu/h-i686-mingw32/bin/../lib/gcc/nios2-elf/4.1.2/../../../../nios2-elf/lib\libc.a(lib_a-memcmp.o)
 .debug_aranges
                0x00000ef8       0x20 d:/fpga/nios2eds/bin/gnu/h-i686-mingw32/bin/../lib/gcc/nios2-elf/4.1.2/../../../../nios2-elf/lib\libc.a(lib_a-putc.o)
 .debug_aranges
                0x00000f18       0x20 d:/fpga/nios2eds/bin/gnu/h-i686-mingw32/bin/../lib/gcc/nios2-elf/4.1.2/../../../../nios2-elf/lib\libc.a(lib_a-wbuf.o)
 .debug_aranges
                0x00000f38       0x20 d:/fpga/nios2eds/bin/gnu/h-i686-mingw32/bin/../lib/gcc/nios2-elf/4.1.2/../../../../nios2-elf/lib\libc.a(lib_a-__atexit.o)
 .debug_aranges
                0x00000f58       0x20 d:/fpga/nios2eds/bin/gnu/h-i686-mingw32/bin/../lib/gcc/nios2-elf/4.1.2/../../../../nios2-elf/lib\libc.a(lib_a-__call_atexit.o)
 .debug_aranges
                0x00000f78       0x20 ../Hardware_Denoise_bsp/\libhal_bsp.a(alt_exit.o)

.debug_pubnames
                0x00000000     0x2532
 *(.debug_pubnames)
 .debug_pubnames
                0x00000000       0x31 obj/default/PS2_ISR.o
 .debug_pubnames
                0x00000031       0x60 obj/default/audio_ISR.o
 .debug_pubnames
                0x00000091       0x9c obj/default/globals.o
 .debug_pubnames
                0x0000012d       0x29 obj/default/interval_timer_ISR.o
 .debug_pubnames
                0x00000156      0x292 obj/default/media_interrupt_HAL.o
 .debug_pubnames
                0x000003e8       0x25 obj/default/pushbutton_ISR.o
 .debug_pubnames
                0x0000040d       0x22 d:/fpga/nios2eds/bin/gnu/h-i686-mingw32/bin/../lib/gcc/nios2-elf/4.1.2\libgcc.a(_si_to_sf.o)
 .debug_pubnames
                0x0000042f       0x20 d:/fpga/nios2eds/bin/gnu/h-i686-mingw32/bin/../lib/gcc/nios2-elf/4.1.2\libgcc.a(_sf_to_si.o)
 .debug_pubnames
                0x0000044f       0x24 d:/fpga/nios2eds/bin/gnu/h-i686-mingw32/bin/../lib/gcc/nios2-elf/4.1.2\libgcc.a(_sf_to_df.o)
 .debug_pubnames
                0x00000473       0x24 d:/fpga/nios2eds/bin/gnu/h-i686-mingw32/bin/../lib/gcc/nios2-elf/4.1.2\libgcc.a(_usi_to_sf.o)
 .debug_pubnames
                0x00000497       0x20 d:/fpga/nios2eds/bin/gnu/h-i686-mingw32/bin/../lib/gcc/nios2-elf/4.1.2\libgcc.a(_make_df.o)
 .debug_pubnames
                0x000004b7       0x1f d:/fpga/nios2eds/bin/gnu/h-i686-mingw32/bin/../lib/gcc/nios2-elf/4.1.2\libgcc.a(_clzsi2.o)
 .debug_pubnames
                0x000004d6       0x1f d:/fpga/nios2eds/bin/gnu/h-i686-mingw32/bin/../lib/gcc/nios2-elf/4.1.2\libgcc.a(_pack_sf.o)
 .debug_pubnames
                0x000004f5       0x21 d:/fpga/nios2eds/bin/gnu/h-i686-mingw32/bin/../lib/gcc/nios2-elf/4.1.2\libgcc.a(_unpack_sf.o)
 .debug_pubnames
                0x00000516       0x1f d:/fpga/nios2eds/bin/gnu/h-i686-mingw32/bin/../lib/gcc/nios2-elf/4.1.2\libgcc.a(_pack_df.o)
 .debug_pubnames
                0x00000535       0x20 d:/fpga/nios2eds/bin/gnu/h-i686-mingw32/bin/../lib/gcc/nios2-elf/4.1.2\libgcc.a(_clz.o)
 .debug_pubnames
                0x00000555       0x1d d:/fpga/nios2eds/bin/gnu/h-i686-mingw32/bin/../lib/gcc/nios2-elf/4.1.2/../../../../nios2-elf/lib\libc.a(lib_a-memcpy.o)
 .debug_pubnames
                0x00000572       0x1d d:/fpga/nios2eds/bin/gnu/h-i686-mingw32/bin/../lib/gcc/nios2-elf/4.1.2/../../../../nios2-elf/lib\libc.a(lib_a-memset.o)
 .debug_pubnames
                0x0000058f       0x2b d:/fpga/nios2eds/bin/gnu/h-i686-mingw32/bin/../lib/gcc/nios2-elf/4.1.2/../../../../nios2-elf/lib\libc.a(lib_a-printf.o)
 .debug_pubnames
                0x000005ba       0x45 d:/fpga/nios2eds/bin/gnu/h-i686-mingw32/bin/../lib/gcc/nios2-elf/4.1.2/../../../../nios2-elf/lib\libc.a(lib_a-vfprintf.o)
 .debug_pubnames
                0x000005ff       0x22 d:/fpga/nios2eds/bin/gnu/h-i686-mingw32/bin/../lib/gcc/nios2-elf/4.1.2/../../../../nios2-elf/lib\libc.a(lib_a-wsetup.o)
 .debug_pubnames
                0x00000621       0x1e d:/fpga/nios2eds/bin/gnu/h-i686-mingw32/bin/../lib/gcc/nios2-elf/4.1.2/../../../../nios2-elf/lib\libc.a(lib_a-dtoa.o)
 .debug_pubnames
                0x0000063f       0x2b d:/fpga/nios2eds/bin/gnu/h-i686-mingw32/bin/../lib/gcc/nios2-elf/4.1.2/../../../../nios2-elf/lib\libc.a(lib_a-fflush.o)
 .debug_pubnames
                0x0000066a       0xdb d:/fpga/nios2eds/bin/gnu/h-i686-mingw32/bin/../lib/gcc/nios2-elf/4.1.2/../../../../nios2-elf/lib\libc.a(lib_a-findfp.o)
 .debug_pubnames
                0x00000745       0x31 d:/fpga/nios2eds/bin/gnu/h-i686-mingw32/bin/../lib/gcc/nios2-elf/4.1.2/../../../../nios2-elf/lib\libc.a(lib_a-freer.o)
 .debug_pubnames
                0x00000776       0x23 d:/fpga/nios2eds/bin/gnu/h-i686-mingw32/bin/../lib/gcc/nios2-elf/4.1.2/../../../../nios2-elf/lib\libc.a(lib_a-fvwrite.o)
 .debug_pubnames
                0x00000799       0x2e d:/fpga/nios2eds/bin/gnu/h-i686-mingw32/bin/../lib/gcc/nios2-elf/4.1.2/../../../../nios2-elf/lib\libc.a(lib_a-fwalk.o)
 .debug_pubnames
                0x000007c7       0x39 d:/fpga/nios2eds/bin/gnu/h-i686-mingw32/bin/../lib/gcc/nios2-elf/4.1.2/../../../../nios2-elf/lib\libc.a(lib_a-impure.o)
 .debug_pubnames
                0x00000800       0xc3 d:/fpga/nios2eds/bin/gnu/h-i686-mingw32/bin/../lib/gcc/nios2-elf/4.1.2/../../../../nios2-elf/lib\libc.a(lib_a-locale.o)
 .debug_pubnames
                0x000008c3       0x23 d:/fpga/nios2eds/bin/gnu/h-i686-mingw32/bin/../lib/gcc/nios2-elf/4.1.2/../../../../nios2-elf/lib\libc.a(lib_a-makebuf.o)
 .debug_pubnames
                0x000008e6       0xce d:/fpga/nios2eds/bin/gnu/h-i686-mingw32/bin/../lib/gcc/nios2-elf/4.1.2/../../../../nios2-elf/lib\libc.a(lib_a-mallocr.o)
 .debug_pubnames
                0x000009b4       0x1d d:/fpga/nios2eds/bin/gnu/h-i686-mingw32/bin/../lib/gcc/nios2-elf/4.1.2/../../../../nios2-elf/lib\libc.a(lib_a-memchr.o)
 .debug_pubnames
                0x000009d1       0x1e d:/fpga/nios2eds/bin/gnu/h-i686-mingw32/bin/../lib/gcc/nios2-elf/4.1.2/../../../../nios2-elf/lib\libc.a(lib_a-memmove.o)
 .debug_pubnames
                0x000009ef      0x13a d:/fpga/nios2eds/bin/gnu/h-i686-mingw32/bin/../lib/gcc/nios2-elf/4.1.2/../../../../nios2-elf/lib\libc.a(lib_a-mprec.o)
 .debug_pubnames
                0x00000b29       0x21 d:/fpga/nios2eds/bin/gnu/h-i686-mingw32/bin/../lib/gcc/nios2-elf/4.1.2/../../../../nios2-elf/lib\libc.a(lib_a-reallocr.o)
 .debug_pubnames
                0x00000b4a       0x1f d:/fpga/nios2eds/bin/gnu/h-i686-mingw32/bin/../lib/gcc/nios2-elf/4.1.2/../../../../nios2-elf/lib\libc.a(lib_a-s_isinfd.o)
 .debug_pubnames
                0x00000b69       0x1f d:/fpga/nios2eds/bin/gnu/h-i686-mingw32/bin/../lib/gcc/nios2-elf/4.1.2/../../../../nios2-elf/lib\libc.a(lib_a-s_isnand.o)
 .debug_pubnames
                0x00000b88       0x1e d:/fpga/nios2eds/bin/gnu/h-i686-mingw32/bin/../lib/gcc/nios2-elf/4.1.2/../../../../nios2-elf/lib\libc.a(lib_a-sbrkr.o)
 .debug_pubnames
                0x00000ba6       0x44 d:/fpga/nios2eds/bin/gnu/h-i686-mingw32/bin/../lib/gcc/nios2-elf/4.1.2/../../../../nios2-elf/lib\libc.a(lib_a-stdio.o)
 .debug_pubnames
                0x00000bea       0x1d d:/fpga/nios2eds/bin/gnu/h-i686-mingw32/bin/../lib/gcc/nios2-elf/4.1.2/../../../../nios2-elf/lib\libc.a(lib_a-strcmp.o)
 .debug_pubnames
                0x00000c07       0x1d d:/fpga/nios2eds/bin/gnu/h-i686-mingw32/bin/../lib/gcc/nios2-elf/4.1.2/../../../../nios2-elf/lib\libc.a(lib_a-strlen.o)
 .debug_pubnames
                0x00000c24       0x1f d:/fpga/nios2eds/bin/gnu/h-i686-mingw32/bin/../lib/gcc/nios2-elf/4.1.2/../../../../nios2-elf/lib\libc.a(lib_a-writer.o)
 .debug_pubnames
                0x00000c43       0x20 d:/fpga/nios2eds/bin/gnu/h-i686-mingw32/bin/../lib/gcc/nios2-elf/4.1.2/../../../../nios2-elf/lib\libc.a(lib_a-callocr.o)
 .debug_pubnames
                0x00000c63       0x1f d:/fpga/nios2eds/bin/gnu/h-i686-mingw32/bin/../lib/gcc/nios2-elf/4.1.2/../../../../nios2-elf/lib\libc.a(lib_a-closer.o)
 .debug_pubnames
                0x00000c82       0x2b d:/fpga/nios2eds/bin/gnu/h-i686-mingw32/bin/../lib/gcc/nios2-elf/4.1.2/../../../../nios2-elf/lib\libc.a(lib_a-fclose.o)
 .debug_pubnames
                0x00000cad       0x1f d:/fpga/nios2eds/bin/gnu/h-i686-mingw32/bin/../lib/gcc/nios2-elf/4.1.2/../../../../nios2-elf/lib\libc.a(lib_a-fstatr.o)
 .debug_pubnames
                0x00000ccc       0x1c d:/fpga/nios2eds/bin/gnu/h-i686-mingw32/bin/../lib/gcc/nios2-elf/4.1.2/../../../../nios2-elf/lib\libc.a(lib_a-int_errno.o)
 .debug_pubnames
                0x00000ce8       0x20 d:/fpga/nios2eds/bin/gnu/h-i686-mingw32/bin/../lib/gcc/nios2-elf/4.1.2/../../../../nios2-elf/lib\libc.a(lib_a-isattyr.o)
 .debug_pubnames
                0x00000d08       0x1f d:/fpga/nios2eds/bin/gnu/h-i686-mingw32/bin/../lib/gcc/nios2-elf/4.1.2/../../../../nios2-elf/lib\libc.a(lib_a-lseekr.o)
 .debug_pubnames
                0x00000d27       0x1e d:/fpga/nios2eds/bin/gnu/h-i686-mingw32/bin/../lib/gcc/nios2-elf/4.1.2/../../../../nios2-elf/lib\libc.a(lib_a-readr.o)
 .debug_pubnames
                0x00000d45       0x20 d:/fpga/nios2eds/bin/gnu/h-i686-mingw32/bin/../lib/gcc/nios2-elf/4.1.2\libgcc.a(_udivdi3.o)
 .debug_pubnames
                0x00000d65       0x20 d:/fpga/nios2eds/bin/gnu/h-i686-mingw32/bin/../lib/gcc/nios2-elf/4.1.2\libgcc.a(_umoddi3.o)
 .debug_pubnames
                0x00000d85       0x2c d:/fpga/nios2eds/bin/gnu/h-i686-mingw32/bin/../lib/gcc/nios2-elf/4.1.2\libgcc.a(_addsub_df.o)
 .debug_pubnames
                0x00000db1       0x1f d:/fpga/nios2eds/bin/gnu/h-i686-mingw32/bin/../lib/gcc/nios2-elf/4.1.2\libgcc.a(_mul_df.o)
 .debug_pubnames
                0x00000dd0       0x1f d:/fpga/nios2eds/bin/gnu/h-i686-mingw32/bin/../lib/gcc/nios2-elf/4.1.2\libgcc.a(_div_df.o)
 .debug_pubnames
                0x00000def       0x1e d:/fpga/nios2eds/bin/gnu/h-i686-mingw32/bin/../lib/gcc/nios2-elf/4.1.2\libgcc.a(_eq_df.o)
 .debug_pubnames
                0x00000e0d       0x1e d:/fpga/nios2eds/bin/gnu/h-i686-mingw32/bin/../lib/gcc/nios2-elf/4.1.2\libgcc.a(_ne_df.o)
 .debug_pubnames
                0x00000e2b       0x1e d:/fpga/nios2eds/bin/gnu/h-i686-mingw32/bin/../lib/gcc/nios2-elf/4.1.2\libgcc.a(_gt_df.o)
 .debug_pubnames
                0x00000e49       0x1e d:/fpga/nios2eds/bin/gnu/h-i686-mingw32/bin/../lib/gcc/nios2-elf/4.1.2\libgcc.a(_ge_df.o)
 .debug_pubnames
                0x00000e67       0x1e d:/fpga/nios2eds/bin/gnu/h-i686-mingw32/bin/../lib/gcc/nios2-elf/4.1.2\libgcc.a(_lt_df.o)
 .debug_pubnames
                0x00000e85       0x22 d:/fpga/nios2eds/bin/gnu/h-i686-mingw32/bin/../lib/gcc/nios2-elf/4.1.2\libgcc.a(_si_to_df.o)
 .debug_pubnames
                0x00000ea7       0x20 d:/fpga/nios2eds/bin/gnu/h-i686-mingw32/bin/../lib/gcc/nios2-elf/4.1.2\libgcc.a(_df_to_si.o)
 .debug_pubnames
                0x00000ec7       0x22 d:/fpga/nios2eds/bin/gnu/h-i686-mingw32/bin/../lib/gcc/nios2-elf/4.1.2\libgcc.a(_thenan_df.o)
 .debug_pubnames
                0x00000ee9       0x24 d:/fpga/nios2eds/bin/gnu/h-i686-mingw32/bin/../lib/gcc/nios2-elf/4.1.2\libgcc.a(_usi_to_df.o)
 .debug_pubnames
                0x00000f0d       0x48 d:/fpga/nios2eds/bin/gnu/h-i686-mingw32/bin/../lib/gcc/nios2-elf/4.1.2\libgcc.a(lib2-divmod.o)
 .debug_pubnames
                0x00000f55       0x1f d:/fpga/nios2eds/bin/gnu/h-i686-mingw32/bin/../lib/gcc/nios2-elf/4.1.2\libgcc.a(_muldi3.o)
 .debug_pubnames
                0x00000f74       0x21 d:/fpga/nios2eds/bin/gnu/h-i686-mingw32/bin/../lib/gcc/nios2-elf/4.1.2\libgcc.a(_unpack_df.o)
 .debug_pubnames
                0x00000f95       0x26 d:/fpga/nios2eds/bin/gnu/h-i686-mingw32/bin/../lib/gcc/nios2-elf/4.1.2\libgcc.a(_fpcmp_parts_df.o)
 .debug_pubnames
                0x00000fbb       0x1c ../Hardware_Denoise_bsp/\libhal_bsp.a(alt_close.o)
 .debug_pubnames
                0x00000fd7       0x63 ../Hardware_Denoise_bsp/\libhal_bsp.a(alt_dev.o)
 .debug_pubnames
                0x0000103a       0x20 ../Hardware_Denoise_bsp/\libhal_bsp.a(alt_errno.o)
 .debug_pubnames
                0x0000105a       0x1c ../Hardware_Denoise_bsp/\libhal_bsp.a(alt_fstat.o)
 .debug_pubnames
                0x00001076       0x27 ../Hardware_Denoise_bsp/\libhal_bsp.a(alt_irq_register.o)
 .debug_pubnames
                0x0000109d       0x3b ../Hardware_Denoise_bsp/\libhal_bsp.a(alt_irq_vars.o)
 .debug_pubnames
                0x000010d8       0x1d ../Hardware_Denoise_bsp/\libhal_bsp.a(alt_isatty.o)
 .debug_pubnames
                0x000010f5       0x1f ../Hardware_Denoise_bsp/\libhal_bsp.a(alt_load.o)
 .debug_pubnames
                0x00001114       0x1c ../Hardware_Denoise_bsp/\libhal_bsp.a(alt_lseek.o)
 .debug_pubnames
                0x00001130       0x46 ../Hardware_Denoise_bsp/\libhal_bsp.a(alt_main.o)
 .debug_pubnames
                0x00001176       0x38 ../Hardware_Denoise_bsp/\libhal_bsp.a(alt_malloc_lock.o)
 .debug_pubnames
                0x000011ae       0x21 ../Hardware_Denoise_bsp/\libhal_bsp.a(alt_printf.o)
 .debug_pubnames
                0x000011cf       0x22 ../Hardware_Denoise_bsp/\libhal_bsp.a(alt_putchar.o)
 .debug_pubnames
                0x000011f1       0x1b ../Hardware_Denoise_bsp/\libhal_bsp.a(alt_read.o)
 .debug_pubnames
                0x0000120c       0x25 ../Hardware_Denoise_bsp/\libhal_bsp.a(alt_release_fd.o)
 .debug_pubnames
                0x00001231       0x1b ../Hardware_Denoise_bsp/\libhal_bsp.a(alt_sbrk.o)
 .debug_pubnames
                0x0000124c       0x1c ../Hardware_Denoise_bsp/\libhal_bsp.a(alt_write.o)
 .debug_pubnames
                0x00001268       0x34 ../Hardware_Denoise_bsp/\libhal_bsp.a(alt_sys_init.o)
 .debug_pubnames
                0x0000129c       0xa5 ../Hardware_Denoise_bsp/\libhal_bsp.a(altera_avalon_jtag_uart_fd.o)
 .debug_pubnames
                0x00001341       0x55 ../Hardware_Denoise_bsp/\libhal_bsp.a(altera_avalon_jtag_uart_init.o)
 .debug_pubnames
                0x00001396       0x34 ../Hardware_Denoise_bsp/\libhal_bsp.a(altera_avalon_jtag_uart_ioctl.o)
 .debug_pubnames
                0x000013ca       0x33 ../Hardware_Denoise_bsp/\libhal_bsp.a(altera_avalon_jtag_uart_read.o)
 .debug_pubnames
                0x000013fd       0x34 ../Hardware_Denoise_bsp/\libhal_bsp.a(altera_avalon_jtag_uart_write.o)
 .debug_pubnames
                0x00001431       0x53 ../Hardware_Denoise_bsp/\libhal_bsp.a(altera_avalon_timer_ts.o)
 .debug_pubnames
                0x00001484       0x52 ../Hardware_Denoise_bsp/\libhal_bsp.a(altera_avalon_timer_vars.o)
 .debug_pubnames
                0x000014d6      0x25e ../Hardware_Denoise_bsp/\libhal_bsp.a(altera_up_avalon_audio.o)
 .debug_pubnames
                0x00001734      0x1cd ../Hardware_Denoise_bsp/\libhal_bsp.a(altera_up_avalon_character_lcd.o)
 .debug_pubnames
                0x00001901       0x48 ../Hardware_Denoise_bsp/\libhal_bsp.a(altera_up_avalon_ethernet.o)
 .debug_pubnames
                0x00001949       0x90 ../Hardware_Denoise_bsp/\libhal_bsp.a(altera_up_avalon_ethernet_low_level_driver.o)
 .debug_pubnames
                0x000019d9      0x159 ../Hardware_Denoise_bsp/\libhal_bsp.a(altera_up_avalon_irda.o)
 .debug_pubnames
                0x00001b32       0x34 ../Hardware_Denoise_bsp/\libhal_bsp.a(altera_up_avalon_parallel_port.o)
 .debug_pubnames
                0x00001b66      0x1ed ../Hardware_Denoise_bsp/\libhal_bsp.a(altera_up_avalon_ps2.o)
 .debug_pubnames
                0x00001d53      0x163 ../Hardware_Denoise_bsp/\libhal_bsp.a(altera_up_avalon_rs232.o)
 .debug_pubnames
                0x00001eb6       0xa5 ../Hardware_Denoise_bsp/\libhal_bsp.a(altera_up_avalon_video_character_buffer_with_dma.o)
 .debug_pubnames
                0x00001f5b      0x1f1 ../Hardware_Denoise_bsp/\libhal_bsp.a(altera_up_avalon_video_pixel_buffer_dma.o)
 .debug_pubnames
                0x0000214c       0x26 ../Hardware_Denoise_bsp/\libhal_bsp.a(alt_alarm_start.o)
 .debug_pubnames
                0x00002172       0x2b ../Hardware_Denoise_bsp/\libhal_bsp.a(alt_dcache_flush_all.o)
 .debug_pubnames
                0x0000219d       0x2b ../Hardware_Denoise_bsp/\libhal_bsp.a(alt_dev_llist_insert.o)
 .debug_pubnames
                0x000021c8       0x20 ../Hardware_Denoise_bsp/\libhal_bsp.a(alt_do_ctors.o)
 .debug_pubnames
                0x000021e8       0x20 ../Hardware_Denoise_bsp/\libhal_bsp.a(alt_do_dtors.o)
 .debug_pubnames
                0x00002208       0x23 ../Hardware_Denoise_bsp/\libhal_bsp.a(alt_find_dev.o)
 .debug_pubnames
                0x0000222b       0x2b ../Hardware_Denoise_bsp/\libhal_bsp.a(alt_icache_flush_all.o)
 .debug_pubnames
                0x00002256       0x26 ../Hardware_Denoise_bsp/\libhal_bsp.a(alt_io_redirect.o)
 .debug_pubnames
                0x0000227c       0x32 ../Hardware_Denoise_bsp/\libhal_bsp.a(alt_irq_handler.o)
 .debug_pubnames
                0x000022ae       0x1b ../Hardware_Denoise_bsp/\libhal_bsp.a(alt_open.o)
 .debug_pubnames
                0x000022c9       0x68 ../Hardware_Denoise_bsp/\libhal_bsp.a(alt_tick.o)
 .debug_pubnames
                0x00002331       0x1d ../Hardware_Denoise_bsp/\libhal_bsp.a(alt_usleep.o)
 .debug_pubnames
                0x0000234e       0x31 ../Hardware_Denoise_bsp/\libhal_bsp.a(altera_nios2_qsys_irq.o)
 .debug_pubnames
                0x0000237f       0x25 ../Hardware_Denoise_bsp/\libhal_bsp.a(alt_busy_sleep.o)
 .debug_pubnames
                0x000023a4       0x24 ../Hardware_Denoise_bsp/\libhal_bsp.a(alt_find_file.o)
 .debug_pubnames
                0x000023c8       0x21 ../Hardware_Denoise_bsp/\libhal_bsp.a(alt_get_fd.o)
 .debug_pubnames
                0x000023e9       0x27 ../Hardware_Denoise_bsp/\libhal_bsp.a(alt_icache_flush.o)
 .debug_pubnames
                0x00002410       0x2a d:/fpga/nios2eds/bin/gnu/h-i686-mingw32/bin/../lib/gcc/nios2-elf/4.1.2/../../../../nios2-elf/lib\libc.a(lib_a-atexit.o)
 .debug_pubnames
                0x0000243a       0x1b d:/fpga/nios2eds/bin/gnu/h-i686-mingw32/bin/../lib/gcc/nios2-elf/4.1.2/../../../../nios2-elf/lib\libc.a(lib_a-exit.o)
 .debug_pubnames
                0x00002455       0x1d d:/fpga/nios2eds/bin/gnu/h-i686-mingw32/bin/../lib/gcc/nios2-elf/4.1.2/../../../../nios2-elf/lib\libc.a(lib_a-memcmp.o)
 .debug_pubnames
                0x00002472       0x27 d:/fpga/nios2eds/bin/gnu/h-i686-mingw32/bin/../lib/gcc/nios2-elf/4.1.2/../../../../nios2-elf/lib\libc.a(lib_a-putc.o)
 .debug_pubnames
                0x00002499       0x2c d:/fpga/nios2eds/bin/gnu/h-i686-mingw32/bin/../lib/gcc/nios2-elf/4.1.2/../../../../nios2-elf/lib\libc.a(lib_a-wbuf.o)
 .debug_pubnames
                0x000024c5       0x2a d:/fpga/nios2eds/bin/gnu/h-i686-mingw32/bin/../lib/gcc/nios2-elf/4.1.2/../../../../nios2-elf/lib\libc.a(lib_a-__atexit.o)
 .debug_pubnames
                0x000024ef       0x27 d:/fpga/nios2eds/bin/gnu/h-i686-mingw32/bin/../lib/gcc/nios2-elf/4.1.2/../../../../nios2-elf/lib\libc.a(lib_a-__call_atexit.o)
 .debug_pubnames
                0x00002516       0x1c ../Hardware_Denoise_bsp/\libhal_bsp.a(alt_exit.o)

.debug_info     0x00000000    0x2f7f3
 *(.debug_info .gnu.linkonce.wi.*)
 .debug_info    0x00000000       0xa1 ../Hardware_Denoise_bsp//obj/HAL/src/crt0.o
 .debug_info    0x000000a1      0x907 obj/default/PS2_ISR.o
 .debug_info    0x000009a8      0x97b obj/default/audio_ISR.o
 .debug_info    0x00001323      0x915 obj/default/globals.o
 .debug_info    0x00001c38      0x8ae obj/default/interval_timer_ISR.o
 .debug_info    0x000024e6     0x1622 obj/default/media_interrupt_HAL.o
 .debug_info    0x00003b08      0x8c0 obj/default/pushbutton_ISR.o
 .debug_info    0x000043c8      0x214 d:/fpga/nios2eds/bin/gnu/h-i686-mingw32/bin/../lib/gcc/nios2-elf/4.1.2\libgcc.a(_si_to_sf.o)
 .debug_info    0x000045dc      0x2c1 d:/fpga/nios2eds/bin/gnu/h-i686-mingw32/bin/../lib/gcc/nios2-elf/4.1.2\libgcc.a(_sf_to_si.o)
 .debug_info    0x0000489d      0x245 d:/fpga/nios2eds/bin/gnu/h-i686-mingw32/bin/../lib/gcc/nios2-elf/4.1.2\libgcc.a(_sf_to_df.o)
 .debug_info    0x00004ae2      0x213 d:/fpga/nios2eds/bin/gnu/h-i686-mingw32/bin/../lib/gcc/nios2-elf/4.1.2\libgcc.a(_usi_to_sf.o)
 .debug_info    0x00004cf5      0x1d6 d:/fpga/nios2eds/bin/gnu/h-i686-mingw32/bin/../lib/gcc/nios2-elf/4.1.2\libgcc.a(_make_df.o)
 .debug_info    0x00004ecb      0x130 d:/fpga/nios2eds/bin/gnu/h-i686-mingw32/bin/../lib/gcc/nios2-elf/4.1.2\libgcc.a(_clzsi2.o)
 .debug_info    0x00004ffb      0x2f2 d:/fpga/nios2eds/bin/gnu/h-i686-mingw32/bin/../lib/gcc/nios2-elf/4.1.2\libgcc.a(_pack_sf.o)
 .debug_info    0x000052ed      0x25a d:/fpga/nios2eds/bin/gnu/h-i686-mingw32/bin/../lib/gcc/nios2-elf/4.1.2\libgcc.a(_unpack_sf.o)
 .debug_info    0x00005547      0x2fc d:/fpga/nios2eds/bin/gnu/h-i686-mingw32/bin/../lib/gcc/nios2-elf/4.1.2\libgcc.a(_pack_df.o)
 .debug_info    0x00005843       0xc9 d:/fpga/nios2eds/bin/gnu/h-i686-mingw32/bin/../lib/gcc/nios2-elf/4.1.2\libgcc.a(_clz.o)
 .debug_info    0x0000590c      0x106 d:/fpga/nios2eds/bin/gnu/h-i686-mingw32/bin/../lib/gcc/nios2-elf/4.1.2/../../../../nios2-elf/lib\libc.a(lib_a-memcpy.o)
 .debug_info    0x00005a12      0x113 d:/fpga/nios2eds/bin/gnu/h-i686-mingw32/bin/../lib/gcc/nios2-elf/4.1.2/../../../../nios2-elf/lib\libc.a(lib_a-memset.o)
 .debug_info    0x00005b25      0x9d1 d:/fpga/nios2eds/bin/gnu/h-i686-mingw32/bin/../lib/gcc/nios2-elf/4.1.2/../../../../nios2-elf/lib\libc.a(lib_a-printf.o)
 .debug_info    0x000064f6     0x10d5 d:/fpga/nios2eds/bin/gnu/h-i686-mingw32/bin/../lib/gcc/nios2-elf/4.1.2/../../../../nios2-elf/lib\libc.a(lib_a-vfprintf.o)
 .debug_info    0x000075cb      0x95d d:/fpga/nios2eds/bin/gnu/h-i686-mingw32/bin/../lib/gcc/nios2-elf/4.1.2/../../../../nios2-elf/lib\libc.a(lib_a-wsetup.o)
 .debug_info    0x00007f28      0xd6f d:/fpga/nios2eds/bin/gnu/h-i686-mingw32/bin/../lib/gcc/nios2-elf/4.1.2/../../../../nios2-elf/lib\libc.a(lib_a-dtoa.o)
 .debug_info    0x00008c97      0x9fe d:/fpga/nios2eds/bin/gnu/h-i686-mingw32/bin/../lib/gcc/nios2-elf/4.1.2/../../../../nios2-elf/lib\libc.a(lib_a-fflush.o)
 .debug_info    0x00009695      0xb72 d:/fpga/nios2eds/bin/gnu/h-i686-mingw32/bin/../lib/gcc/nios2-elf/4.1.2/../../../../nios2-elf/lib\libc.a(lib_a-findfp.o)
 .debug_info    0x0000a207      0xbc9 d:/fpga/nios2eds/bin/gnu/h-i686-mingw32/bin/../lib/gcc/nios2-elf/4.1.2/../../../../nios2-elf/lib\libc.a(lib_a-freer.o)
 .debug_info    0x0000add0      0xa88 d:/fpga/nios2eds/bin/gnu/h-i686-mingw32/bin/../lib/gcc/nios2-elf/4.1.2/../../../../nios2-elf/lib\libc.a(lib_a-fvwrite.o)
 .debug_info    0x0000b858      0xaed d:/fpga/nios2eds/bin/gnu/h-i686-mingw32/bin/../lib/gcc/nios2-elf/4.1.2/../../../../nios2-elf/lib\libc.a(lib_a-fwalk.o)
 .debug_info    0x0000c345      0x93d d:/fpga/nios2eds/bin/gnu/h-i686-mingw32/bin/../lib/gcc/nios2-elf/4.1.2/../../../../nios2-elf/lib\libc.a(lib_a-impure.o)
 .debug_info    0x0000cc82      0xb97 d:/fpga/nios2eds/bin/gnu/h-i686-mingw32/bin/../lib/gcc/nios2-elf/4.1.2/../../../../nios2-elf/lib\libc.a(lib_a-locale.o)
 .debug_info    0x0000d819      0xb1a d:/fpga/nios2eds/bin/gnu/h-i686-mingw32/bin/../lib/gcc/nios2-elf/4.1.2/../../../../nios2-elf/lib\libc.a(lib_a-makebuf.o)
 .debug_info    0x0000e333      0xcd0 d:/fpga/nios2eds/bin/gnu/h-i686-mingw32/bin/../lib/gcc/nios2-elf/4.1.2/../../../../nios2-elf/lib\libc.a(lib_a-mallocr.o)
 .debug_info    0x0000f003      0x138 d:/fpga/nios2eds/bin/gnu/h-i686-mingw32/bin/../lib/gcc/nios2-elf/4.1.2/../../../../nios2-elf/lib\libc.a(lib_a-memchr.o)
 .debug_info    0x0000f13b      0x13e d:/fpga/nios2eds/bin/gnu/h-i686-mingw32/bin/../lib/gcc/nios2-elf/4.1.2/../../../../nios2-elf/lib\libc.a(lib_a-memmove.o)
 .debug_info    0x0000f279     0x1437 d:/fpga/nios2eds/bin/gnu/h-i686-mingw32/bin/../lib/gcc/nios2-elf/4.1.2/../../../../nios2-elf/lib\libc.a(lib_a-mprec.o)
 .debug_info    0x000106b0      0xbd7 d:/fpga/nios2eds/bin/gnu/h-i686-mingw32/bin/../lib/gcc/nios2-elf/4.1.2/../../../../nios2-elf/lib\libc.a(lib_a-reallocr.o)
 .debug_info    0x00011287       0xd7 d:/fpga/nios2eds/bin/gnu/h-i686-mingw32/bin/../lib/gcc/nios2-elf/4.1.2/../../../../nios2-elf/lib\libc.a(lib_a-s_isinfd.o)
 .debug_info    0x0001135e       0xd5 d:/fpga/nios2eds/bin/gnu/h-i686-mingw32/bin/../lib/gcc/nios2-elf/4.1.2/../../../../nios2-elf/lib\libc.a(lib_a-s_isnand.o)
 .debug_info    0x00011433      0x962 d:/fpga/nios2eds/bin/gnu/h-i686-mingw32/bin/../lib/gcc/nios2-elf/4.1.2/../../../../nios2-elf/lib\libc.a(lib_a-sbrkr.o)
 .debug_info    0x00011d95      0xaac d:/fpga/nios2eds/bin/gnu/h-i686-mingw32/bin/../lib/gcc/nios2-elf/4.1.2/../../../../nios2-elf/lib\libc.a(lib_a-stdio.o)
 .debug_info    0x00012841       0xdd d:/fpga/nios2eds/bin/gnu/h-i686-mingw32/bin/../lib/gcc/nios2-elf/4.1.2/../../../../nios2-elf/lib\libc.a(lib_a-strcmp.o)
 .debug_info    0x0001291e       0xdb d:/fpga/nios2eds/bin/gnu/h-i686-mingw32/bin/../lib/gcc/nios2-elf/4.1.2/../../../../nios2-elf/lib\libc.a(lib_a-strlen.o)
 .debug_info    0x000129f9      0x993 d:/fpga/nios2eds/bin/gnu/h-i686-mingw32/bin/../lib/gcc/nios2-elf/4.1.2/../../../../nios2-elf/lib\libc.a(lib_a-writer.o)
 .debug_info    0x0001338c      0xa1b d:/fpga/nios2eds/bin/gnu/h-i686-mingw32/bin/../lib/gcc/nios2-elf/4.1.2/../../../../nios2-elf/lib\libc.a(lib_a-callocr.o)
 .debug_info    0x00013da7      0x958 d:/fpga/nios2eds/bin/gnu/h-i686-mingw32/bin/../lib/gcc/nios2-elf/4.1.2/../../../../nios2-elf/lib\libc.a(lib_a-closer.o)
 .debug_info    0x000146ff      0x994 d:/fpga/nios2eds/bin/gnu/h-i686-mingw32/bin/../lib/gcc/nios2-elf/4.1.2/../../../../nios2-elf/lib\libc.a(lib_a-fclose.o)
 .debug_info    0x00015093      0xafc d:/fpga/nios2eds/bin/gnu/h-i686-mingw32/bin/../lib/gcc/nios2-elf/4.1.2/../../../../nios2-elf/lib\libc.a(lib_a-fstatr.o)
 .debug_info    0x00015b8f       0x8c d:/fpga/nios2eds/bin/gnu/h-i686-mingw32/bin/../lib/gcc/nios2-elf/4.1.2/../../../../nios2-elf/lib\libc.a(lib_a-int_errno.o)
 .debug_info    0x00015c1b      0x958 d:/fpga/nios2eds/bin/gnu/h-i686-mingw32/bin/../lib/gcc/nios2-elf/4.1.2/../../../../nios2-elf/lib\libc.a(lib_a-isattyr.o)
 .debug_info    0x00016573      0x981 d:/fpga/nios2eds/bin/gnu/h-i686-mingw32/bin/../lib/gcc/nios2-elf/4.1.2/../../../../nios2-elf/lib\libc.a(lib_a-lseekr.o)
 .debug_info    0x00016ef4      0x98c d:/fpga/nios2eds/bin/gnu/h-i686-mingw32/bin/../lib/gcc/nios2-elf/4.1.2/../../../../nios2-elf/lib\libc.a(lib_a-readr.o)
 .debug_info    0x00017880      0x724 d:/fpga/nios2eds/bin/gnu/h-i686-mingw32/bin/../lib/gcc/nios2-elf/4.1.2\libgcc.a(_udivdi3.o)
 .debug_info    0x00017fa4      0x751 d:/fpga/nios2eds/bin/gnu/h-i686-mingw32/bin/../lib/gcc/nios2-elf/4.1.2\libgcc.a(_umoddi3.o)
 .debug_info    0x000186f5      0x493 d:/fpga/nios2eds/bin/gnu/h-i686-mingw32/bin/../lib/gcc/nios2-elf/4.1.2\libgcc.a(_addsub_df.o)
 .debug_info    0x00018b88      0x488 d:/fpga/nios2eds/bin/gnu/h-i686-mingw32/bin/../lib/gcc/nios2-elf/4.1.2\libgcc.a(_mul_df.o)
 .debug_info    0x00019010      0x39b d:/fpga/nios2eds/bin/gnu/h-i686-mingw32/bin/../lib/gcc/nios2-elf/4.1.2\libgcc.a(_div_df.o)
 .debug_info    0x000193ab      0x29d d:/fpga/nios2eds/bin/gnu/h-i686-mingw32/bin/../lib/gcc/nios2-elf/4.1.2\libgcc.a(_eq_df.o)
 .debug_info    0x00019648      0x29d d:/fpga/nios2eds/bin/gnu/h-i686-mingw32/bin/../lib/gcc/nios2-elf/4.1.2\libgcc.a(_ne_df.o)
 .debug_info    0x000198e5      0x29d d:/fpga/nios2eds/bin/gnu/h-i686-mingw32/bin/../lib/gcc/nios2-elf/4.1.2\libgcc.a(_gt_df.o)
 .debug_info    0x00019b82      0x29d d:/fpga/nios2eds/bin/gnu/h-i686-mingw32/bin/../lib/gcc/nios2-elf/4.1.2\libgcc.a(_ge_df.o)
 .debug_info    0x00019e1f      0x29d d:/fpga/nios2eds/bin/gnu/h-i686-mingw32/bin/../lib/gcc/nios2-elf/4.1.2\libgcc.a(_lt_df.o)
 .debug_info    0x0001a0bc      0x218 d:/fpga/nios2eds/bin/gnu/h-i686-mingw32/bin/../lib/gcc/nios2-elf/4.1.2\libgcc.a(_si_to_df.o)
 .debug_info    0x0001a2d4      0x2cd d:/fpga/nios2eds/bin/gnu/h-i686-mingw32/bin/../lib/gcc/nios2-elf/4.1.2\libgcc.a(_df_to_si.o)
 .debug_info    0x0001a5a1      0x164 d:/fpga/nios2eds/bin/gnu/h-i686-mingw32/bin/../lib/gcc/nios2-elf/4.1.2\libgcc.a(_thenan_df.o)
 .debug_info    0x0001a705      0x213 d:/fpga/nios2eds/bin/gnu/h-i686-mingw32/bin/../lib/gcc/nios2-elf/4.1.2\libgcc.a(_usi_to_df.o)
 .debug_info    0x0001a918      0x21c d:/fpga/nios2eds/bin/gnu/h-i686-mingw32/bin/../lib/gcc/nios2-elf/4.1.2\libgcc.a(lib2-divmod.o)
 .debug_info    0x0001ab34      0x215 d:/fpga/nios2eds/bin/gnu/h-i686-mingw32/bin/../lib/gcc/nios2-elf/4.1.2\libgcc.a(_muldi3.o)
 .debug_info    0x0001ad49      0x268 d:/fpga/nios2eds/bin/gnu/h-i686-mingw32/bin/../lib/gcc/nios2-elf/4.1.2\libgcc.a(_unpack_df.o)
 .debug_info    0x0001afb1      0x21b d:/fpga/nios2eds/bin/gnu/h-i686-mingw32/bin/../lib/gcc/nios2-elf/4.1.2\libgcc.a(_fpcmp_parts_df.o)
 .debug_info    0x0001b1cc      0x48d ../Hardware_Denoise_bsp/\libhal_bsp.a(alt_close.o)
 .debug_info    0x0001b659      0x6a5 ../Hardware_Denoise_bsp/\libhal_bsp.a(alt_dev.o)
 .debug_info    0x0001bcfe      0x18a ../Hardware_Denoise_bsp/\libhal_bsp.a(alt_errno.o)
 .debug_info    0x0001be88      0x686 ../Hardware_Denoise_bsp/\libhal_bsp.a(alt_fstat.o)
 .debug_info    0x0001c50e      0x455 ../Hardware_Denoise_bsp/\libhal_bsp.a(alt_irq_register.o)
 .debug_info    0x0001c963      0x18d ../Hardware_Denoise_bsp/\libhal_bsp.a(alt_irq_vars.o)
 .debug_info    0x0001caf0      0x68c ../Hardware_Denoise_bsp/\libhal_bsp.a(alt_isatty.o)
 .debug_info    0x0001d17c      0x2b3 ../Hardware_Denoise_bsp/\libhal_bsp.a(alt_load.o)
 .debug_info    0x0001d42f      0x4c0 ../Hardware_Denoise_bsp/\libhal_bsp.a(alt_lseek.o)
 .debug_info    0x0001d8ef      0x292 ../Hardware_Denoise_bsp/\libhal_bsp.a(alt_main.o)
 .debug_info    0x0001db81      0xc3e ../Hardware_Denoise_bsp/\libhal_bsp.a(alt_malloc_lock.o)
 .debug_info    0x0001e7bf      0x1ce ../Hardware_Denoise_bsp/\libhal_bsp.a(alt_printf.o)
 .debug_info    0x0001e98d      0xc22 ../Hardware_Denoise_bsp/\libhal_bsp.a(alt_putchar.o)
 .debug_info    0x0001f5af      0x6b0 ../Hardware_Denoise_bsp/\libhal_bsp.a(alt_read.o)
 .debug_info    0x0001fc5f      0x418 ../Hardware_Denoise_bsp/\libhal_bsp.a(alt_release_fd.o)
 .debug_info    0x00020077      0x324 ../Hardware_Denoise_bsp/\libhal_bsp.a(alt_sbrk.o)
 .debug_info    0x0002039b      0x6b9 ../Hardware_Denoise_bsp/\libhal_bsp.a(alt_write.o)
 .debug_info    0x00020a54      0xf09 ../Hardware_Denoise_bsp/\libhal_bsp.a(alt_sys_init.o)
 .debug_info    0x0002195d      0x7ff ../Hardware_Denoise_bsp/\libhal_bsp.a(altera_avalon_jtag_uart_fd.o)
 .debug_info    0x0002215c      0x667 ../Hardware_Denoise_bsp/\libhal_bsp.a(altera_avalon_jtag_uart_init.o)
 .debug_info    0x000227c3      0x469 ../Hardware_Denoise_bsp/\libhal_bsp.a(altera_avalon_jtag_uart_ioctl.o)
 .debug_info    0x00022c2c      0x59f ../Hardware_Denoise_bsp/\libhal_bsp.a(altera_avalon_jtag_uart_read.o)
 .debug_info    0x000231cb      0x597 ../Hardware_Denoise_bsp/\libhal_bsp.a(altera_avalon_jtag_uart_write.o)
 .debug_info    0x00023762      0x2e7 ../Hardware_Denoise_bsp/\libhal_bsp.a(altera_avalon_timer_ts.o)
 .debug_info    0x00023a49      0x22d ../Hardware_Denoise_bsp/\libhal_bsp.a(altera_avalon_timer_vars.o)
 .debug_info    0x00023c76      0xafa ../Hardware_Denoise_bsp/\libhal_bsp.a(altera_up_avalon_audio.o)
 .debug_info    0x00024770      0x90f ../Hardware_Denoise_bsp/\libhal_bsp.a(altera_up_avalon_character_lcd.o)
 .debug_info    0x0002507f      0x515 ../Hardware_Denoise_bsp/\libhal_bsp.a(altera_up_avalon_ethernet.o)
 .debug_info    0x00025594      0x307 ../Hardware_Denoise_bsp/\libhal_bsp.a(altera_up_avalon_ethernet_low_level_driver.o)
 .debug_info    0x0002589b      0x7fa ../Hardware_Denoise_bsp/\libhal_bsp.a(altera_up_avalon_irda.o)
 .debug_info    0x00026095      0x4b4 ../Hardware_Denoise_bsp/\libhal_bsp.a(altera_up_avalon_parallel_port.o)
 .debug_info    0x00026549      0xb13 ../Hardware_Denoise_bsp/\libhal_bsp.a(altera_up_avalon_ps2.o)
 .debug_info    0x0002705c      0x805 ../Hardware_Denoise_bsp/\libhal_bsp.a(altera_up_avalon_rs232.o)
 .debug_info    0x00027861      0x6b8 ../Hardware_Denoise_bsp/\libhal_bsp.a(altera_up_avalon_video_character_buffer_with_dma.o)
 .debug_info    0x00027f19      0xea4 ../Hardware_Denoise_bsp/\libhal_bsp.a(altera_up_avalon_video_pixel_buffer_dma.o)
 .debug_info    0x00028dbd      0x49b ../Hardware_Denoise_bsp/\libhal_bsp.a(alt_alarm_start.o)
 .debug_info    0x00029258      0x182 ../Hardware_Denoise_bsp/\libhal_bsp.a(alt_dcache_flush_all.o)
 .debug_info    0x000293da      0x2dd ../Hardware_Denoise_bsp/\libhal_bsp.a(alt_dev_llist_insert.o)
 .debug_info    0x000296b7      0x135 ../Hardware_Denoise_bsp/\libhal_bsp.a(alt_do_ctors.o)
 .debug_info    0x000297ec      0x134 ../Hardware_Denoise_bsp/\libhal_bsp.a(alt_do_dtors.o)
 .debug_info    0x00029920      0x43e ../Hardware_Denoise_bsp/\libhal_bsp.a(alt_find_dev.o)
 .debug_info    0x00029d5e      0x182 ../Hardware_Denoise_bsp/\libhal_bsp.a(alt_icache_flush_all.o)
 .debug_info    0x00029ee0      0x6bb ../Hardware_Denoise_bsp/\libhal_bsp.a(alt_io_redirect.o)
 .debug_info    0x0002a59b       0xaa ../Hardware_Denoise_bsp/\libhal_bsp.a(alt_irq_entry.o)
 .debug_info    0x0002a645      0x2d8 ../Hardware_Denoise_bsp/\libhal_bsp.a(alt_irq_handler.o)
 .debug_info    0x0002a91d      0x54b ../Hardware_Denoise_bsp/\libhal_bsp.a(alt_open.o)
 .debug_info    0x0002ae68      0x457 ../Hardware_Denoise_bsp/\libhal_bsp.a(alt_tick.o)
 .debug_info    0x0002b2bf      0x18e ../Hardware_Denoise_bsp/\libhal_bsp.a(alt_usleep.o)
 .debug_info    0x0002b44d      0x1d0 ../Hardware_Denoise_bsp/\libhal_bsp.a(altera_nios2_qsys_irq.o)
 .debug_info    0x0002b61d      0x1d1 ../Hardware_Denoise_bsp/\libhal_bsp.a(alt_busy_sleep.o)
 .debug_info    0x0002b7ee       0xb0 ../Hardware_Denoise_bsp/\libhal_bsp.a(alt_exception_entry.o)
 .debug_info    0x0002b89e      0x445 ../Hardware_Denoise_bsp/\libhal_bsp.a(alt_find_file.o)
 .debug_info    0x0002bce3      0x486 ../Hardware_Denoise_bsp/\libhal_bsp.a(alt_get_fd.o)
 .debug_info    0x0002c169      0x1ca ../Hardware_Denoise_bsp/\libhal_bsp.a(alt_icache_flush.o)
 .debug_info    0x0002c333      0x181 d:/fpga/nios2eds/bin/gnu/h-i686-mingw32/bin/../lib/gcc/nios2-elf/4.1.2/../../../../nios2-elf/lib\libc.a(lib_a-atexit.o)
 .debug_info    0x0002c4b4      0x93f d:/fpga/nios2eds/bin/gnu/h-i686-mingw32/bin/../lib/gcc/nios2-elf/4.1.2/../../../../nios2-elf/lib\libc.a(lib_a-exit.o)
 .debug_info    0x0002cdf3      0x115 d:/fpga/nios2eds/bin/gnu/h-i686-mingw32/bin/../lib/gcc/nios2-elf/4.1.2/../../../../nios2-elf/lib\libc.a(lib_a-memcmp.o)
 .debug_info    0x0002cf08      0x9c1 d:/fpga/nios2eds/bin/gnu/h-i686-mingw32/bin/../lib/gcc/nios2-elf/4.1.2/../../../../nios2-elf/lib\libc.a(lib_a-putc.o)
 .debug_info    0x0002d8c9      0x9ae d:/fpga/nios2eds/bin/gnu/h-i686-mingw32/bin/../lib/gcc/nios2-elf/4.1.2/../../../../nios2-elf/lib\libc.a(lib_a-wbuf.o)
 .debug_info    0x0002e277      0x99c d:/fpga/nios2eds/bin/gnu/h-i686-mingw32/bin/../lib/gcc/nios2-elf/4.1.2/../../../../nios2-elf/lib\libc.a(lib_a-__atexit.o)
 .debug_info    0x0002ec13      0x9e2 d:/fpga/nios2eds/bin/gnu/h-i686-mingw32/bin/../lib/gcc/nios2-elf/4.1.2/../../../../nios2-elf/lib\libc.a(lib_a-__call_atexit.o)
 .debug_info    0x0002f5f5      0x1fe ../Hardware_Denoise_bsp/\libhal_bsp.a(alt_exit.o)

.debug_abbrev   0x00000000     0x9885
 *(.debug_abbrev)
 .debug_abbrev  0x00000000       0x12 ../Hardware_Denoise_bsp//obj/HAL/src/crt0.o
 .debug_abbrev  0x00000012      0x126 obj/default/PS2_ISR.o
 .debug_abbrev  0x00000138      0x138 obj/default/audio_ISR.o
 .debug_abbrev  0x00000270       0xf1 obj/default/globals.o
 .debug_abbrev  0x00000361      0x115 obj/default/interval_timer_ISR.o
 .debug_abbrev  0x00000476      0x1cd obj/default/media_interrupt_HAL.o
 .debug_abbrev  0x00000643      0x124 obj/default/pushbutton_ISR.o
 .debug_abbrev  0x00000767      0x13d d:/fpga/nios2eds/bin/gnu/h-i686-mingw32/bin/../lib/gcc/nios2-elf/4.1.2\libgcc.a(_si_to_sf.o)
 .debug_abbrev  0x000008a4      0x176 d:/fpga/nios2eds/bin/gnu/h-i686-mingw32/bin/../lib/gcc/nios2-elf/4.1.2\libgcc.a(_sf_to_si.o)
 .debug_abbrev  0x00000a1a      0x128 d:/fpga/nios2eds/bin/gnu/h-i686-mingw32/bin/../lib/gcc/nios2-elf/4.1.2\libgcc.a(_sf_to_df.o)
 .debug_abbrev  0x00000b42      0x155 d:/fpga/nios2eds/bin/gnu/h-i686-mingw32/bin/../lib/gcc/nios2-elf/4.1.2\libgcc.a(_usi_to_sf.o)
 .debug_abbrev  0x00000c97      0x10f d:/fpga/nios2eds/bin/gnu/h-i686-mingw32/bin/../lib/gcc/nios2-elf/4.1.2\libgcc.a(_make_df.o)
 .debug_abbrev  0x00000da6       0xb9 d:/fpga/nios2eds/bin/gnu/h-i686-mingw32/bin/../lib/gcc/nios2-elf/4.1.2\libgcc.a(_clzsi2.o)
 .debug_abbrev  0x00000e5f      0x1aa d:/fpga/nios2eds/bin/gnu/h-i686-mingw32/bin/../lib/gcc/nios2-elf/4.1.2\libgcc.a(_pack_sf.o)
 .debug_abbrev  0x00001009      0x158 d:/fpga/nios2eds/bin/gnu/h-i686-mingw32/bin/../lib/gcc/nios2-elf/4.1.2\libgcc.a(_unpack_sf.o)
 .debug_abbrev  0x00001161      0x1b1 d:/fpga/nios2eds/bin/gnu/h-i686-mingw32/bin/../lib/gcc/nios2-elf/4.1.2\libgcc.a(_pack_df.o)
 .debug_abbrev  0x00001312       0x61 d:/fpga/nios2eds/bin/gnu/h-i686-mingw32/bin/../lib/gcc/nios2-elf/4.1.2\libgcc.a(_clz.o)
 .debug_abbrev  0x00001373       0xb5 d:/fpga/nios2eds/bin/gnu/h-i686-mingw32/bin/../lib/gcc/nios2-elf/4.1.2/../../../../nios2-elf/lib\libc.a(lib_a-memcpy.o)
 .debug_abbrev  0x00001428       0xb8 d:/fpga/nios2eds/bin/gnu/h-i686-mingw32/bin/../lib/gcc/nios2-elf/4.1.2/../../../../nios2-elf/lib\libc.a(lib_a-memset.o)
 .debug_abbrev  0x000014e0      0x191 d:/fpga/nios2eds/bin/gnu/h-i686-mingw32/bin/../lib/gcc/nios2-elf/4.1.2/../../../../nios2-elf/lib\libc.a(lib_a-printf.o)
 .debug_abbrev  0x00001671      0x30a d:/fpga/nios2eds/bin/gnu/h-i686-mingw32/bin/../lib/gcc/nios2-elf/4.1.2/../../../../nios2-elf/lib\libc.a(lib_a-vfprintf.o)
 .debug_abbrev  0x0000197b      0x170 d:/fpga/nios2eds/bin/gnu/h-i686-mingw32/bin/../lib/gcc/nios2-elf/4.1.2/../../../../nios2-elf/lib\libc.a(lib_a-wsetup.o)
 .debug_abbrev  0x00001aeb      0x232 d:/fpga/nios2eds/bin/gnu/h-i686-mingw32/bin/../lib/gcc/nios2-elf/4.1.2/../../../../nios2-elf/lib\libc.a(lib_a-dtoa.o)
 .debug_abbrev  0x00001d1d      0x1c6 d:/fpga/nios2eds/bin/gnu/h-i686-mingw32/bin/../lib/gcc/nios2-elf/4.1.2/../../../../nios2-elf/lib\libc.a(lib_a-fflush.o)
 .debug_abbrev  0x00001ee3      0x24c d:/fpga/nios2eds/bin/gnu/h-i686-mingw32/bin/../lib/gcc/nios2-elf/4.1.2/../../../../nios2-elf/lib\libc.a(lib_a-findfp.o)
 .debug_abbrev  0x0000212f      0x1d9 d:/fpga/nios2eds/bin/gnu/h-i686-mingw32/bin/../lib/gcc/nios2-elf/4.1.2/../../../../nios2-elf/lib\libc.a(lib_a-freer.o)
 .debug_abbrev  0x00002308      0x1a3 d:/fpga/nios2eds/bin/gnu/h-i686-mingw32/bin/../lib/gcc/nios2-elf/4.1.2/../../../../nios2-elf/lib\libc.a(lib_a-fvwrite.o)
 .debug_abbrev  0x000024ab      0x1e3 d:/fpga/nios2eds/bin/gnu/h-i686-mingw32/bin/../lib/gcc/nios2-elf/4.1.2/../../../../nios2-elf/lib\libc.a(lib_a-fwalk.o)
 .debug_abbrev  0x0000268e      0x157 d:/fpga/nios2eds/bin/gnu/h-i686-mingw32/bin/../lib/gcc/nios2-elf/4.1.2/../../../../nios2-elf/lib\libc.a(lib_a-impure.o)
 .debug_abbrev  0x000027e5      0x1ed d:/fpga/nios2eds/bin/gnu/h-i686-mingw32/bin/../lib/gcc/nios2-elf/4.1.2/../../../../nios2-elf/lib\libc.a(lib_a-locale.o)
 .debug_abbrev  0x000029d2      0x197 d:/fpga/nios2eds/bin/gnu/h-i686-mingw32/bin/../lib/gcc/nios2-elf/4.1.2/../../../../nios2-elf/lib\libc.a(lib_a-makebuf.o)
 .debug_abbrev  0x00002b69      0x216 d:/fpga/nios2eds/bin/gnu/h-i686-mingw32/bin/../lib/gcc/nios2-elf/4.1.2/../../../../nios2-elf/lib\libc.a(lib_a-mallocr.o)
 .debug_abbrev  0x00002d7f       0xb5 d:/fpga/nios2eds/bin/gnu/h-i686-mingw32/bin/../lib/gcc/nios2-elf/4.1.2/../../../../nios2-elf/lib\libc.a(lib_a-memchr.o)
 .debug_abbrev  0x00002e34       0xb5 d:/fpga/nios2eds/bin/gnu/h-i686-mingw32/bin/../lib/gcc/nios2-elf/4.1.2/../../../../nios2-elf/lib\libc.a(lib_a-memmove.o)
 .debug_abbrev  0x00002ee9      0x297 d:/fpga/nios2eds/bin/gnu/h-i686-mingw32/bin/../lib/gcc/nios2-elf/4.1.2/../../../../nios2-elf/lib\libc.a(lib_a-mprec.o)
 .debug_abbrev  0x00003180      0x1c3 d:/fpga/nios2eds/bin/gnu/h-i686-mingw32/bin/../lib/gcc/nios2-elf/4.1.2/../../../../nios2-elf/lib\libc.a(lib_a-reallocr.o)
 .debug_abbrev  0x00003343       0x79 d:/fpga/nios2eds/bin/gnu/h-i686-mingw32/bin/../lib/gcc/nios2-elf/4.1.2/../../../../nios2-elf/lib\libc.a(lib_a-s_isinfd.o)
 .debug_abbrev  0x000033bc       0x79 d:/fpga/nios2eds/bin/gnu/h-i686-mingw32/bin/../lib/gcc/nios2-elf/4.1.2/../../../../nios2-elf/lib\libc.a(lib_a-s_isnand.o)
 .debug_abbrev  0x00003435      0x18c d:/fpga/nios2eds/bin/gnu/h-i686-mingw32/bin/../lib/gcc/nios2-elf/4.1.2/../../../../nios2-elf/lib\libc.a(lib_a-sbrkr.o)
 .debug_abbrev  0x000035c1      0x1c9 d:/fpga/nios2eds/bin/gnu/h-i686-mingw32/bin/../lib/gcc/nios2-elf/4.1.2/../../../../nios2-elf/lib\libc.a(lib_a-stdio.o)
 .debug_abbrev  0x0000378a       0x80 d:/fpga/nios2eds/bin/gnu/h-i686-mingw32/bin/../lib/gcc/nios2-elf/4.1.2/../../../../nios2-elf/lib\libc.a(lib_a-strcmp.o)
 .debug_abbrev  0x0000380a       0x8b d:/fpga/nios2eds/bin/gnu/h-i686-mingw32/bin/../lib/gcc/nios2-elf/4.1.2/../../../../nios2-elf/lib\libc.a(lib_a-strlen.o)
 .debug_abbrev  0x00003895      0x184 d:/fpga/nios2eds/bin/gnu/h-i686-mingw32/bin/../lib/gcc/nios2-elf/4.1.2/../../../../nios2-elf/lib\libc.a(lib_a-writer.o)
 .debug_abbrev  0x00003a19      0x1b8 d:/fpga/nios2eds/bin/gnu/h-i686-mingw32/bin/../lib/gcc/nios2-elf/4.1.2/../../../../nios2-elf/lib\libc.a(lib_a-callocr.o)
 .debug_abbrev  0x00003bd1      0x17f d:/fpga/nios2eds/bin/gnu/h-i686-mingw32/bin/../lib/gcc/nios2-elf/4.1.2/../../../../nios2-elf/lib\libc.a(lib_a-closer.o)
 .debug_abbrev  0x00003d50      0x1a7 d:/fpga/nios2eds/bin/gnu/h-i686-mingw32/bin/../lib/gcc/nios2-elf/4.1.2/../../../../nios2-elf/lib\libc.a(lib_a-fclose.o)
 .debug_abbrev  0x00003ef7      0x18e d:/fpga/nios2eds/bin/gnu/h-i686-mingw32/bin/../lib/gcc/nios2-elf/4.1.2/../../../../nios2-elf/lib\libc.a(lib_a-fstatr.o)
 .debug_abbrev  0x00004085       0x3b d:/fpga/nios2eds/bin/gnu/h-i686-mingw32/bin/../lib/gcc/nios2-elf/4.1.2/../../../../nios2-elf/lib\libc.a(lib_a-int_errno.o)
 .debug_abbrev  0x000040c0      0x17f d:/fpga/nios2eds/bin/gnu/h-i686-mingw32/bin/../lib/gcc/nios2-elf/4.1.2/../../../../nios2-elf/lib\libc.a(lib_a-isattyr.o)
 .debug_abbrev  0x0000423f      0x18e d:/fpga/nios2eds/bin/gnu/h-i686-mingw32/bin/../lib/gcc/nios2-elf/4.1.2/../../../../nios2-elf/lib\libc.a(lib_a-lseekr.o)
 .debug_abbrev  0x000043cd      0x17f d:/fpga/nios2eds/bin/gnu/h-i686-mingw32/bin/../lib/gcc/nios2-elf/4.1.2/../../../../nios2-elf/lib\libc.a(lib_a-readr.o)
 .debug_abbrev  0x0000454c      0x16b d:/fpga/nios2eds/bin/gnu/h-i686-mingw32/bin/../lib/gcc/nios2-elf/4.1.2\libgcc.a(_udivdi3.o)
 .debug_abbrev  0x000046b7      0x18e d:/fpga/nios2eds/bin/gnu/h-i686-mingw32/bin/../lib/gcc/nios2-elf/4.1.2\libgcc.a(_umoddi3.o)
 .debug_abbrev  0x00004845      0x1d2 d:/fpga/nios2eds/bin/gnu/h-i686-mingw32/bin/../lib/gcc/nios2-elf/4.1.2\libgcc.a(_addsub_df.o)
 .debug_abbrev  0x00004a17      0x204 d:/fpga/nios2eds/bin/gnu/h-i686-mingw32/bin/../lib/gcc/nios2-elf/4.1.2\libgcc.a(_mul_df.o)
 .debug_abbrev  0x00004c1b      0x1e3 d:/fpga/nios2eds/bin/gnu/h-i686-mingw32/bin/../lib/gcc/nios2-elf/4.1.2\libgcc.a(_div_df.o)
 .debug_abbrev  0x00004dfe      0x151 d:/fpga/nios2eds/bin/gnu/h-i686-mingw32/bin/../lib/gcc/nios2-elf/4.1.2\libgcc.a(_eq_df.o)
 .debug_abbrev  0x00004f4f      0x151 d:/fpga/nios2eds/bin/gnu/h-i686-mingw32/bin/../lib/gcc/nios2-elf/4.1.2\libgcc.a(_ne_df.o)
 .debug_abbrev  0x000050a0      0x151 d:/fpga/nios2eds/bin/gnu/h-i686-mingw32/bin/../lib/gcc/nios2-elf/4.1.2\libgcc.a(_gt_df.o)
 .debug_abbrev  0x000051f1      0x151 d:/fpga/nios2eds/bin/gnu/h-i686-mingw32/bin/../lib/gcc/nios2-elf/4.1.2\libgcc.a(_ge_df.o)
 .debug_abbrev  0x00005342      0x151 d:/fpga/nios2eds/bin/gnu/h-i686-mingw32/bin/../lib/gcc/nios2-elf/4.1.2\libgcc.a(_lt_df.o)
 .debug_abbrev  0x00005493      0x13f d:/fpga/nios2eds/bin/gnu/h-i686-mingw32/bin/../lib/gcc/nios2-elf/4.1.2\libgcc.a(_si_to_df.o)
 .debug_abbrev  0x000055d2      0x176 d:/fpga/nios2eds/bin/gnu/h-i686-mingw32/bin/../lib/gcc/nios2-elf/4.1.2\libgcc.a(_df_to_si.o)
 .debug_abbrev  0x00005748       0xba d:/fpga/nios2eds/bin/gnu/h-i686-mingw32/bin/../lib/gcc/nios2-elf/4.1.2\libgcc.a(_thenan_df.o)
 .debug_abbrev  0x00005802      0x155 d:/fpga/nios2eds/bin/gnu/h-i686-mingw32/bin/../lib/gcc/nios2-elf/4.1.2\libgcc.a(_usi_to_df.o)
 .debug_abbrev  0x00005957       0xe0 d:/fpga/nios2eds/bin/gnu/h-i686-mingw32/bin/../lib/gcc/nios2-elf/4.1.2\libgcc.a(lib2-divmod.o)
 .debug_abbrev  0x00005a37       0xee d:/fpga/nios2eds/bin/gnu/h-i686-mingw32/bin/../lib/gcc/nios2-elf/4.1.2\libgcc.a(_muldi3.o)
 .debug_abbrev  0x00005b25      0x149 d:/fpga/nios2eds/bin/gnu/h-i686-mingw32/bin/../lib/gcc/nios2-elf/4.1.2\libgcc.a(_unpack_df.o)
 .debug_abbrev  0x00005c6e      0x132 d:/fpga/nios2eds/bin/gnu/h-i686-mingw32/bin/../lib/gcc/nios2-elf/4.1.2\libgcc.a(_fpcmp_parts_df.o)
 .debug_abbrev  0x00005da0       0xfb ../Hardware_Denoise_bsp/\libhal_bsp.a(alt_close.o)
 .debug_abbrev  0x00005e9b       0xc7 ../Hardware_Denoise_bsp/\libhal_bsp.a(alt_dev.o)
 .debug_abbrev  0x00005f62       0x5e ../Hardware_Denoise_bsp/\libhal_bsp.a(alt_errno.o)
 .debug_abbrev  0x00005fc0       0xfb ../Hardware_Denoise_bsp/\libhal_bsp.a(alt_fstat.o)
 .debug_abbrev  0x000060bb      0x180 ../Hardware_Denoise_bsp/\libhal_bsp.a(alt_irq_register.o)
 .debug_abbrev  0x0000623b       0x44 ../Hardware_Denoise_bsp/\libhal_bsp.a(alt_irq_vars.o)
 .debug_abbrev  0x0000627f       0xfb ../Hardware_Denoise_bsp/\libhal_bsp.a(alt_isatty.o)
 .debug_abbrev  0x0000637a       0x88 ../Hardware_Denoise_bsp/\libhal_bsp.a(alt_load.o)
 .debug_abbrev  0x00006402       0xfb ../Hardware_Denoise_bsp/\libhal_bsp.a(alt_lseek.o)
 .debug_abbrev  0x000064fd       0xbe ../Hardware_Denoise_bsp/\libhal_bsp.a(alt_main.o)
 .debug_abbrev  0x000065bb      0x181 ../Hardware_Denoise_bsp/\libhal_bsp.a(alt_malloc_lock.o)
 .debug_abbrev  0x0000673c       0x91 ../Hardware_Denoise_bsp/\libhal_bsp.a(alt_printf.o)
 .debug_abbrev  0x000067cd      0x17f ../Hardware_Denoise_bsp/\libhal_bsp.a(alt_putchar.o)
 .debug_abbrev  0x0000694c       0xfb ../Hardware_Denoise_bsp/\libhal_bsp.a(alt_read.o)
 .debug_abbrev  0x00006a47       0xc1 ../Hardware_Denoise_bsp/\libhal_bsp.a(alt_release_fd.o)
 .debug_abbrev  0x00006b08      0x11c ../Hardware_Denoise_bsp/\libhal_bsp.a(alt_sbrk.o)
 .debug_abbrev  0x00006c24      0x100 ../Hardware_Denoise_bsp/\libhal_bsp.a(alt_write.o)
 .debug_abbrev  0x00006d24      0x18f ../Hardware_Denoise_bsp/\libhal_bsp.a(alt_sys_init.o)
 .debug_abbrev  0x00006eb3       0xf7 ../Hardware_Denoise_bsp/\libhal_bsp.a(altera_avalon_jtag_uart_fd.o)
 .debug_abbrev  0x00006faa      0x17c ../Hardware_Denoise_bsp/\libhal_bsp.a(altera_avalon_jtag_uart_init.o)
 .debug_abbrev  0x00007126       0xf0 ../Hardware_Denoise_bsp/\libhal_bsp.a(altera_avalon_jtag_uart_ioctl.o)
 .debug_abbrev  0x00007216      0x191 ../Hardware_Denoise_bsp/\libhal_bsp.a(altera_avalon_jtag_uart_read.o)
 .debug_abbrev  0x000073a7      0x18d ../Hardware_Denoise_bsp/\libhal_bsp.a(altera_avalon_jtag_uart_write.o)
 .debug_abbrev  0x00007534       0xbe ../Hardware_Denoise_bsp/\libhal_bsp.a(altera_avalon_timer_ts.o)
 .debug_abbrev  0x000075f2       0x87 ../Hardware_Denoise_bsp/\libhal_bsp.a(altera_avalon_timer_vars.o)
 .debug_abbrev  0x00007679      0x164 ../Hardware_Denoise_bsp/\libhal_bsp.a(altera_up_avalon_audio.o)
 .debug_abbrev  0x000077dd      0x127 ../Hardware_Denoise_bsp/\libhal_bsp.a(altera_up_avalon_character_lcd.o)
 .debug_abbrev  0x00007904      0x114 ../Hardware_Denoise_bsp/\libhal_bsp.a(altera_up_avalon_ethernet.o)
 .debug_abbrev  0x00007a18       0x8d ../Hardware_Denoise_bsp/\libhal_bsp.a(altera_up_avalon_ethernet_low_level_driver.o)
 .debug_abbrev  0x00007aa5      0x120 ../Hardware_Denoise_bsp/\libhal_bsp.a(altera_up_avalon_irda.o)
 .debug_abbrev  0x00007bc5       0xf2 ../Hardware_Denoise_bsp/\libhal_bsp.a(altera_up_avalon_parallel_port.o)
 .debug_abbrev  0x00007cb7      0x16d ../Hardware_Denoise_bsp/\libhal_bsp.a(altera_up_avalon_ps2.o)
 .debug_abbrev  0x00007e24      0x120 ../Hardware_Denoise_bsp/\libhal_bsp.a(altera_up_avalon_rs232.o)
 .debug_abbrev  0x00007f44      0x111 ../Hardware_Denoise_bsp/\libhal_bsp.a(altera_up_avalon_video_character_buffer_with_dma.o)
 .debug_abbrev  0x00008055      0x196 ../Hardware_Denoise_bsp/\libhal_bsp.a(altera_up_avalon_video_pixel_buffer_dma.o)
 .debug_abbrev  0x000081eb      0x172 ../Hardware_Denoise_bsp/\libhal_bsp.a(alt_alarm_start.o)
 .debug_abbrev  0x0000835d       0x3f ../Hardware_Denoise_bsp/\libhal_bsp.a(alt_dcache_flush_all.o)
 .debug_abbrev  0x0000839c       0xf6 ../Hardware_Denoise_bsp/\libhal_bsp.a(alt_dev_llist_insert.o)
 .debug_abbrev  0x00008492       0x76 ../Hardware_Denoise_bsp/\libhal_bsp.a(alt_do_ctors.o)
 .debug_abbrev  0x00008508       0x76 ../Hardware_Denoise_bsp/\libhal_bsp.a(alt_do_dtors.o)
 .debug_abbrev  0x0000857e       0xcf ../Hardware_Denoise_bsp/\libhal_bsp.a(alt_find_dev.o)
 .debug_abbrev  0x0000864d       0x3f ../Hardware_Denoise_bsp/\libhal_bsp.a(alt_icache_flush_all.o)
 .debug_abbrev  0x0000868c       0xf0 ../Hardware_Denoise_bsp/\libhal_bsp.a(alt_io_redirect.o)
 .debug_abbrev  0x0000877c       0x12 ../Hardware_Denoise_bsp/\libhal_bsp.a(alt_irq_entry.o)
 .debug_abbrev  0x0000878e      0x124 ../Hardware_Denoise_bsp/\libhal_bsp.a(alt_irq_handler.o)
 .debug_abbrev  0x000088b2      0x112 ../Hardware_Denoise_bsp/\libhal_bsp.a(alt_open.o)
 .debug_abbrev  0x000089c4      0x161 ../Hardware_Denoise_bsp/\libhal_bsp.a(alt_tick.o)
 .debug_abbrev  0x00008b25       0x5d ../Hardware_Denoise_bsp/\libhal_bsp.a(alt_usleep.o)
 .debug_abbrev  0x00008b82       0x64 ../Hardware_Denoise_bsp/\libhal_bsp.a(altera_nios2_qsys_irq.o)
 .debug_abbrev  0x00008be6       0x6c ../Hardware_Denoise_bsp/\libhal_bsp.a(alt_busy_sleep.o)
 .debug_abbrev  0x00008c52       0x12 ../Hardware_Denoise_bsp/\libhal_bsp.a(alt_exception_entry.o)
 .debug_abbrev  0x00008c64       0xcf ../Hardware_Denoise_bsp/\libhal_bsp.a(alt_find_file.o)
 .debug_abbrev  0x00008d33       0xfb ../Hardware_Denoise_bsp/\libhal_bsp.a(alt_get_fd.o)
 .debug_abbrev  0x00008e2e       0x7a ../Hardware_Denoise_bsp/\libhal_bsp.a(alt_icache_flush.o)
 .debug_abbrev  0x00008ea8       0xb7 d:/fpga/nios2eds/bin/gnu/h-i686-mingw32/bin/../lib/gcc/nios2-elf/4.1.2/../../../../nios2-elf/lib\libc.a(lib_a-atexit.o)
 .debug_abbrev  0x00008f5f      0x16e d:/fpga/nios2eds/bin/gnu/h-i686-mingw32/bin/../lib/gcc/nios2-elf/4.1.2/../../../../nios2-elf/lib\libc.a(lib_a-exit.o)
 .debug_abbrev  0x000090cd       0x7c d:/fpga/nios2eds/bin/gnu/h-i686-mingw32/bin/../lib/gcc/nios2-elf/4.1.2/../../../../nios2-elf/lib\libc.a(lib_a-memcmp.o)
 .debug_abbrev  0x00009149      0x17f d:/fpga/nios2eds/bin/gnu/h-i686-mingw32/bin/../lib/gcc/nios2-elf/4.1.2/../../../../nios2-elf/lib\libc.a(lib_a-putc.o)
 .debug_abbrev  0x000092c8      0x198 d:/fpga/nios2eds/bin/gnu/h-i686-mingw32/bin/../lib/gcc/nios2-elf/4.1.2/../../../../nios2-elf/lib\libc.a(lib_a-wbuf.o)
 .debug_abbrev  0x00009460      0x1ae d:/fpga/nios2eds/bin/gnu/h-i686-mingw32/bin/../lib/gcc/nios2-elf/4.1.2/../../../../nios2-elf/lib\libc.a(lib_a-__atexit.o)
 .debug_abbrev  0x0000960e      0x1de d:/fpga/nios2eds/bin/gnu/h-i686-mingw32/bin/../lib/gcc/nios2-elf/4.1.2/../../../../nios2-elf/lib\libc.a(lib_a-__call_atexit.o)
 .debug_abbrev  0x000097ec       0x99 ../Hardware_Denoise_bsp/\libhal_bsp.a(alt_exit.o)

.debug_line     0x00000000    0x1938c
 *(.debug_line)
 .debug_line    0x00000000       0x6c ../Hardware_Denoise_bsp//obj/HAL/src/crt0.o
 .debug_line    0x0000006c      0x3c8 obj/default/PS2_ISR.o
 .debug_line    0x00000434      0x482 obj/default/audio_ISR.o
 .debug_line    0x000008b6      0x33e obj/default/globals.o
 .debug_line    0x00000bf4      0x37b obj/default/interval_timer_ISR.o
 .debug_line    0x00000f6f      0xb30 obj/default/media_interrupt_HAL.o
 .debug_line    0x00001a9f      0x3af obj/default/pushbutton_ISR.o
 .debug_line    0x00001e4e      0x187 d:/fpga/nios2eds/bin/gnu/h-i686-mingw32/bin/../lib/gcc/nios2-elf/4.1.2\libgcc.a(_si_to_sf.o)
 .debug_line    0x00001fd5      0x141 d:/fpga/nios2eds/bin/gnu/h-i686-mingw32/bin/../lib/gcc/nios2-elf/4.1.2\libgcc.a(_sf_to_si.o)
 .debug_line    0x00002116       0xd1 d:/fpga/nios2eds/bin/gnu/h-i686-mingw32/bin/../lib/gcc/nios2-elf/4.1.2\libgcc.a(_sf_to_df.o)
 .debug_line    0x000021e7      0x183 d:/fpga/nios2eds/bin/gnu/h-i686-mingw32/bin/../lib/gcc/nios2-elf/4.1.2\libgcc.a(_usi_to_sf.o)
 .debug_line    0x0000236a       0xe9 d:/fpga/nios2eds/bin/gnu/h-i686-mingw32/bin/../lib/gcc/nios2-elf/4.1.2\libgcc.a(_make_df.o)
 .debug_line    0x00002453      0x105 d:/fpga/nios2eds/bin/gnu/h-i686-mingw32/bin/../lib/gcc/nios2-elf/4.1.2\libgcc.a(_clzsi2.o)
 .debug_line    0x00002558      0x1ca d:/fpga/nios2eds/bin/gnu/h-i686-mingw32/bin/../lib/gcc/nios2-elf/4.1.2\libgcc.a(_pack_sf.o)
 .debug_line    0x00002722      0x197 d:/fpga/nios2eds/bin/gnu/h-i686-mingw32/bin/../lib/gcc/nios2-elf/4.1.2\libgcc.a(_unpack_sf.o)
 .debug_line    0x000028b9      0x222 d:/fpga/nios2eds/bin/gnu/h-i686-mingw32/bin/../lib/gcc/nios2-elf/4.1.2\libgcc.a(_pack_df.o)
 .debug_line    0x00002adb       0xaa d:/fpga/nios2eds/bin/gnu/h-i686-mingw32/bin/../lib/gcc/nios2-elf/4.1.2\libgcc.a(_clz.o)
 .debug_line    0x00002b85      0x1ac d:/fpga/nios2eds/bin/gnu/h-i686-mingw32/bin/../lib/gcc/nios2-elf/4.1.2/../../../../nios2-elf/lib\libc.a(lib_a-memcpy.o)
 .debug_line    0x00002d31      0x301 d:/fpga/nios2eds/bin/gnu/h-i686-mingw32/bin/../lib/gcc/nios2-elf/4.1.2/../../../../nios2-elf/lib\libc.a(lib_a-memset.o)
 .debug_line    0x00003032      0x29b d:/fpga/nios2eds/bin/gnu/h-i686-mingw32/bin/../lib/gcc/nios2-elf/4.1.2/../../../../nios2-elf/lib\libc.a(lib_a-printf.o)
 .debug_line    0x000032cd     0x110c d:/fpga/nios2eds/bin/gnu/h-i686-mingw32/bin/../lib/gcc/nios2-elf/4.1.2/../../../../nios2-elf/lib\libc.a(lib_a-vfprintf.o)
 .debug_line    0x000043d9      0x2f0 d:/fpga/nios2eds/bin/gnu/h-i686-mingw32/bin/../lib/gcc/nios2-elf/4.1.2/../../../../nios2-elf/lib\libc.a(lib_a-wsetup.o)
 .debug_line    0x000046c9     0x12c6 d:/fpga/nios2eds/bin/gnu/h-i686-mingw32/bin/../lib/gcc/nios2-elf/4.1.2/../../../../nios2-elf/lib\libc.a(lib_a-dtoa.o)
 .debug_line    0x0000598f      0x40d d:/fpga/nios2eds/bin/gnu/h-i686-mingw32/bin/../lib/gcc/nios2-elf/4.1.2/../../../../nios2-elf/lib\libc.a(lib_a-fflush.o)
 .debug_line    0x00005d9c      0x601 d:/fpga/nios2eds/bin/gnu/h-i686-mingw32/bin/../lib/gcc/nios2-elf/4.1.2/../../../../nios2-elf/lib\libc.a(lib_a-findfp.o)
 .debug_line    0x0000639d      0x5eb d:/fpga/nios2eds/bin/gnu/h-i686-mingw32/bin/../lib/gcc/nios2-elf/4.1.2/../../../../nios2-elf/lib\libc.a(lib_a-freer.o)
 .debug_line    0x00006988      0x641 d:/fpga/nios2eds/bin/gnu/h-i686-mingw32/bin/../lib/gcc/nios2-elf/4.1.2/../../../../nios2-elf/lib\libc.a(lib_a-fvwrite.o)
 .debug_line    0x00006fc9      0x34a d:/fpga/nios2eds/bin/gnu/h-i686-mingw32/bin/../lib/gcc/nios2-elf/4.1.2/../../../../nios2-elf/lib\libc.a(lib_a-fwalk.o)
 .debug_line    0x00007313      0x22d d:/fpga/nios2eds/bin/gnu/h-i686-mingw32/bin/../lib/gcc/nios2-elf/4.1.2/../../../../nios2-elf/lib\libc.a(lib_a-impure.o)
 .debug_line    0x00007540      0x2c8 d:/fpga/nios2eds/bin/gnu/h-i686-mingw32/bin/../lib/gcc/nios2-elf/4.1.2/../../../../nios2-elf/lib\libc.a(lib_a-locale.o)
 .debug_line    0x00007808      0x3c3 d:/fpga/nios2eds/bin/gnu/h-i686-mingw32/bin/../lib/gcc/nios2-elf/4.1.2/../../../../nios2-elf/lib\libc.a(lib_a-makebuf.o)
 .debug_line    0x00007bcb      0x80a d:/fpga/nios2eds/bin/gnu/h-i686-mingw32/bin/../lib/gcc/nios2-elf/4.1.2/../../../../nios2-elf/lib\libc.a(lib_a-mallocr.o)
 .debug_line    0x000083d5      0x303 d:/fpga/nios2eds/bin/gnu/h-i686-mingw32/bin/../lib/gcc/nios2-elf/4.1.2/../../../../nios2-elf/lib\libc.a(lib_a-memchr.o)
 .debug_line    0x000086d8      0x30a d:/fpga/nios2eds/bin/gnu/h-i686-mingw32/bin/../lib/gcc/nios2-elf/4.1.2/../../../../nios2-elf/lib\libc.a(lib_a-memmove.o)
 .debug_line    0x000089e2     0x1243 d:/fpga/nios2eds/bin/gnu/h-i686-mingw32/bin/../lib/gcc/nios2-elf/4.1.2/../../../../nios2-elf/lib\libc.a(lib_a-mprec.o)
 .debug_line    0x00009c25      0x58a d:/fpga/nios2eds/bin/gnu/h-i686-mingw32/bin/../lib/gcc/nios2-elf/4.1.2/../../../../nios2-elf/lib\libc.a(lib_a-reallocr.o)
 .debug_line    0x0000a1af      0x222 d:/fpga/nios2eds/bin/gnu/h-i686-mingw32/bin/../lib/gcc/nios2-elf/4.1.2/../../../../nios2-elf/lib\libc.a(lib_a-s_isinfd.o)
 .debug_line    0x0000a3d1      0x21a d:/fpga/nios2eds/bin/gnu/h-i686-mingw32/bin/../lib/gcc/nios2-elf/4.1.2/../../../../nios2-elf/lib\libc.a(lib_a-s_isnand.o)
 .debug_line    0x0000a5eb      0x299 d:/fpga/nios2eds/bin/gnu/h-i686-mingw32/bin/../lib/gcc/nios2-elf/4.1.2/../../../../nios2-elf/lib\libc.a(lib_a-sbrkr.o)
 .debug_line    0x0000a884      0x38c d:/fpga/nios2eds/bin/gnu/h-i686-mingw32/bin/../lib/gcc/nios2-elf/4.1.2/../../../../nios2-elf/lib\libc.a(lib_a-stdio.o)
 .debug_line    0x0000ac10      0x2d5 d:/fpga/nios2eds/bin/gnu/h-i686-mingw32/bin/../lib/gcc/nios2-elf/4.1.2/../../../../nios2-elf/lib\libc.a(lib_a-strcmp.o)
 .debug_line    0x0000aee5      0x26d d:/fpga/nios2eds/bin/gnu/h-i686-mingw32/bin/../lib/gcc/nios2-elf/4.1.2/../../../../nios2-elf/lib\libc.a(lib_a-strlen.o)
 .debug_line    0x0000b152      0x29a d:/fpga/nios2eds/bin/gnu/h-i686-mingw32/bin/../lib/gcc/nios2-elf/4.1.2/../../../../nios2-elf/lib\libc.a(lib_a-writer.o)
 .debug_line    0x0000b3ec      0x25c d:/fpga/nios2eds/bin/gnu/h-i686-mingw32/bin/../lib/gcc/nios2-elf/4.1.2/../../../../nios2-elf/lib\libc.a(lib_a-callocr.o)
 .debug_line    0x0000b648      0x29a d:/fpga/nios2eds/bin/gnu/h-i686-mingw32/bin/../lib/gcc/nios2-elf/4.1.2/../../../../nios2-elf/lib\libc.a(lib_a-closer.o)
 .debug_line    0x0000b8e2      0x2e8 d:/fpga/nios2eds/bin/gnu/h-i686-mingw32/bin/../lib/gcc/nios2-elf/4.1.2/../../../../nios2-elf/lib\libc.a(lib_a-fclose.o)
 .debug_line    0x0000bbca      0x264 d:/fpga/nios2eds/bin/gnu/h-i686-mingw32/bin/../lib/gcc/nios2-elf/4.1.2/../../../../nios2-elf/lib\libc.a(lib_a-fstatr.o)
 .debug_line    0x0000be2e      0x1df d:/fpga/nios2eds/bin/gnu/h-i686-mingw32/bin/../lib/gcc/nios2-elf/4.1.2/../../../../nios2-elf/lib\libc.a(lib_a-int_errno.o)
 .debug_line    0x0000c00d      0x29b d:/fpga/nios2eds/bin/gnu/h-i686-mingw32/bin/../lib/gcc/nios2-elf/4.1.2/../../../../nios2-elf/lib\libc.a(lib_a-isattyr.o)
 .debug_line    0x0000c2a8      0x29a d:/fpga/nios2eds/bin/gnu/h-i686-mingw32/bin/../lib/gcc/nios2-elf/4.1.2/../../../../nios2-elf/lib\libc.a(lib_a-lseekr.o)
 .debug_line    0x0000c542      0x299 d:/fpga/nios2eds/bin/gnu/h-i686-mingw32/bin/../lib/gcc/nios2-elf/4.1.2/../../../../nios2-elf/lib\libc.a(lib_a-readr.o)
 .debug_line    0x0000c7db      0x2f2 d:/fpga/nios2eds/bin/gnu/h-i686-mingw32/bin/../lib/gcc/nios2-elf/4.1.2\libgcc.a(_udivdi3.o)
 .debug_line    0x0000cacd      0x37d d:/fpga/nios2eds/bin/gnu/h-i686-mingw32/bin/../lib/gcc/nios2-elf/4.1.2\libgcc.a(_umoddi3.o)
 .debug_line    0x0000ce4a      0x430 d:/fpga/nios2eds/bin/gnu/h-i686-mingw32/bin/../lib/gcc/nios2-elf/4.1.2\libgcc.a(_addsub_df.o)
 .debug_line    0x0000d27a      0x3e5 d:/fpga/nios2eds/bin/gnu/h-i686-mingw32/bin/../lib/gcc/nios2-elf/4.1.2\libgcc.a(_mul_df.o)
 .debug_line    0x0000d65f      0x301 d:/fpga/nios2eds/bin/gnu/h-i686-mingw32/bin/../lib/gcc/nios2-elf/4.1.2\libgcc.a(_div_df.o)
 .debug_line    0x0000d960      0x129 d:/fpga/nios2eds/bin/gnu/h-i686-mingw32/bin/../lib/gcc/nios2-elf/4.1.2\libgcc.a(_eq_df.o)
 .debug_line    0x0000da89      0x129 d:/fpga/nios2eds/bin/gnu/h-i686-mingw32/bin/../lib/gcc/nios2-elf/4.1.2\libgcc.a(_ne_df.o)
 .debug_line    0x0000dbb2      0x129 d:/fpga/nios2eds/bin/gnu/h-i686-mingw32/bin/../lib/gcc/nios2-elf/4.1.2\libgcc.a(_gt_df.o)
 .debug_line    0x0000dcdb      0x129 d:/fpga/nios2eds/bin/gnu/h-i686-mingw32/bin/../lib/gcc/nios2-elf/4.1.2\libgcc.a(_ge_df.o)
 .debug_line    0x0000de04      0x129 d:/fpga/nios2eds/bin/gnu/h-i686-mingw32/bin/../lib/gcc/nios2-elf/4.1.2\libgcc.a(_lt_df.o)
 .debug_line    0x0000df2d      0x175 d:/fpga/nios2eds/bin/gnu/h-i686-mingw32/bin/../lib/gcc/nios2-elf/4.1.2\libgcc.a(_si_to_df.o)
 .debug_line    0x0000e0a2      0x149 d:/fpga/nios2eds/bin/gnu/h-i686-mingw32/bin/../lib/gcc/nios2-elf/4.1.2\libgcc.a(_df_to_si.o)
 .debug_line    0x0000e1eb       0x94 d:/fpga/nios2eds/bin/gnu/h-i686-mingw32/bin/../lib/gcc/nios2-elf/4.1.2\libgcc.a(_thenan_df.o)
 .debug_line    0x0000e27f      0x189 d:/fpga/nios2eds/bin/gnu/h-i686-mingw32/bin/../lib/gcc/nios2-elf/4.1.2\libgcc.a(_usi_to_df.o)
 .debug_line    0x0000e408      0x24f d:/fpga/nios2eds/bin/gnu/h-i686-mingw32/bin/../lib/gcc/nios2-elf/4.1.2\libgcc.a(lib2-divmod.o)
 .debug_line    0x0000e657      0x11f d:/fpga/nios2eds/bin/gnu/h-i686-mingw32/bin/../lib/gcc/nios2-elf/4.1.2\libgcc.a(_muldi3.o)
 .debug_line    0x0000e776      0x1e4 d:/fpga/nios2eds/bin/gnu/h-i686-mingw32/bin/../lib/gcc/nios2-elf/4.1.2\libgcc.a(_unpack_df.o)
 .debug_line    0x0000e95a      0x187 d:/fpga/nios2eds/bin/gnu/h-i686-mingw32/bin/../lib/gcc/nios2-elf/4.1.2\libgcc.a(_fpcmp_parts_df.o)
 .debug_line    0x0000eae1      0x285 ../Hardware_Denoise_bsp/\libhal_bsp.a(alt_close.o)
 .debug_line    0x0000ed66      0x240 ../Hardware_Denoise_bsp/\libhal_bsp.a(alt_dev.o)
 .debug_line    0x0000efa6      0x196 ../Hardware_Denoise_bsp/\libhal_bsp.a(alt_errno.o)
 .debug_line    0x0000f13c      0x28d ../Hardware_Denoise_bsp/\libhal_bsp.a(alt_fstat.o)
 .debug_line    0x0000f3c9      0x2ef ../Hardware_Denoise_bsp/\libhal_bsp.a(alt_irq_register.o)
 .debug_line    0x0000f6b8       0x72 ../Hardware_Denoise_bsp/\libhal_bsp.a(alt_irq_vars.o)
 .debug_line    0x0000f72a      0x28e ../Hardware_Denoise_bsp/\libhal_bsp.a(alt_isatty.o)
 .debug_line    0x0000f9b8      0x203 ../Hardware_Denoise_bsp/\libhal_bsp.a(alt_load.o)
 .debug_line    0x0000fbbb      0x28d ../Hardware_Denoise_bsp/\libhal_bsp.a(alt_lseek.o)
 .debug_line    0x0000fe48      0x2ca ../Hardware_Denoise_bsp/\libhal_bsp.a(alt_main.o)
 .debug_line    0x00010112      0x1f1 ../Hardware_Denoise_bsp/\libhal_bsp.a(alt_malloc_lock.o)
 .debug_line    0x00010303      0x1d0 ../Hardware_Denoise_bsp/\libhal_bsp.a(alt_printf.o)
 .debug_line    0x000104d3      0x1b6 ../Hardware_Denoise_bsp/\libhal_bsp.a(alt_putchar.o)
 .debug_line    0x00010689      0x2b4 ../Hardware_Denoise_bsp/\libhal_bsp.a(alt_read.o)
 .debug_line    0x0001093d       0xed ../Hardware_Denoise_bsp/\libhal_bsp.a(alt_release_fd.o)
 .debug_line    0x00010a2a      0x266 ../Hardware_Denoise_bsp/\libhal_bsp.a(alt_sbrk.o)
 .debug_line    0x00010c90      0x2b5 ../Hardware_Denoise_bsp/\libhal_bsp.a(alt_write.o)
 .debug_line    0x00010f45      0x542 ../Hardware_Denoise_bsp/\libhal_bsp.a(alt_sys_init.o)
 .debug_line    0x00011487      0x20d ../Hardware_Denoise_bsp/\libhal_bsp.a(altera_avalon_jtag_uart_fd.o)
 .debug_line    0x00011694      0x4ab ../Hardware_Denoise_bsp/\libhal_bsp.a(altera_avalon_jtag_uart_init.o)
 .debug_line    0x00011b3f      0x303 ../Hardware_Denoise_bsp/\libhal_bsp.a(altera_avalon_jtag_uart_ioctl.o)
 .debug_line    0x00011e42      0x3f7 ../Hardware_Denoise_bsp/\libhal_bsp.a(altera_avalon_jtag_uart_read.o)
 .debug_line    0x00012239      0x405 ../Hardware_Denoise_bsp/\libhal_bsp.a(altera_avalon_jtag_uart_write.o)
 .debug_line    0x0001263e      0x2f9 ../Hardware_Denoise_bsp/\libhal_bsp.a(altera_avalon_timer_ts.o)
 .debug_line    0x00012937      0x224 ../Hardware_Denoise_bsp/\libhal_bsp.a(altera_avalon_timer_vars.o)
 .debug_line    0x00012b5b      0x561 ../Hardware_Denoise_bsp/\libhal_bsp.a(altera_up_avalon_audio.o)
 .debug_line    0x000130bc      0x472 ../Hardware_Denoise_bsp/\libhal_bsp.a(altera_up_avalon_character_lcd.o)
 .debug_line    0x0001352e      0x2d5 ../Hardware_Denoise_bsp/\libhal_bsp.a(altera_up_avalon_ethernet.o)
 .debug_line    0x00013803      0x2dc ../Hardware_Denoise_bsp/\libhal_bsp.a(altera_up_avalon_ethernet_low_level_driver.o)
 .debug_line    0x00013adf      0x3cb ../Hardware_Denoise_bsp/\libhal_bsp.a(altera_up_avalon_irda.o)
 .debug_line    0x00013eaa      0x262 ../Hardware_Denoise_bsp/\libhal_bsp.a(altera_up_avalon_parallel_port.o)
 .debug_line    0x0001410c      0x5e1 ../Hardware_Denoise_bsp/\libhal_bsp.a(altera_up_avalon_ps2.o)
 .debug_line    0x000146ed      0x3d5 ../Hardware_Denoise_bsp/\libhal_bsp.a(altera_up_avalon_rs232.o)
 .debug_line    0x00014ac2      0x381 ../Hardware_Denoise_bsp/\libhal_bsp.a(altera_up_avalon_video_character_buffer_with_dma.o)
 .debug_line    0x00014e43      0xb77 ../Hardware_Denoise_bsp/\libhal_bsp.a(altera_up_avalon_video_pixel_buffer_dma.o)
 .debug_line    0x000159ba      0x2e1 ../Hardware_Denoise_bsp/\libhal_bsp.a(alt_alarm_start.o)
 .debug_line    0x00015c9b      0x1a1 ../Hardware_Denoise_bsp/\libhal_bsp.a(alt_dcache_flush_all.o)
 .debug_line    0x00015e3c      0x246 ../Hardware_Denoise_bsp/\libhal_bsp.a(alt_dev_llist_insert.o)
 .debug_line    0x00016082       0x83 ../Hardware_Denoise_bsp/\libhal_bsp.a(alt_do_ctors.o)
 .debug_line    0x00016105       0x83 ../Hardware_Denoise_bsp/\libhal_bsp.a(alt_do_dtors.o)
 .debug_line    0x00016188      0x257 ../Hardware_Denoise_bsp/\libhal_bsp.a(alt_find_dev.o)
 .debug_line    0x000163df      0x1a9 ../Hardware_Denoise_bsp/\libhal_bsp.a(alt_icache_flush_all.o)
 .debug_line    0x00016588      0x2a0 ../Hardware_Denoise_bsp/\libhal_bsp.a(alt_io_redirect.o)
 .debug_line    0x00016828       0x6b ../Hardware_Denoise_bsp/\libhal_bsp.a(alt_irq_entry.o)
 .debug_line    0x00016893      0x24d ../Hardware_Denoise_bsp/\libhal_bsp.a(alt_irq_handler.o)
 .debug_line    0x00016ae0      0x2eb ../Hardware_Denoise_bsp/\libhal_bsp.a(alt_open.o)
 .debug_line    0x00016dcb      0x2e1 ../Hardware_Denoise_bsp/\libhal_bsp.a(alt_tick.o)
 .debug_line    0x000170ac      0x1e4 ../Hardware_Denoise_bsp/\libhal_bsp.a(alt_usleep.o)
 .debug_line    0x00017290      0x1d3 ../Hardware_Denoise_bsp/\libhal_bsp.a(altera_nios2_qsys_irq.o)
 .debug_line    0x00017463      0x23e ../Hardware_Denoise_bsp/\libhal_bsp.a(alt_busy_sleep.o)
 .debug_line    0x000176a1       0xab ../Hardware_Denoise_bsp/\libhal_bsp.a(alt_exception_entry.o)
 .debug_line    0x0001774c      0x268 ../Hardware_Denoise_bsp/\libhal_bsp.a(alt_find_file.o)
 .debug_line    0x000179b4      0x283 ../Hardware_Denoise_bsp/\libhal_bsp.a(alt_get_fd.o)
 .debug_line    0x00017c37      0x1e5 ../Hardware_Denoise_bsp/\libhal_bsp.a(alt_icache_flush.o)
 .debug_line    0x00017e1c      0x200 d:/fpga/nios2eds/bin/gnu/h-i686-mingw32/bin/../lib/gcc/nios2-elf/4.1.2/../../../../nios2-elf/lib\libc.a(lib_a-atexit.o)
 .debug_line    0x0001801c      0x238 d:/fpga/nios2eds/bin/gnu/h-i686-mingw32/bin/../lib/gcc/nios2-elf/4.1.2/../../../../nios2-elf/lib\libc.a(lib_a-exit.o)
 .debug_line    0x00018254      0x29f d:/fpga/nios2eds/bin/gnu/h-i686-mingw32/bin/../lib/gcc/nios2-elf/4.1.2/../../../../nios2-elf/lib\libc.a(lib_a-memcmp.o)
 .debug_line    0x000184f3      0x2c4 d:/fpga/nios2eds/bin/gnu/h-i686-mingw32/bin/../lib/gcc/nios2-elf/4.1.2/../../../../nios2-elf/lib\libc.a(lib_a-putc.o)
 .debug_line    0x000187b7      0x350 d:/fpga/nios2eds/bin/gnu/h-i686-mingw32/bin/../lib/gcc/nios2-elf/4.1.2/../../../../nios2-elf/lib\libc.a(lib_a-wbuf.o)
 .debug_line    0x00018b07      0x313 d:/fpga/nios2eds/bin/gnu/h-i686-mingw32/bin/../lib/gcc/nios2-elf/4.1.2/../../../../nios2-elf/lib\libc.a(lib_a-__atexit.o)
 .debug_line    0x00018e1a      0x367 d:/fpga/nios2eds/bin/gnu/h-i686-mingw32/bin/../lib/gcc/nios2-elf/4.1.2/../../../../nios2-elf/lib\libc.a(lib_a-__call_atexit.o)
 .debug_line    0x00019181      0x20b ../Hardware_Denoise_bsp/\libhal_bsp.a(alt_exit.o)

.debug_frame    0x00000000     0x2688
 *(.debug_frame)
 .debug_frame   0x00000000       0x2c obj/default/PS2_ISR.o
 .debug_frame   0x0000002c       0x2c obj/default/audio_ISR.o
 .debug_frame   0x00000058       0x2c obj/default/interval_timer_ISR.o
 .debug_frame   0x00000084      0x18c obj/default/media_interrupt_HAL.o
 .debug_frame   0x00000210       0x2c obj/default/pushbutton_ISR.o
 .debug_frame   0x0000023c       0x28 d:/fpga/nios2eds/bin/gnu/h-i686-mingw32/bin/../lib/gcc/nios2-elf/4.1.2\libgcc.a(_si_to_sf.o)
 .debug_frame   0x00000264       0x28 d:/fpga/nios2eds/bin/gnu/h-i686-mingw32/bin/../lib/gcc/nios2-elf/4.1.2\libgcc.a(_sf_to_si.o)
 .debug_frame   0x0000028c       0x28 d:/fpga/nios2eds/bin/gnu/h-i686-mingw32/bin/../lib/gcc/nios2-elf/4.1.2\libgcc.a(_sf_to_df.o)
 .debug_frame   0x000002b4       0x2c d:/fpga/nios2eds/bin/gnu/h-i686-mingw32/bin/../lib/gcc/nios2-elf/4.1.2\libgcc.a(_usi_to_sf.o)
 .debug_frame   0x000002e0       0x28 d:/fpga/nios2eds/bin/gnu/h-i686-mingw32/bin/../lib/gcc/nios2-elf/4.1.2\libgcc.a(_make_df.o)
 .debug_frame   0x00000308       0x20 d:/fpga/nios2eds/bin/gnu/h-i686-mingw32/bin/../lib/gcc/nios2-elf/4.1.2\libgcc.a(_clzsi2.o)
 .debug_frame   0x00000328       0x20 d:/fpga/nios2eds/bin/gnu/h-i686-mingw32/bin/../lib/gcc/nios2-elf/4.1.2\libgcc.a(_pack_sf.o)
 .debug_frame   0x00000348       0x20 d:/fpga/nios2eds/bin/gnu/h-i686-mingw32/bin/../lib/gcc/nios2-elf/4.1.2\libgcc.a(_unpack_sf.o)
 .debug_frame   0x00000368       0x2c d:/fpga/nios2eds/bin/gnu/h-i686-mingw32/bin/../lib/gcc/nios2-elf/4.1.2\libgcc.a(_pack_df.o)
 .debug_frame   0x00000394       0x20 d:/fpga/nios2eds/bin/gnu/h-i686-mingw32/bin/../lib/gcc/nios2-elf/4.1.2/../../../../nios2-elf/lib\libc.a(lib_a-memcpy.o)
 .debug_frame   0x000003b4       0x20 d:/fpga/nios2eds/bin/gnu/h-i686-mingw32/bin/../lib/gcc/nios2-elf/4.1.2/../../../../nios2-elf/lib\libc.a(lib_a-memset.o)
 .debug_frame   0x000003d4       0x40 d:/fpga/nios2eds/bin/gnu/h-i686-mingw32/bin/../lib/gcc/nios2-elf/4.1.2/../../../../nios2-elf/lib\libc.a(lib_a-printf.o)
 .debug_frame   0x00000414       0x64 d:/fpga/nios2eds/bin/gnu/h-i686-mingw32/bin/../lib/gcc/nios2-elf/4.1.2/../../../../nios2-elf/lib\libc.a(lib_a-vfprintf.o)
 .debug_frame   0x00000478       0x2c d:/fpga/nios2eds/bin/gnu/h-i686-mingw32/bin/../lib/gcc/nios2-elf/4.1.2/../../../../nios2-elf/lib\libc.a(lib_a-wsetup.o)
 .debug_frame   0x000004a4       0x64 d:/fpga/nios2eds/bin/gnu/h-i686-mingw32/bin/../lib/gcc/nios2-elf/4.1.2/../../../../nios2-elf/lib\libc.a(lib_a-dtoa.o)
 .debug_frame   0x00000508       0x40 d:/fpga/nios2eds/bin/gnu/h-i686-mingw32/bin/../lib/gcc/nios2-elf/4.1.2/../../../../nios2-elf/lib\libc.a(lib_a-fflush.o)
 .debug_frame   0x00000548      0x118 d:/fpga/nios2eds/bin/gnu/h-i686-mingw32/bin/../lib/gcc/nios2-elf/4.1.2/../../../../nios2-elf/lib\libc.a(lib_a-findfp.o)
 .debug_frame   0x00000660       0x4c d:/fpga/nios2eds/bin/gnu/h-i686-mingw32/bin/../lib/gcc/nios2-elf/4.1.2/../../../../nios2-elf/lib\libc.a(lib_a-freer.o)
 .debug_frame   0x000006ac       0x38 d:/fpga/nios2eds/bin/gnu/h-i686-mingw32/bin/../lib/gcc/nios2-elf/4.1.2/../../../../nios2-elf/lib\libc.a(lib_a-fvwrite.o)
 .debug_frame   0x000006e4       0x60 d:/fpga/nios2eds/bin/gnu/h-i686-mingw32/bin/../lib/gcc/nios2-elf/4.1.2/../../../../nios2-elf/lib\libc.a(lib_a-fwalk.o)
 .debug_frame   0x00000744       0x70 d:/fpga/nios2eds/bin/gnu/h-i686-mingw32/bin/../lib/gcc/nios2-elf/4.1.2/../../../../nios2-elf/lib\libc.a(lib_a-locale.o)
 .debug_frame   0x000007b4       0x2c d:/fpga/nios2eds/bin/gnu/h-i686-mingw32/bin/../lib/gcc/nios2-elf/4.1.2/../../../../nios2-elf/lib\libc.a(lib_a-makebuf.o)
 .debug_frame   0x000007e0       0x38 d:/fpga/nios2eds/bin/gnu/h-i686-mingw32/bin/../lib/gcc/nios2-elf/4.1.2/../../../../nios2-elf/lib\libc.a(lib_a-mallocr.o)
 .debug_frame   0x00000818       0x20 d:/fpga/nios2eds/bin/gnu/h-i686-mingw32/bin/../lib/gcc/nios2-elf/4.1.2/../../../../nios2-elf/lib\libc.a(lib_a-memchr.o)
 .debug_frame   0x00000838       0x20 d:/fpga/nios2eds/bin/gnu/h-i686-mingw32/bin/../lib/gcc/nios2-elf/4.1.2/../../../../nios2-elf/lib\libc.a(lib_a-memmove.o)
 .debug_frame   0x00000858      0x218 d:/fpga/nios2eds/bin/gnu/h-i686-mingw32/bin/../lib/gcc/nios2-elf/4.1.2/../../../../nios2-elf/lib\libc.a(lib_a-mprec.o)
 .debug_frame   0x00000a70       0x38 d:/fpga/nios2eds/bin/gnu/h-i686-mingw32/bin/../lib/gcc/nios2-elf/4.1.2/../../../../nios2-elf/lib\libc.a(lib_a-reallocr.o)
 .debug_frame   0x00000aa8       0x20 d:/fpga/nios2eds/bin/gnu/h-i686-mingw32/bin/../lib/gcc/nios2-elf/4.1.2/../../../../nios2-elf/lib\libc.a(lib_a-s_isinfd.o)
 .debug_frame   0x00000ac8       0x20 d:/fpga/nios2eds/bin/gnu/h-i686-mingw32/bin/../lib/gcc/nios2-elf/4.1.2/../../../../nios2-elf/lib\libc.a(lib_a-s_isnand.o)
 .debug_frame   0x00000ae8       0x2c d:/fpga/nios2eds/bin/gnu/h-i686-mingw32/bin/../lib/gcc/nios2-elf/4.1.2/../../../../nios2-elf/lib\libc.a(lib_a-sbrkr.o)
 .debug_frame   0x00000b14       0x78 d:/fpga/nios2eds/bin/gnu/h-i686-mingw32/bin/../lib/gcc/nios2-elf/4.1.2/../../../../nios2-elf/lib\libc.a(lib_a-stdio.o)
 .debug_frame   0x00000b8c       0x20 d:/fpga/nios2eds/bin/gnu/h-i686-mingw32/bin/../lib/gcc/nios2-elf/4.1.2/../../../../nios2-elf/lib\libc.a(lib_a-strcmp.o)
 .debug_frame   0x00000bac       0x20 d:/fpga/nios2eds/bin/gnu/h-i686-mingw32/bin/../lib/gcc/nios2-elf/4.1.2/../../../../nios2-elf/lib\libc.a(lib_a-strlen.o)
 .debug_frame   0x00000bcc       0x2c d:/fpga/nios2eds/bin/gnu/h-i686-mingw32/bin/../lib/gcc/nios2-elf/4.1.2/../../../../nios2-elf/lib\libc.a(lib_a-writer.o)
 .debug_frame   0x00000bf8       0x28 d:/fpga/nios2eds/bin/gnu/h-i686-mingw32/bin/../lib/gcc/nios2-elf/4.1.2/../../../../nios2-elf/lib\libc.a(lib_a-callocr.o)
 .debug_frame   0x00000c20       0x2c d:/fpga/nios2eds/bin/gnu/h-i686-mingw32/bin/../lib/gcc/nios2-elf/4.1.2/../../../../nios2-elf/lib\libc.a(lib_a-closer.o)
 .debug_frame   0x00000c4c       0x3c d:/fpga/nios2eds/bin/gnu/h-i686-mingw32/bin/../lib/gcc/nios2-elf/4.1.2/../../../../nios2-elf/lib\libc.a(lib_a-fclose.o)
 .debug_frame   0x00000c88       0x2c d:/fpga/nios2eds/bin/gnu/h-i686-mingw32/bin/../lib/gcc/nios2-elf/4.1.2/../../../../nios2-elf/lib\libc.a(lib_a-fstatr.o)
 .debug_frame   0x00000cb4       0x2c d:/fpga/nios2eds/bin/gnu/h-i686-mingw32/bin/../lib/gcc/nios2-elf/4.1.2/../../../../nios2-elf/lib\libc.a(lib_a-isattyr.o)
 .debug_frame   0x00000ce0       0x2c d:/fpga/nios2eds/bin/gnu/h-i686-mingw32/bin/../lib/gcc/nios2-elf/4.1.2/../../../../nios2-elf/lib\libc.a(lib_a-lseekr.o)
 .debug_frame   0x00000d0c       0x2c d:/fpga/nios2eds/bin/gnu/h-i686-mingw32/bin/../lib/gcc/nios2-elf/4.1.2/../../../../nios2-elf/lib\libc.a(lib_a-readr.o)
 .debug_frame   0x00000d38       0x38 d:/fpga/nios2eds/bin/gnu/h-i686-mingw32/bin/../lib/gcc/nios2-elf/4.1.2\libgcc.a(_udivdi3.o)
 .debug_frame   0x00000d70       0x38 d:/fpga/nios2eds/bin/gnu/h-i686-mingw32/bin/../lib/gcc/nios2-elf/4.1.2\libgcc.a(_umoddi3.o)
 .debug_frame   0x00000da8       0x70 d:/fpga/nios2eds/bin/gnu/h-i686-mingw32/bin/../lib/gcc/nios2-elf/4.1.2\libgcc.a(_addsub_df.o)
 .debug_frame   0x00000e18       0x3c d:/fpga/nios2eds/bin/gnu/h-i686-mingw32/bin/../lib/gcc/nios2-elf/4.1.2\libgcc.a(_mul_df.o)
 .debug_frame   0x00000e54       0x30 d:/fpga/nios2eds/bin/gnu/h-i686-mingw32/bin/../lib/gcc/nios2-elf/4.1.2\libgcc.a(_div_df.o)
 .debug_frame   0x00000e84       0x2c d:/fpga/nios2eds/bin/gnu/h-i686-mingw32/bin/../lib/gcc/nios2-elf/4.1.2\libgcc.a(_eq_df.o)
 .debug_frame   0x00000eb0       0x2c d:/fpga/nios2eds/bin/gnu/h-i686-mingw32/bin/../lib/gcc/nios2-elf/4.1.2\libgcc.a(_ne_df.o)
 .debug_frame   0x00000edc       0x2c d:/fpga/nios2eds/bin/gnu/h-i686-mingw32/bin/../lib/gcc/nios2-elf/4.1.2\libgcc.a(_gt_df.o)
 .debug_frame   0x00000f08       0x2c d:/fpga/nios2eds/bin/gnu/h-i686-mingw32/bin/../lib/gcc/nios2-elf/4.1.2\libgcc.a(_ge_df.o)
 .debug_frame   0x00000f34       0x2c d:/fpga/nios2eds/bin/gnu/h-i686-mingw32/bin/../lib/gcc/nios2-elf/4.1.2\libgcc.a(_lt_df.o)
 .debug_frame   0x00000f60       0x30 d:/fpga/nios2eds/bin/gnu/h-i686-mingw32/bin/../lib/gcc/nios2-elf/4.1.2\libgcc.a(_si_to_df.o)
 .debug_frame   0x00000f90       0x28 d:/fpga/nios2eds/bin/gnu/h-i686-mingw32/bin/../lib/gcc/nios2-elf/4.1.2\libgcc.a(_df_to_si.o)
 .debug_frame   0x00000fb8       0x38 d:/fpga/nios2eds/bin/gnu/h-i686-mingw32/bin/../lib/gcc/nios2-elf/4.1.2\libgcc.a(_usi_to_df.o)
 .debug_frame   0x00000ff0       0x70 d:/fpga/nios2eds/bin/gnu/h-i686-mingw32/bin/../lib/gcc/nios2-elf/4.1.2\libgcc.a(lib2-divmod.o)
 .debug_frame   0x00001060       0x2c d:/fpga/nios2eds/bin/gnu/h-i686-mingw32/bin/../lib/gcc/nios2-elf/4.1.2\libgcc.a(_muldi3.o)
 .debug_frame   0x0000108c       0x20 d:/fpga/nios2eds/bin/gnu/h-i686-mingw32/bin/../lib/gcc/nios2-elf/4.1.2\libgcc.a(_unpack_df.o)
 .debug_frame   0x000010ac       0x20 d:/fpga/nios2eds/bin/gnu/h-i686-mingw32/bin/../lib/gcc/nios2-elf/4.1.2\libgcc.a(_fpcmp_parts_df.o)
 .debug_frame   0x000010cc       0x48 ../Hardware_Denoise_bsp/\libhal_bsp.a(alt_close.o)
 .debug_frame   0x00001114       0x2c ../Hardware_Denoise_bsp/\libhal_bsp.a(alt_dev.o)
 .debug_frame   0x00001140       0x48 ../Hardware_Denoise_bsp/\libhal_bsp.a(alt_fstat.o)
 .debug_frame   0x00001188       0x2c ../Hardware_Denoise_bsp/\libhal_bsp.a(alt_irq_register.o)
 .debug_frame   0x000011b4       0x48 ../Hardware_Denoise_bsp/\libhal_bsp.a(alt_isatty.o)
 .debug_frame   0x000011fc       0x48 ../Hardware_Denoise_bsp/\libhal_bsp.a(alt_load.o)
 .debug_frame   0x00001244       0x48 ../Hardware_Denoise_bsp/\libhal_bsp.a(alt_lseek.o)
 .debug_frame   0x0000128c       0x2c ../Hardware_Denoise_bsp/\libhal_bsp.a(alt_main.o)
 .debug_frame   0x000012b8       0x48 ../Hardware_Denoise_bsp/\libhal_bsp.a(alt_malloc_lock.o)
 .debug_frame   0x00001300       0x2c ../Hardware_Denoise_bsp/\libhal_bsp.a(alt_printf.o)
 .debug_frame   0x0000132c       0x2c ../Hardware_Denoise_bsp/\libhal_bsp.a(alt_putchar.o)
 .debug_frame   0x00001358       0x48 ../Hardware_Denoise_bsp/\libhal_bsp.a(alt_read.o)
 .debug_frame   0x000013a0       0x2c ../Hardware_Denoise_bsp/\libhal_bsp.a(alt_release_fd.o)
 .debug_frame   0x000013cc       0x2c ../Hardware_Denoise_bsp/\libhal_bsp.a(alt_sbrk.o)
 .debug_frame   0x000013f8       0x48 ../Hardware_Denoise_bsp/\libhal_bsp.a(alt_write.o)
 .debug_frame   0x00001440       0x64 ../Hardware_Denoise_bsp/\libhal_bsp.a(alt_sys_init.o)
 .debug_frame   0x000014a4       0x80 ../Hardware_Denoise_bsp/\libhal_bsp.a(altera_avalon_jtag_uart_fd.o)
 .debug_frame   0x00001524       0x80 ../Hardware_Denoise_bsp/\libhal_bsp.a(altera_avalon_jtag_uart_init.o)
 .debug_frame   0x000015a4       0x2c ../Hardware_Denoise_bsp/\libhal_bsp.a(altera_avalon_jtag_uart_ioctl.o)
 .debug_frame   0x000015d0       0x2c ../Hardware_Denoise_bsp/\libhal_bsp.a(altera_avalon_jtag_uart_read.o)
 .debug_frame   0x000015fc       0x2c ../Hardware_Denoise_bsp/\libhal_bsp.a(altera_avalon_jtag_uart_write.o)
 .debug_frame   0x00001628       0x64 ../Hardware_Denoise_bsp/\libhal_bsp.a(altera_avalon_timer_ts.o)
 .debug_frame   0x0000168c      0x208 ../Hardware_Denoise_bsp/\libhal_bsp.a(altera_up_avalon_audio.o)
 .debug_frame   0x00001894      0x17c ../Hardware_Denoise_bsp/\libhal_bsp.a(altera_up_avalon_character_lcd.o)
 .debug_frame   0x00001a10       0x48 ../Hardware_Denoise_bsp/\libhal_bsp.a(altera_up_avalon_ethernet.o)
 .debug_frame   0x00001a58       0x80 ../Hardware_Denoise_bsp/\libhal_bsp.a(altera_up_avalon_ethernet_low_level_driver.o)
 .debug_frame   0x00001ad8      0x128 ../Hardware_Denoise_bsp/\libhal_bsp.a(altera_up_avalon_irda.o)
 .debug_frame   0x00001c00       0x2c ../Hardware_Denoise_bsp/\libhal_bsp.a(altera_up_avalon_parallel_port.o)
 .debug_frame   0x00001c2c      0x208 ../Hardware_Denoise_bsp/\libhal_bsp.a(altera_up_avalon_ps2.o)
 .debug_frame   0x00001e34      0x128 ../Hardware_Denoise_bsp/\libhal_bsp.a(altera_up_avalon_rs232.o)
 .debug_frame   0x00001f5c       0x9c ../Hardware_Denoise_bsp/\libhal_bsp.a(altera_up_avalon_video_character_buffer_with_dma.o)
 .debug_frame   0x00001ff8      0x160 ../Hardware_Denoise_bsp/\libhal_bsp.a(altera_up_avalon_video_pixel_buffer_dma.o)
 .debug_frame   0x00002158       0x2c ../Hardware_Denoise_bsp/\libhal_bsp.a(alt_alarm_start.o)
 .debug_frame   0x00002184       0x2c ../Hardware_Denoise_bsp/\libhal_bsp.a(alt_dcache_flush_all.o)
 .debug_frame   0x000021b0       0x48 ../Hardware_Denoise_bsp/\libhal_bsp.a(alt_dev_llist_insert.o)
 .debug_frame   0x000021f8       0x2c ../Hardware_Denoise_bsp/\libhal_bsp.a(alt_do_ctors.o)
 .debug_frame   0x00002224       0x2c ../Hardware_Denoise_bsp/\libhal_bsp.a(alt_do_dtors.o)
 .debug_frame   0x00002250       0x2c ../Hardware_Denoise_bsp/\libhal_bsp.a(alt_find_dev.o)
 .debug_frame   0x0000227c       0x2c ../Hardware_Denoise_bsp/\libhal_bsp.a(alt_icache_flush_all.o)
 .debug_frame   0x000022a8       0x48 ../Hardware_Denoise_bsp/\libhal_bsp.a(alt_io_redirect.o)
 .debug_frame   0x000022f0       0x2c ../Hardware_Denoise_bsp/\libhal_bsp.a(alt_irq_handler.o)
 .debug_frame   0x0000231c       0x64 ../Hardware_Denoise_bsp/\libhal_bsp.a(alt_open.o)
 .debug_frame   0x00002380       0x48 ../Hardware_Denoise_bsp/\libhal_bsp.a(alt_tick.o)
 .debug_frame   0x000023c8       0x2c ../Hardware_Denoise_bsp/\libhal_bsp.a(alt_usleep.o)
 .debug_frame   0x000023f4       0x2c ../Hardware_Denoise_bsp/\libhal_bsp.a(altera_nios2_qsys_irq.o)
 .debug_frame   0x00002420       0x2c ../Hardware_Denoise_bsp/\libhal_bsp.a(alt_busy_sleep.o)
 .debug_frame   0x0000244c       0x2c ../Hardware_Denoise_bsp/\libhal_bsp.a(alt_find_file.o)
 .debug_frame   0x00002478       0x2c ../Hardware_Denoise_bsp/\libhal_bsp.a(alt_get_fd.o)
 .debug_frame   0x000024a4       0x2c ../Hardware_Denoise_bsp/\libhal_bsp.a(alt_icache_flush.o)
 .debug_frame   0x000024d0       0x20 d:/fpga/nios2eds/bin/gnu/h-i686-mingw32/bin/../lib/gcc/nios2-elf/4.1.2/../../../../nios2-elf/lib\libc.a(lib_a-atexit.o)
 .debug_frame   0x000024f0       0x28 d:/fpga/nios2eds/bin/gnu/h-i686-mingw32/bin/../lib/gcc/nios2-elf/4.1.2/../../../../nios2-elf/lib\libc.a(lib_a-exit.o)
 .debug_frame   0x00002518       0x20 d:/fpga/nios2eds/bin/gnu/h-i686-mingw32/bin/../lib/gcc/nios2-elf/4.1.2/../../../../nios2-elf/lib\libc.a(lib_a-memcmp.o)
 .debug_frame   0x00002538       0x4c d:/fpga/nios2eds/bin/gnu/h-i686-mingw32/bin/../lib/gcc/nios2-elf/4.1.2/../../../../nios2-elf/lib\libc.a(lib_a-putc.o)
 .debug_frame   0x00002584       0x3c d:/fpga/nios2eds/bin/gnu/h-i686-mingw32/bin/../lib/gcc/nios2-elf/4.1.2/../../../../nios2-elf/lib\libc.a(lib_a-wbuf.o)
 .debug_frame   0x000025c0       0x34 d:/fpga/nios2eds/bin/gnu/h-i686-mingw32/bin/../lib/gcc/nios2-elf/4.1.2/../../../../nios2-elf/lib\libc.a(lib_a-__atexit.o)
 .debug_frame   0x000025f4       0x4c d:/fpga/nios2eds/bin/gnu/h-i686-mingw32/bin/../lib/gcc/nios2-elf/4.1.2/../../../../nios2-elf/lib\libc.a(lib_a-__call_atexit.o)
 .debug_frame   0x00002640       0x48 ../Hardware_Denoise_bsp/\libhal_bsp.a(alt_exit.o)

.debug_str      0x00000000     0x2c04
 *(.debug_str)
 .debug_str     0x00000000       0xe9 obj/default/PS2_ISR.o
 .debug_str     0x000000e9       0xe9 obj/default/audio_ISR.o
 .debug_str     0x000001d2       0xe9 obj/default/globals.o
 .debug_str     0x000002bb       0xe9 obj/default/interval_timer_ISR.o
 .debug_str     0x000003a4      0x146 obj/default/media_interrupt_HAL.o
 .debug_str     0x000004ea       0xf3 obj/default/pushbutton_ISR.o
 .debug_str     0x000005dd      0x17e d:/fpga/nios2eds/bin/gnu/h-i686-mingw32/bin/../lib/gcc/nios2-elf/4.1.2\libgcc.a(_si_to_sf.o)
                                0x1de (size before relaxing)
 .debug_str     0x0000075b       0x36 d:/fpga/nios2eds/bin/gnu/h-i686-mingw32/bin/../lib/gcc/nios2-elf/4.1.2\libgcc.a(_sf_to_si.o)
                                0x201 (size before relaxing)
 .debug_str     0x00000791       0x15 d:/fpga/nios2eds/bin/gnu/h-i686-mingw32/bin/../lib/gcc/nios2-elf/4.1.2\libgcc.a(_sf_to_df.o)
                                0x1f2 (size before relaxing)
 .debug_str     0x000007a6       0x14 d:/fpga/nios2eds/bin/gnu/h-i686-mingw32/bin/../lib/gcc/nios2-elf/4.1.2\libgcc.a(_usi_to_sf.o)
                                0x1da (size before relaxing)
 .debug_str     0x000007ba       0x27 d:/fpga/nios2eds/bin/gnu/h-i686-mingw32/bin/../lib/gcc/nios2-elf/4.1.2\libgcc.a(_make_df.o)
                                0x1b9 (size before relaxing)
 .debug_str     0x000007e1       0x6b d:/fpga/nios2eds/bin/gnu/h-i686-mingw32/bin/../lib/gcc/nios2-elf/4.1.2\libgcc.a(_clzsi2.o)
                                0x17e (size before relaxing)
 .debug_str     0x0000084c       0x10 d:/fpga/nios2eds/bin/gnu/h-i686-mingw32/bin/../lib/gcc/nios2-elf/4.1.2\libgcc.a(_pack_sf.o)
                                0x200 (size before relaxing)
 .debug_str     0x0000085c        0xb d:/fpga/nios2eds/bin/gnu/h-i686-mingw32/bin/../lib/gcc/nios2-elf/4.1.2\libgcc.a(_unpack_sf.o)
                                0x1e2 (size before relaxing)
 .debug_str     0x00000867        0xf d:/fpga/nios2eds/bin/gnu/h-i686-mingw32/bin/../lib/gcc/nios2-elf/4.1.2\libgcc.a(_pack_df.o)
                                0x206 (size before relaxing)
 .debug_str     0x00000000      0x161 d:/fpga/nios2eds/bin/gnu/h-i686-mingw32/bin/../lib/gcc/nios2-elf/4.1.2\libgcc.a(_clz.o)
 .debug_str     0x00000876       0xf5 d:/fpga/nios2eds/bin/gnu/h-i686-mingw32/bin/../lib/gcc/nios2-elf/4.1.2/../../../../nios2-elf/lib\libc.a(lib_a-memcpy.o)
                                0x128 (size before relaxing)
 .debug_str     0x0000096b       0x56 d:/fpga/nios2eds/bin/gnu/h-i686-mingw32/bin/../lib/gcc/nios2-elf/4.1.2/../../../../nios2-elf/lib\libc.a(lib_a-memset.o)
                                0x17e (size before relaxing)
 .debug_str     0x000009c1      0x43f d:/fpga/nios2eds/bin/gnu/h-i686-mingw32/bin/../lib/gcc/nios2-elf/4.1.2/../../../../nios2-elf/lib\libc.a(lib_a-printf.o)
                                0x523 (size before relaxing)
 .debug_str     0x00000e00      0x1c1 d:/fpga/nios2eds/bin/gnu/h-i686-mingw32/bin/../lib/gcc/nios2-elf/4.1.2/../../../../nios2-elf/lib\libc.a(lib_a-vfprintf.o)
                                0x6f8 (size before relaxing)
 .debug_str     0x00000fc1       0x46 d:/fpga/nios2eds/bin/gnu/h-i686-mingw32/bin/../lib/gcc/nios2-elf/4.1.2/../../../../nios2-elf/lib\libc.a(lib_a-wsetup.o)
                                0x50c (size before relaxing)
 .debug_str     0x00001007      0x18e d:/fpga/nios2eds/bin/gnu/h-i686-mingw32/bin/../lib/gcc/nios2-elf/4.1.2/../../../../nios2-elf/lib\libc.a(lib_a-dtoa.o)
                                0x601 (size before relaxing)
 .debug_str     0x00001195       0x65 d:/fpga/nios2eds/bin/gnu/h-i686-mingw32/bin/../lib/gcc/nios2-elf/4.1.2/../../../../nios2-elf/lib\libc.a(lib_a-fflush.o)
                                0x532 (size before relaxing)
 .debug_str     0x000011fa      0x102 d:/fpga/nios2eds/bin/gnu/h-i686-mingw32/bin/../lib/gcc/nios2-elf/4.1.2/../../../../nios2-elf/lib\libc.a(lib_a-findfp.o)
                                0x5f4 (size before relaxing)
 .debug_str     0x000012fc      0x15b d:/fpga/nios2eds/bin/gnu/h-i686-mingw32/bin/../lib/gcc/nios2-elf/4.1.2/../../../../nios2-elf/lib\libc.a(lib_a-freer.o)
                                0x643 (size before relaxing)
 .debug_str     0x00001457       0x66 d:/fpga/nios2eds/bin/gnu/h-i686-mingw32/bin/../lib/gcc/nios2-elf/4.1.2/../../../../nios2-elf/lib\libc.a(lib_a-fvwrite.o)
                                0x563 (size before relaxing)
 .debug_str     0x000014bd       0x5e d:/fpga/nios2eds/bin/gnu/h-i686-mingw32/bin/../lib/gcc/nios2-elf/4.1.2/../../../../nios2-elf/lib\libc.a(lib_a-fwalk.o)
                                0x535 (size before relaxing)
 .debug_str     0x0000151b       0xd1 d:/fpga/nios2eds/bin/gnu/h-i686-mingw32/bin/../lib/gcc/nios2-elf/4.1.2/../../../../nios2-elf/lib\libc.a(lib_a-impure.o)
                                0x51a (size before relaxing)
 .debug_str     0x000015ec      0x225 d:/fpga/nios2eds/bin/gnu/h-i686-mingw32/bin/../lib/gcc/nios2-elf/4.1.2/../../../../nios2-elf/lib\libc.a(lib_a-locale.o)
                                0x6a9 (size before relaxing)
 .debug_str     0x00001811      0x123 d:/fpga/nios2eds/bin/gnu/h-i686-mingw32/bin/../lib/gcc/nios2-elf/4.1.2/../../../../nios2-elf/lib\libc.a(lib_a-makebuf.o)
                                0x606 (size before relaxing)
 .debug_str     0x00001934       0xef d:/fpga/nios2eds/bin/gnu/h-i686-mingw32/bin/../lib/gcc/nios2-elf/4.1.2/../../../../nios2-elf/lib\libc.a(lib_a-mallocr.o)
                                0x6f1 (size before relaxing)
 .debug_str     0x00001a23       0x55 d:/fpga/nios2eds/bin/gnu/h-i686-mingw32/bin/../lib/gcc/nios2-elf/4.1.2/../../../../nios2-elf/lib\libc.a(lib_a-memchr.o)
                                0x18b (size before relaxing)
 .debug_str     0x00001a78       0x4d d:/fpga/nios2eds/bin/gnu/h-i686-mingw32/bin/../lib/gcc/nios2-elf/4.1.2/../../../../nios2-elf/lib\libc.a(lib_a-memmove.o)
                                0x19d (size before relaxing)
 .debug_str     0x00001ac5       0xf8 d:/fpga/nios2eds/bin/gnu/h-i686-mingw32/bin/../lib/gcc/nios2-elf/4.1.2/../../../../nios2-elf/lib\libc.a(lib_a-mprec.o)
                                0x60e (size before relaxing)
 .debug_str     0x00001bbd       0x59 d:/fpga/nios2eds/bin/gnu/h-i686-mingw32/bin/../lib/gcc/nios2-elf/4.1.2/../../../../nios2-elf/lib\libc.a(lib_a-reallocr.o)
                                0x5c3 (size before relaxing)
 .debug_str     0x00001c16       0xdc d:/fpga/nios2eds/bin/gnu/h-i686-mingw32/bin/../lib/gcc/nios2-elf/4.1.2/../../../../nios2-elf/lib\libc.a(lib_a-s_isinfd.o)
                                0x18a (size before relaxing)
 .debug_str     0x00001cf2       0x46 d:/fpga/nios2eds/bin/gnu/h-i686-mingw32/bin/../lib/gcc/nios2-elf/4.1.2/../../../../nios2-elf/lib\libc.a(lib_a-s_isnand.o)
                                0x18a (size before relaxing)
 .debug_str     0x00001d38       0x50 d:/fpga/nios2eds/bin/gnu/h-i686-mingw32/bin/../lib/gcc/nios2-elf/4.1.2/../../../../nios2-elf/lib\libc.a(lib_a-sbrkr.o)
                                0x50b (size before relaxing)
 .debug_str     0x00001d88       0x62 d:/fpga/nios2eds/bin/gnu/h-i686-mingw32/bin/../lib/gcc/nios2-elf/4.1.2/../../../../nios2-elf/lib\libc.a(lib_a-stdio.o)
                                0x531 (size before relaxing)
 .debug_str     0x00001dea       0x42 d:/fpga/nios2eds/bin/gnu/h-i686-mingw32/bin/../lib/gcc/nios2-elf/4.1.2/../../../../nios2-elf/lib\libc.a(lib_a-strcmp.o)
                                0x163 (size before relaxing)
 .debug_str     0x00001e2c       0x42 d:/fpga/nios2eds/bin/gnu/h-i686-mingw32/bin/../lib/gcc/nios2-elf/4.1.2/../../../../nios2-elf/lib\libc.a(lib_a-strlen.o)
                                0x17d (size before relaxing)
 .debug_str     0x00001e6e       0x4c d:/fpga/nios2eds/bin/gnu/h-i686-mingw32/bin/../lib/gcc/nios2-elf/4.1.2/../../../../nios2-elf/lib\libc.a(lib_a-writer.o)
                                0x50e (size before relaxing)
 .debug_str     0x00001eba       0x19 d:/fpga/nios2eds/bin/gnu/h-i686-mingw32/bin/../lib/gcc/nios2-elf/4.1.2/../../../../nios2-elf/lib\libc.a(lib_a-callocr.o)
                                0x542 (size before relaxing)
 .debug_str     0x00001ed3       0x43 d:/fpga/nios2eds/bin/gnu/h-i686-mingw32/bin/../lib/gcc/nios2-elf/4.1.2/../../../../nios2-elf/lib\libc.a(lib_a-closer.o)
                                0x4fe (size before relaxing)
 .debug_str     0x00001f16       0x4b d:/fpga/nios2eds/bin/gnu/h-i686-mingw32/bin/../lib/gcc/nios2-elf/4.1.2/../../../../nios2-elf/lib\libc.a(lib_a-fclose.o)
                                0x516 (size before relaxing)
 .debug_str     0x00001f61       0x49 d:/fpga/nios2eds/bin/gnu/h-i686-mingw32/bin/../lib/gcc/nios2-elf/4.1.2/../../../../nios2-elf/lib\libc.a(lib_a-fstatr.o)
                                0x5f1 (size before relaxing)
 .debug_str     0x00001faa       0x3d d:/fpga/nios2eds/bin/gnu/h-i686-mingw32/bin/../lib/gcc/nios2-elf/4.1.2/../../../../nios2-elf/lib\libc.a(lib_a-int_errno.o)
                                0x163 (size before relaxing)
 .debug_str     0x00001fe7       0x45 d:/fpga/nios2eds/bin/gnu/h-i686-mingw32/bin/../lib/gcc/nios2-elf/4.1.2/../../../../nios2-elf/lib\libc.a(lib_a-isattyr.o)
                                0x500 (size before relaxing)
 .debug_str     0x0000202c       0x43 d:/fpga/nios2eds/bin/gnu/h-i686-mingw32/bin/../lib/gcc/nios2-elf/4.1.2/../../../../nios2-elf/lib\libc.a(lib_a-lseekr.o)
                                0x50c (size before relaxing)
 .debug_str     0x0000206f       0x41 d:/fpga/nios2eds/bin/gnu/h-i686-mingw32/bin/../lib/gcc/nios2-elf/4.1.2/../../../../nios2-elf/lib\libc.a(lib_a-readr.o)
                                0x50c (size before relaxing)
 .debug_str     0x000020b0       0x73 d:/fpga/nios2eds/bin/gnu/h-i686-mingw32/bin/../lib/gcc/nios2-elf/4.1.2\libgcc.a(_udivdi3.o)
                                0x1f7 (size before relaxing)
 .debug_str     0x00002123        0xa d:/fpga/nios2eds/bin/gnu/h-i686-mingw32/bin/../lib/gcc/nios2-elf/4.1.2\libgcc.a(_umoddi3.o)
                                0x1f7 (size before relaxing)
 .debug_str     0x0000212d       0x6d d:/fpga/nios2eds/bin/gnu/h-i686-mingw32/bin/../lib/gcc/nios2-elf/4.1.2\libgcc.a(_addsub_df.o)
                                0x26f (size before relaxing)
 .debug_str     0x0000219a       0x40 d:/fpga/nios2eds/bin/gnu/h-i686-mingw32/bin/../lib/gcc/nios2-elf/4.1.2\libgcc.a(_mul_df.o)
                                0x241 (size before relaxing)
 .debug_str     0x000021da       0x35 d:/fpga/nios2eds/bin/gnu/h-i686-mingw32/bin/../lib/gcc/nios2-elf/4.1.2\libgcc.a(_div_df.o)
                                0x231 (size before relaxing)
 .debug_str     0x0000220f        0x8 d:/fpga/nios2eds/bin/gnu/h-i686-mingw32/bin/../lib/gcc/nios2-elf/4.1.2\libgcc.a(_eq_df.o)
                                0x1fe (size before relaxing)
 .debug_str     0x00002217        0x8 d:/fpga/nios2eds/bin/gnu/h-i686-mingw32/bin/../lib/gcc/nios2-elf/4.1.2\libgcc.a(_ne_df.o)
                                0x1fe (size before relaxing)
 .debug_str     0x0000221f        0x8 d:/fpga/nios2eds/bin/gnu/h-i686-mingw32/bin/../lib/gcc/nios2-elf/4.1.2\libgcc.a(_gt_df.o)
                                0x1fe (size before relaxing)
 .debug_str     0x00002227        0x8 d:/fpga/nios2eds/bin/gnu/h-i686-mingw32/bin/../lib/gcc/nios2-elf/4.1.2\libgcc.a(_ge_df.o)
                                0x1fe (size before relaxing)
 .debug_str     0x0000222f        0x8 d:/fpga/nios2eds/bin/gnu/h-i686-mingw32/bin/../lib/gcc/nios2-elf/4.1.2\libgcc.a(_lt_df.o)
                                0x1fe (size before relaxing)
 .debug_str     0x00002237        0xc d:/fpga/nios2eds/bin/gnu/h-i686-mingw32/bin/../lib/gcc/nios2-elf/4.1.2\libgcc.a(_si_to_df.o)
                                0x1de (size before relaxing)
 .debug_str     0x00002243        0xa d:/fpga/nios2eds/bin/gnu/h-i686-mingw32/bin/../lib/gcc/nios2-elf/4.1.2\libgcc.a(_df_to_si.o)
                                0x207 (size before relaxing)
 .debug_str     0x00000000      0x1a3 d:/fpga/nios2eds/bin/gnu/h-i686-mingw32/bin/../lib/gcc/nios2-elf/4.1.2\libgcc.a(_thenan_df.o)
 .debug_str     0x0000224d        0xe d:/fpga/nios2eds/bin/gnu/h-i686-mingw32/bin/../lib/gcc/nios2-elf/4.1.2\libgcc.a(_usi_to_df.o)
                                0x1da (size before relaxing)
 .debug_str     0x0000225b       0x76 d:/fpga/nios2eds/bin/gnu/h-i686-mingw32/bin/../lib/gcc/nios2-elf/4.1.2\libgcc.a(lib2-divmod.o)
                                0x1b4 (size before relaxing)
 .debug_str     0x000022d1        0x9 d:/fpga/nios2eds/bin/gnu/h-i686-mingw32/bin/../lib/gcc/nios2-elf/4.1.2\libgcc.a(_muldi3.o)
                                0x1ac (size before relaxing)
 .debug_str     0x000022da        0xb d:/fpga/nios2eds/bin/gnu/h-i686-mingw32/bin/../lib/gcc/nios2-elf/4.1.2\libgcc.a(_unpack_df.o)
                                0x1e8 (size before relaxing)
 .debug_str     0x000022e5       0x10 d:/fpga/nios2eds/bin/gnu/h-i686-mingw32/bin/../lib/gcc/nios2-elf/4.1.2\libgcc.a(_fpcmp_parts_df.o)
                                0x1c6 (size before relaxing)
 .debug_str     0x000022f5       0x12 ../Hardware_Denoise_bsp/\libhal_bsp.a(alt_close.o)
 .debug_str     0x00002307       0x12 ../Hardware_Denoise_bsp/\libhal_bsp.a(alt_dev.o)
 .debug_str     0x00002319       0x12 ../Hardware_Denoise_bsp/\libhal_bsp.a(alt_errno.o)
 .debug_str     0x0000232b       0x12 ../Hardware_Denoise_bsp/\libhal_bsp.a(alt_fstat.o)
 .debug_str     0x0000233d       0x21 ../Hardware_Denoise_bsp/\libhal_bsp.a(alt_irq_register.o)
 .debug_str     0x0000235e       0x12 ../Hardware_Denoise_bsp/\libhal_bsp.a(alt_isatty.o)
 .debug_str     0x00002370       0x12 ../Hardware_Denoise_bsp/\libhal_bsp.a(alt_load.o)
 .debug_str     0x00002382       0x12 ../Hardware_Denoise_bsp/\libhal_bsp.a(alt_lseek.o)
 .debug_str     0x00002394       0x12 ../Hardware_Denoise_bsp/\libhal_bsp.a(alt_main.o)
 .debug_str     0x000023a6       0x20 ../Hardware_Denoise_bsp/\libhal_bsp.a(alt_malloc_lock.o)
 .debug_str     0x000023c6       0x20 ../Hardware_Denoise_bsp/\libhal_bsp.a(alt_putchar.o)
 .debug_str     0x000023e6       0x12 ../Hardware_Denoise_bsp/\libhal_bsp.a(alt_read.o)
 .debug_str     0x000023f8       0x1a ../Hardware_Denoise_bsp/\libhal_bsp.a(alt_sbrk.o)
 .debug_str     0x00002412       0x12 ../Hardware_Denoise_bsp/\libhal_bsp.a(alt_write.o)
 .debug_str     0x00002424      0x15a ../Hardware_Denoise_bsp/\libhal_bsp.a(alt_sys_init.o)
 .debug_str     0x0000257e       0x12 ../Hardware_Denoise_bsp/\libhal_bsp.a(altera_avalon_jtag_uart_fd.o)
 .debug_str     0x00002590       0x1a ../Hardware_Denoise_bsp/\libhal_bsp.a(altera_avalon_jtag_uart_init.o)
 .debug_str     0x000025aa       0x12 ../Hardware_Denoise_bsp/\libhal_bsp.a(altera_avalon_jtag_uart_ioctl.o)
 .debug_str     0x000025bc       0x1a ../Hardware_Denoise_bsp/\libhal_bsp.a(altera_avalon_jtag_uart_read.o)
 .debug_str     0x000025d6       0x1a ../Hardware_Denoise_bsp/\libhal_bsp.a(altera_avalon_jtag_uart_write.o)
 .debug_str     0x000025f0       0x12 ../Hardware_Denoise_bsp/\libhal_bsp.a(altera_avalon_timer_ts.o)
 .debug_str     0x00002602       0x12 ../Hardware_Denoise_bsp/\libhal_bsp.a(altera_avalon_timer_vars.o)
 .debug_str     0x00002614       0x4f ../Hardware_Denoise_bsp/\libhal_bsp.a(altera_up_avalon_audio.o)
 .debug_str     0x00002663       0x55 ../Hardware_Denoise_bsp/\libhal_bsp.a(altera_up_avalon_character_lcd.o)
 .debug_str     0x000026b8       0x26 ../Hardware_Denoise_bsp/\libhal_bsp.a(altera_up_avalon_ethernet.o)
 .debug_str     0x000026de       0x12 ../Hardware_Denoise_bsp/\libhal_bsp.a(altera_up_avalon_ethernet_low_level_driver.o)
 .debug_str     0x000026f0       0x46 ../Hardware_Denoise_bsp/\libhal_bsp.a(altera_up_avalon_irda.o)
 .debug_str     0x00002736       0x2b ../Hardware_Denoise_bsp/\libhal_bsp.a(altera_up_avalon_parallel_port.o)
 .debug_str     0x00002761       0x3a ../Hardware_Denoise_bsp/\libhal_bsp.a(altera_up_avalon_ps2.o)
 .debug_str     0x0000279b       0x48 ../Hardware_Denoise_bsp/\libhal_bsp.a(altera_up_avalon_rs232.o)
 .debug_str     0x000027e3       0x35 ../Hardware_Denoise_bsp/\libhal_bsp.a(altera_up_avalon_video_character_buffer_with_dma.o)
 .debug_str     0x00002818       0x93 ../Hardware_Denoise_bsp/\libhal_bsp.a(altera_up_avalon_video_pixel_buffer_dma.o)
 .debug_str     0x000028ab       0x23 ../Hardware_Denoise_bsp/\libhal_bsp.a(alt_alarm_start.o)
 .debug_str     0x000028ce       0x12 ../Hardware_Denoise_bsp/\libhal_bsp.a(alt_dcache_flush_all.o)
 .debug_str     0x000028e0       0x12 ../Hardware_Denoise_bsp/\libhal_bsp.a(alt_dev_llist_insert.o)
 .debug_str     0x000028f2       0x12 ../Hardware_Denoise_bsp/\libhal_bsp.a(alt_find_dev.o)
 .debug_str     0x00002904       0x12 ../Hardware_Denoise_bsp/\libhal_bsp.a(alt_icache_flush_all.o)
 .debug_str     0x00002916       0x12 ../Hardware_Denoise_bsp/\libhal_bsp.a(alt_io_redirect.o)
 .debug_str     0x00002928       0x12 ../Hardware_Denoise_bsp/\libhal_bsp.a(alt_irq_handler.o)
 .debug_str     0x0000293a       0x12 ../Hardware_Denoise_bsp/\libhal_bsp.a(alt_open.o)
 .debug_str     0x0000294c       0x1a ../Hardware_Denoise_bsp/\libhal_bsp.a(alt_tick.o)
 .debug_str     0x00002966       0x12 ../Hardware_Denoise_bsp/\libhal_bsp.a(alt_usleep.o)
 .debug_str     0x00002978       0x12 ../Hardware_Denoise_bsp/\libhal_bsp.a(altera_nios2_qsys_irq.o)
 .debug_str     0x0000298a       0x12 ../Hardware_Denoise_bsp/\libhal_bsp.a(alt_busy_sleep.o)
 .debug_str     0x0000299c       0x12 ../Hardware_Denoise_bsp/\libhal_bsp.a(alt_find_file.o)
 .debug_str     0x000029ae       0x12 ../Hardware_Denoise_bsp/\libhal_bsp.a(alt_get_fd.o)
 .debug_str     0x000029c0       0x12 ../Hardware_Denoise_bsp/\libhal_bsp.a(alt_icache_flush.o)
 .debug_str     0x000029d2       0x3b d:/fpga/nios2eds/bin/gnu/h-i686-mingw32/bin/../lib/gcc/nios2-elf/4.1.2/../../../../nios2-elf/lib\libc.a(lib_a-atexit.o)
                                0x1bf (size before relaxing)
 .debug_str     0x00002a0d       0x3e d:/fpga/nios2eds/bin/gnu/h-i686-mingw32/bin/../lib/gcc/nios2-elf/4.1.2/../../../../nios2-elf/lib\libc.a(lib_a-exit.o)
                                0x50c (size before relaxing)
 .debug_str     0x00002a4b       0x42 d:/fpga/nios2eds/bin/gnu/h-i686-mingw32/bin/../lib/gcc/nios2-elf/4.1.2/../../../../nios2-elf/lib\libc.a(lib_a-memcmp.o)
                                0x16a (size before relaxing)
 .debug_str     0x00002a8d       0x45 d:/fpga/nios2eds/bin/gnu/h-i686-mingw32/bin/../lib/gcc/nios2-elf/4.1.2/../../../../nios2-elf/lib\libc.a(lib_a-putc.o)
                                0x512 (size before relaxing)
 .debug_str     0x00002ad2       0x4a d:/fpga/nios2eds/bin/gnu/h-i686-mingw32/bin/../lib/gcc/nios2-elf/4.1.2/../../../../nios2-elf/lib\libc.a(lib_a-wbuf.o)
                                0x510 (size before relaxing)
 .debug_str     0x00002b1c       0x51 d:/fpga/nios2eds/bin/gnu/h-i686-mingw32/bin/../lib/gcc/nios2-elf/4.1.2/../../../../nios2-elf/lib\libc.a(lib_a-__atexit.o)
                                0x524 (size before relaxing)
 .debug_str     0x00002b6d       0x7b d:/fpga/nios2eds/bin/gnu/h-i686-mingw32/bin/../lib/gcc/nios2-elf/4.1.2/../../../../nios2-elf/lib\libc.a(lib_a-__call_atexit.o)
                                0x54e (size before relaxing)
 .debug_str     0x00002be8       0x1c ../Hardware_Denoise_bsp/\libhal_bsp.a(alt_exit.o)

.debug_loc      0x00000000     0xd5af
 *(.debug_loc)
 .debug_loc     0x00000000       0x2b obj/default/PS2_ISR.o
 .debug_loc     0x0000002b       0x2b obj/default/audio_ISR.o
 .debug_loc     0x00000056       0x2b obj/default/interval_timer_ISR.o
 .debug_loc     0x00000081      0x230 obj/default/media_interrupt_HAL.o
 .debug_loc     0x000002b1       0x2b obj/default/pushbutton_ISR.o
 .debug_loc     0x000002dc       0x8f d:/fpga/nios2eds/bin/gnu/h-i686-mingw32/bin/../lib/gcc/nios2-elf/4.1.2\libgcc.a(_si_to_sf.o)
 .debug_loc     0x0000036b       0x66 d:/fpga/nios2eds/bin/gnu/h-i686-mingw32/bin/../lib/gcc/nios2-elf/4.1.2\libgcc.a(_sf_to_si.o)
 .debug_loc     0x000003d1       0x32 d:/fpga/nios2eds/bin/gnu/h-i686-mingw32/bin/../lib/gcc/nios2-elf/4.1.2\libgcc.a(_sf_to_df.o)
 .debug_loc     0x00000403       0x87 d:/fpga/nios2eds/bin/gnu/h-i686-mingw32/bin/../lib/gcc/nios2-elf/4.1.2\libgcc.a(_usi_to_sf.o)
 .debug_loc     0x0000048a       0x58 d:/fpga/nios2eds/bin/gnu/h-i686-mingw32/bin/../lib/gcc/nios2-elf/4.1.2\libgcc.a(_make_df.o)
 .debug_loc     0x000004e2       0x1e d:/fpga/nios2eds/bin/gnu/h-i686-mingw32/bin/../lib/gcc/nios2-elf/4.1.2\libgcc.a(_clzsi2.o)
 .debug_loc     0x00000500       0xf9 d:/fpga/nios2eds/bin/gnu/h-i686-mingw32/bin/../lib/gcc/nios2-elf/4.1.2\libgcc.a(_pack_sf.o)
 .debug_loc     0x000005f9       0x31 d:/fpga/nios2eds/bin/gnu/h-i686-mingw32/bin/../lib/gcc/nios2-elf/4.1.2\libgcc.a(_unpack_sf.o)
 .debug_loc     0x0000062a      0x184 d:/fpga/nios2eds/bin/gnu/h-i686-mingw32/bin/../lib/gcc/nios2-elf/4.1.2\libgcc.a(_pack_df.o)
 .debug_loc     0x000007ae       0xca d:/fpga/nios2eds/bin/gnu/h-i686-mingw32/bin/../lib/gcc/nios2-elf/4.1.2/../../../../nios2-elf/lib\libc.a(lib_a-memcpy.o)
 .debug_loc     0x00000878       0xa1 d:/fpga/nios2eds/bin/gnu/h-i686-mingw32/bin/../lib/gcc/nios2-elf/4.1.2/../../../../nios2-elf/lib\libc.a(lib_a-memset.o)
 .debug_loc     0x00000919       0xcb d:/fpga/nios2eds/bin/gnu/h-i686-mingw32/bin/../lib/gcc/nios2-elf/4.1.2/../../../../nios2-elf/lib\libc.a(lib_a-printf.o)
 .debug_loc     0x000009e4     0x1e0d d:/fpga/nios2eds/bin/gnu/h-i686-mingw32/bin/../lib/gcc/nios2-elf/4.1.2/../../../../nios2-elf/lib\libc.a(lib_a-vfprintf.o)
 .debug_loc     0x000027f1       0x7c d:/fpga/nios2eds/bin/gnu/h-i686-mingw32/bin/../lib/gcc/nios2-elf/4.1.2/../../../../nios2-elf/lib\libc.a(lib_a-wsetup.o)
 .debug_loc     0x0000286d     0x1dfa d:/fpga/nios2eds/bin/gnu/h-i686-mingw32/bin/../lib/gcc/nios2-elf/4.1.2/../../../../nios2-elf/lib\libc.a(lib_a-dtoa.o)
 .debug_loc     0x00004667      0x1f6 d:/fpga/nios2eds/bin/gnu/h-i686-mingw32/bin/../lib/gcc/nios2-elf/4.1.2/../../../../nios2-elf/lib\libc.a(lib_a-fflush.o)
 .debug_loc     0x0000485d      0x19f d:/fpga/nios2eds/bin/gnu/h-i686-mingw32/bin/../lib/gcc/nios2-elf/4.1.2/../../../../nios2-elf/lib\libc.a(lib_a-findfp.o)
 .debug_loc     0x000049fc      0x4a7 d:/fpga/nios2eds/bin/gnu/h-i686-mingw32/bin/../lib/gcc/nios2-elf/4.1.2/../../../../nios2-elf/lib\libc.a(lib_a-freer.o)
 .debug_loc     0x00004ea3      0x4e4 d:/fpga/nios2eds/bin/gnu/h-i686-mingw32/bin/../lib/gcc/nios2-elf/4.1.2/../../../../nios2-elf/lib\libc.a(lib_a-fvwrite.o)
 .debug_loc     0x00005387      0x1d2 d:/fpga/nios2eds/bin/gnu/h-i686-mingw32/bin/../lib/gcc/nios2-elf/4.1.2/../../../../nios2-elf/lib\libc.a(lib_a-fwalk.o)
 .debug_loc     0x00005559       0xe1 d:/fpga/nios2eds/bin/gnu/h-i686-mingw32/bin/../lib/gcc/nios2-elf/4.1.2/../../../../nios2-elf/lib\libc.a(lib_a-locale.o)
 .debug_loc     0x0000563a      0x11c d:/fpga/nios2eds/bin/gnu/h-i686-mingw32/bin/../lib/gcc/nios2-elf/4.1.2/../../../../nios2-elf/lib\libc.a(lib_a-makebuf.o)
 .debug_loc     0x00005756      0xaeb d:/fpga/nios2eds/bin/gnu/h-i686-mingw32/bin/../lib/gcc/nios2-elf/4.1.2/../../../../nios2-elf/lib\libc.a(lib_a-mallocr.o)
 .debug_loc     0x00006241      0x106 d:/fpga/nios2eds/bin/gnu/h-i686-mingw32/bin/../lib/gcc/nios2-elf/4.1.2/../../../../nios2-elf/lib\libc.a(lib_a-memchr.o)
 .debug_loc     0x00006347      0x117 d:/fpga/nios2eds/bin/gnu/h-i686-mingw32/bin/../lib/gcc/nios2-elf/4.1.2/../../../../nios2-elf/lib\libc.a(lib_a-memmove.o)
 .debug_loc     0x0000645e     0x14d6 d:/fpga/nios2eds/bin/gnu/h-i686-mingw32/bin/../lib/gcc/nios2-elf/4.1.2/../../../../nios2-elf/lib\libc.a(lib_a-mprec.o)
 .debug_loc     0x00007934      0x8c0 d:/fpga/nios2eds/bin/gnu/h-i686-mingw32/bin/../lib/gcc/nios2-elf/4.1.2/../../../../nios2-elf/lib\libc.a(lib_a-reallocr.o)
 .debug_loc     0x000081f4       0x36 d:/fpga/nios2eds/bin/gnu/h-i686-mingw32/bin/../lib/gcc/nios2-elf/4.1.2/../../../../nios2-elf/lib\libc.a(lib_a-s_isinfd.o)
 .debug_loc     0x0000822a       0x18 d:/fpga/nios2eds/bin/gnu/h-i686-mingw32/bin/../lib/gcc/nios2-elf/4.1.2/../../../../nios2-elf/lib\libc.a(lib_a-s_isnand.o)
 .debug_loc     0x00008242       0x5b d:/fpga/nios2eds/bin/gnu/h-i686-mingw32/bin/../lib/gcc/nios2-elf/4.1.2/../../../../nios2-elf/lib\libc.a(lib_a-sbrkr.o)
 .debug_loc     0x0000829d      0x21f d:/fpga/nios2eds/bin/gnu/h-i686-mingw32/bin/../lib/gcc/nios2-elf/4.1.2/../../../../nios2-elf/lib\libc.a(lib_a-stdio.o)
 .debug_loc     0x000084bc       0x65 d:/fpga/nios2eds/bin/gnu/h-i686-mingw32/bin/../lib/gcc/nios2-elf/4.1.2/../../../../nios2-elf/lib\libc.a(lib_a-strcmp.o)
 .debug_loc     0x00008521       0x3c d:/fpga/nios2eds/bin/gnu/h-i686-mingw32/bin/../lib/gcc/nios2-elf/4.1.2/../../../../nios2-elf/lib\libc.a(lib_a-strlen.o)
 .debug_loc     0x0000855d       0x97 d:/fpga/nios2eds/bin/gnu/h-i686-mingw32/bin/../lib/gcc/nios2-elf/4.1.2/../../../../nios2-elf/lib\libc.a(lib_a-writer.o)
 .debug_loc     0x000085f4       0xe9 d:/fpga/nios2eds/bin/gnu/h-i686-mingw32/bin/../lib/gcc/nios2-elf/4.1.2/../../../../nios2-elf/lib\libc.a(lib_a-callocr.o)
 .debug_loc     0x000086dd       0x5b d:/fpga/nios2eds/bin/gnu/h-i686-mingw32/bin/../lib/gcc/nios2-elf/4.1.2/../../../../nios2-elf/lib\libc.a(lib_a-closer.o)
 .debug_loc     0x00008738       0xe4 d:/fpga/nios2eds/bin/gnu/h-i686-mingw32/bin/../lib/gcc/nios2-elf/4.1.2/../../../../nios2-elf/lib\libc.a(lib_a-fclose.o)
 .debug_loc     0x0000881c       0x79 d:/fpga/nios2eds/bin/gnu/h-i686-mingw32/bin/../lib/gcc/nios2-elf/4.1.2/../../../../nios2-elf/lib\libc.a(lib_a-fstatr.o)
 .debug_loc     0x00008895       0x5b d:/fpga/nios2eds/bin/gnu/h-i686-mingw32/bin/../lib/gcc/nios2-elf/4.1.2/../../../../nios2-elf/lib\libc.a(lib_a-isattyr.o)
 .debug_loc     0x000088f0       0x97 d:/fpga/nios2eds/bin/gnu/h-i686-mingw32/bin/../lib/gcc/nios2-elf/4.1.2/../../../../nios2-elf/lib\libc.a(lib_a-lseekr.o)
 .debug_loc     0x00008987       0x97 d:/fpga/nios2eds/bin/gnu/h-i686-mingw32/bin/../lib/gcc/nios2-elf/4.1.2/../../../../nios2-elf/lib\libc.a(lib_a-readr.o)
 .debug_loc     0x00008a1e      0xc12 d:/fpga/nios2eds/bin/gnu/h-i686-mingw32/bin/../lib/gcc/nios2-elf/4.1.2\libgcc.a(_udivdi3.o)
 .debug_loc     0x00009630      0xc26 d:/fpga/nios2eds/bin/gnu/h-i686-mingw32/bin/../lib/gcc/nios2-elf/4.1.2\libgcc.a(_umoddi3.o)
 .debug_loc     0x0000a256      0x47a d:/fpga/nios2eds/bin/gnu/h-i686-mingw32/bin/../lib/gcc/nios2-elf/4.1.2\libgcc.a(_addsub_df.o)
 .debug_loc     0x0000a6d0      0x3b4 d:/fpga/nios2eds/bin/gnu/h-i686-mingw32/bin/../lib/gcc/nios2-elf/4.1.2\libgcc.a(_mul_df.o)
 .debug_loc     0x0000aa84      0x1df d:/fpga/nios2eds/bin/gnu/h-i686-mingw32/bin/../lib/gcc/nios2-elf/4.1.2\libgcc.a(_div_df.o)
 .debug_loc     0x0000ac63       0x70 d:/fpga/nios2eds/bin/gnu/h-i686-mingw32/bin/../lib/gcc/nios2-elf/4.1.2\libgcc.a(_eq_df.o)
 .debug_loc     0x0000acd3       0x70 d:/fpga/nios2eds/bin/gnu/h-i686-mingw32/bin/../lib/gcc/nios2-elf/4.1.2\libgcc.a(_ne_df.o)
 .debug_loc     0x0000ad43       0x70 d:/fpga/nios2eds/bin/gnu/h-i686-mingw32/bin/../lib/gcc/nios2-elf/4.1.2\libgcc.a(_gt_df.o)
 .debug_loc     0x0000adb3       0x70 d:/fpga/nios2eds/bin/gnu/h-i686-mingw32/bin/../lib/gcc/nios2-elf/4.1.2\libgcc.a(_ge_df.o)
 .debug_loc     0x0000ae23       0x70 d:/fpga/nios2eds/bin/gnu/h-i686-mingw32/bin/../lib/gcc/nios2-elf/4.1.2\libgcc.a(_lt_df.o)
 .debug_loc     0x0000ae93       0x9a d:/fpga/nios2eds/bin/gnu/h-i686-mingw32/bin/../lib/gcc/nios2-elf/4.1.2\libgcc.a(_si_to_df.o)
 .debug_loc     0x0000af2d       0x8b d:/fpga/nios2eds/bin/gnu/h-i686-mingw32/bin/../lib/gcc/nios2-elf/4.1.2\libgcc.a(_df_to_si.o)
 .debug_loc     0x0000afb8       0x5b d:/fpga/nios2eds/bin/gnu/h-i686-mingw32/bin/../lib/gcc/nios2-elf/4.1.2\libgcc.a(_usi_to_df.o)
 .debug_loc     0x0000b013      0x1d2 d:/fpga/nios2eds/bin/gnu/h-i686-mingw32/bin/../lib/gcc/nios2-elf/4.1.2\libgcc.a(lib2-divmod.o)
 .debug_loc     0x0000b1e5       0xc4 d:/fpga/nios2eds/bin/gnu/h-i686-mingw32/bin/../lib/gcc/nios2-elf/4.1.2\libgcc.a(_muldi3.o)
 .debug_loc     0x0000b2a9       0xe5 d:/fpga/nios2eds/bin/gnu/h-i686-mingw32/bin/../lib/gcc/nios2-elf/4.1.2\libgcc.a(_unpack_df.o)
 .debug_loc     0x0000b38e       0x56 ../Hardware_Denoise_bsp/\libhal_bsp.a(alt_close.o)
 .debug_loc     0x0000b3e4       0x2b ../Hardware_Denoise_bsp/\libhal_bsp.a(alt_dev.o)
 .debug_loc     0x0000b40f       0x56 ../Hardware_Denoise_bsp/\libhal_bsp.a(alt_fstat.o)
 .debug_loc     0x0000b465       0x2c ../Hardware_Denoise_bsp/\libhal_bsp.a(alt_irq_register.o)
 .debug_loc     0x0000b491       0x57 ../Hardware_Denoise_bsp/\libhal_bsp.a(alt_isatty.o)
 .debug_loc     0x0000b4e8       0x56 ../Hardware_Denoise_bsp/\libhal_bsp.a(alt_load.o)
 .debug_loc     0x0000b53e       0x56 ../Hardware_Denoise_bsp/\libhal_bsp.a(alt_lseek.o)
 .debug_loc     0x0000b594       0x2b ../Hardware_Denoise_bsp/\libhal_bsp.a(alt_main.o)
 .debug_loc     0x0000b5bf       0x56 ../Hardware_Denoise_bsp/\libhal_bsp.a(alt_malloc_lock.o)
 .debug_loc     0x0000b615       0x2b ../Hardware_Denoise_bsp/\libhal_bsp.a(alt_printf.o)
 .debug_loc     0x0000b640       0x2b ../Hardware_Denoise_bsp/\libhal_bsp.a(alt_putchar.o)
 .debug_loc     0x0000b66b       0x56 ../Hardware_Denoise_bsp/\libhal_bsp.a(alt_read.o)
 .debug_loc     0x0000b6c1       0x2b ../Hardware_Denoise_bsp/\libhal_bsp.a(alt_release_fd.o)
 .debug_loc     0x0000b6ec       0x2b ../Hardware_Denoise_bsp/\libhal_bsp.a(alt_sbrk.o)
 .debug_loc     0x0000b717       0x56 ../Hardware_Denoise_bsp/\libhal_bsp.a(alt_write.o)
 .debug_loc     0x0000b76d       0x81 ../Hardware_Denoise_bsp/\libhal_bsp.a(alt_sys_init.o)
 .debug_loc     0x0000b7ee       0xac ../Hardware_Denoise_bsp/\libhal_bsp.a(altera_avalon_jtag_uart_fd.o)
 .debug_loc     0x0000b89a       0xac ../Hardware_Denoise_bsp/\libhal_bsp.a(altera_avalon_jtag_uart_init.o)
 .debug_loc     0x0000b946       0x2b ../Hardware_Denoise_bsp/\libhal_bsp.a(altera_avalon_jtag_uart_ioctl.o)
 .debug_loc     0x0000b971       0x2b ../Hardware_Denoise_bsp/\libhal_bsp.a(altera_avalon_jtag_uart_read.o)
 .debug_loc     0x0000b99c       0x2b ../Hardware_Denoise_bsp/\libhal_bsp.a(altera_avalon_jtag_uart_write.o)
 .debug_loc     0x0000b9c7       0x81 ../Hardware_Denoise_bsp/\libhal_bsp.a(altera_avalon_timer_ts.o)
 .debug_loc     0x0000ba48      0x306 ../Hardware_Denoise_bsp/\libhal_bsp.a(altera_up_avalon_audio.o)
 .debug_loc     0x0000bd4e      0x22f ../Hardware_Denoise_bsp/\libhal_bsp.a(altera_up_avalon_character_lcd.o)
 .debug_loc     0x0000bf7d       0x56 ../Hardware_Denoise_bsp/\libhal_bsp.a(altera_up_avalon_ethernet.o)
 .debug_loc     0x0000bfd3       0xac ../Hardware_Denoise_bsp/\libhal_bsp.a(altera_up_avalon_ethernet_low_level_driver.o)
 .debug_loc     0x0000c07f      0x1ae ../Hardware_Denoise_bsp/\libhal_bsp.a(altera_up_avalon_irda.o)
 .debug_loc     0x0000c22d       0x2b ../Hardware_Denoise_bsp/\libhal_bsp.a(altera_up_avalon_parallel_port.o)
 .debug_loc     0x0000c258      0x306 ../Hardware_Denoise_bsp/\libhal_bsp.a(altera_up_avalon_ps2.o)
 .debug_loc     0x0000c55e      0x1ae ../Hardware_Denoise_bsp/\libhal_bsp.a(altera_up_avalon_rs232.o)
 .debug_loc     0x0000c70c       0xd7 ../Hardware_Denoise_bsp/\libhal_bsp.a(altera_up_avalon_video_character_buffer_with_dma.o)
 .debug_loc     0x0000c7e3      0x206 ../Hardware_Denoise_bsp/\libhal_bsp.a(altera_up_avalon_video_pixel_buffer_dma.o)
 .debug_loc     0x0000c9e9       0x2b ../Hardware_Denoise_bsp/\libhal_bsp.a(alt_alarm_start.o)
 .debug_loc     0x0000ca14       0x2b ../Hardware_Denoise_bsp/\libhal_bsp.a(alt_dcache_flush_all.o)
 .debug_loc     0x0000ca3f       0x56 ../Hardware_Denoise_bsp/\libhal_bsp.a(alt_dev_llist_insert.o)
 .debug_loc     0x0000ca95       0x2b ../Hardware_Denoise_bsp/\libhal_bsp.a(alt_do_ctors.o)
 .debug_loc     0x0000cac0       0x2b ../Hardware_Denoise_bsp/\libhal_bsp.a(alt_do_dtors.o)
 .debug_loc     0x0000caeb       0x2b ../Hardware_Denoise_bsp/\libhal_bsp.a(alt_find_dev.o)
 .debug_loc     0x0000cb16       0x2b ../Hardware_Denoise_bsp/\libhal_bsp.a(alt_icache_flush_all.o)
 .debug_loc     0x0000cb41       0x56 ../Hardware_Denoise_bsp/\libhal_bsp.a(alt_io_redirect.o)
 .debug_loc     0x0000cb97       0x2b ../Hardware_Denoise_bsp/\libhal_bsp.a(alt_irq_handler.o)
 .debug_loc     0x0000cbc2       0x81 ../Hardware_Denoise_bsp/\libhal_bsp.a(alt_open.o)
 .debug_loc     0x0000cc43       0x56 ../Hardware_Denoise_bsp/\libhal_bsp.a(alt_tick.o)
 .debug_loc     0x0000cc99       0x2b ../Hardware_Denoise_bsp/\libhal_bsp.a(alt_usleep.o)
 .debug_loc     0x0000ccc4       0x2b ../Hardware_Denoise_bsp/\libhal_bsp.a(altera_nios2_qsys_irq.o)
 .debug_loc     0x0000ccef       0x2b ../Hardware_Denoise_bsp/\libhal_bsp.a(alt_busy_sleep.o)
 .debug_loc     0x0000cd1a       0x2b ../Hardware_Denoise_bsp/\libhal_bsp.a(alt_find_file.o)
 .debug_loc     0x0000cd45       0x2b ../Hardware_Denoise_bsp/\libhal_bsp.a(alt_get_fd.o)
 .debug_loc     0x0000cd70       0x2b ../Hardware_Denoise_bsp/\libhal_bsp.a(alt_icache_flush.o)
 .debug_loc     0x0000cd9b       0x1e d:/fpga/nios2eds/bin/gnu/h-i686-mingw32/bin/../lib/gcc/nios2-elf/4.1.2/../../../../nios2-elf/lib\libc.a(lib_a-atexit.o)
 .debug_loc     0x0000cdb9       0x3d d:/fpga/nios2eds/bin/gnu/h-i686-mingw32/bin/../lib/gcc/nios2-elf/4.1.2/../../../../nios2-elf/lib\libc.a(lib_a-exit.o)
 .debug_loc     0x0000cdf6      0x114 d:/fpga/nios2eds/bin/gnu/h-i686-mingw32/bin/../lib/gcc/nios2-elf/4.1.2/../../../../nios2-elf/lib\libc.a(lib_a-memcmp.o)
 .debug_loc     0x0000cf0a      0x20d d:/fpga/nios2eds/bin/gnu/h-i686-mingw32/bin/../lib/gcc/nios2-elf/4.1.2/../../../../nios2-elf/lib\libc.a(lib_a-putc.o)
 .debug_loc     0x0000d117      0x157 d:/fpga/nios2eds/bin/gnu/h-i686-mingw32/bin/../lib/gcc/nios2-elf/4.1.2/../../../../nios2-elf/lib\libc.a(lib_a-wbuf.o)
 .debug_loc     0x0000d26e      0x120 d:/fpga/nios2eds/bin/gnu/h-i686-mingw32/bin/../lib/gcc/nios2-elf/4.1.2/../../../../nios2-elf/lib\libc.a(lib_a-__atexit.o)
 .debug_loc     0x0000d38e      0x1cb d:/fpga/nios2eds/bin/gnu/h-i686-mingw32/bin/../lib/gcc/nios2-elf/4.1.2/../../../../nios2-elf/lib\libc.a(lib_a-__call_atexit.o)
 .debug_loc     0x0000d559       0x56 ../Hardware_Denoise_bsp/\libhal_bsp.a(alt_exit.o)

.debug_macinfo
 *(.debug_macinfo)

.debug_weaknames
 *(.debug_weaknames)

.debug_funcnames
 *(.debug_funcnames)

.debug_typenames
 *(.debug_typenames)

.debug_varnames
 *(.debug_varnames)

.debug_alt_sim_info
                0x00000000       0x50
 *(.debug_alt_sim_info)
 .debug_alt_sim_info
                0x00000000       0x20 ../Hardware_Denoise_bsp//obj/HAL/src/crt0.o
 .debug_alt_sim_info
                0x00000020       0x30 ../Hardware_Denoise_bsp/\libhal_bsp.a(alt_busy_sleep.o)
                0x00800000                __alt_data_end = 0x800000
                0x00800000                PROVIDE (__alt_stack_pointer, __alt_data_end)
                0x0019e07c                PROVIDE (__alt_stack_limit, __alt_stack_base)
                0x0019e07c                PROVIDE (__alt_heap_start, end)
                0x00800000                PROVIDE (__alt_heap_limit, 0x800000)
OUTPUT(Hardware_Denoise.elf elf32-littlenios2)

.debug_ranges   0x00000000      0x9e8
 .debug_ranges  0x00000000       0x20 ../Hardware_Denoise_bsp//obj/HAL/src/crt0.o
 .debug_ranges  0x00000020       0x18 d:/fpga/nios2eds/bin/gnu/h-i686-mingw32/bin/../lib/gcc/nios2-elf/4.1.2\libgcc.a(_si_to_sf.o)
 .debug_ranges  0x00000038       0x40 d:/fpga/nios2eds/bin/gnu/h-i686-mingw32/bin/../lib/gcc/nios2-elf/4.1.2\libgcc.a(_usi_to_sf.o)
 .debug_ranges  0x00000078       0x28 d:/fpga/nios2eds/bin/gnu/h-i686-mingw32/bin/../lib/gcc/nios2-elf/4.1.2\libgcc.a(_clzsi2.o)
 .debug_ranges  0x000000a0       0x28 d:/fpga/nios2eds/bin/gnu/h-i686-mingw32/bin/../lib/gcc/nios2-elf/4.1.2\libgcc.a(_pack_df.o)
 .debug_ranges  0x000000c8      0x168 d:/fpga/nios2eds/bin/gnu/h-i686-mingw32/bin/../lib/gcc/nios2-elf/4.1.2/../../../../nios2-elf/lib\libc.a(lib_a-vfprintf.o)
 .debug_ranges  0x00000230       0x20 d:/fpga/nios2eds/bin/gnu/h-i686-mingw32/bin/../lib/gcc/nios2-elf/4.1.2/../../../../nios2-elf/lib\libc.a(lib_a-fflush.o)
 .debug_ranges  0x00000250       0x28 d:/fpga/nios2eds/bin/gnu/h-i686-mingw32/bin/../lib/gcc/nios2-elf/4.1.2/../../../../nios2-elf/lib\libc.a(lib_a-fvwrite.o)
 .debug_ranges  0x00000278       0xa0 d:/fpga/nios2eds/bin/gnu/h-i686-mingw32/bin/../lib/gcc/nios2-elf/4.1.2/../../../../nios2-elf/lib\libc.a(lib_a-fwalk.o)
 .debug_ranges  0x00000318       0x70 d:/fpga/nios2eds/bin/gnu/h-i686-mingw32/bin/../lib/gcc/nios2-elf/4.1.2/../../../../nios2-elf/lib\libc.a(lib_a-mallocr.o)
 .debug_ranges  0x00000388      0x110 d:/fpga/nios2eds/bin/gnu/h-i686-mingw32/bin/../lib/gcc/nios2-elf/4.1.2/../../../../nios2-elf/lib\libc.a(lib_a-reallocr.o)
 .debug_ranges  0x00000498       0x38 d:/fpga/nios2eds/bin/gnu/h-i686-mingw32/bin/../lib/gcc/nios2-elf/4.1.2/../../../../nios2-elf/lib\libc.a(lib_a-callocr.o)
 .debug_ranges  0x000004d0      0x188 d:/fpga/nios2eds/bin/gnu/h-i686-mingw32/bin/../lib/gcc/nios2-elf/4.1.2\libgcc.a(_udivdi3.o)
 .debug_ranges  0x00000658      0x198 d:/fpga/nios2eds/bin/gnu/h-i686-mingw32/bin/../lib/gcc/nios2-elf/4.1.2\libgcc.a(_umoddi3.o)
 .debug_ranges  0x000007f0       0x30 d:/fpga/nios2eds/bin/gnu/h-i686-mingw32/bin/../lib/gcc/nios2-elf/4.1.2\libgcc.a(_addsub_df.o)
 .debug_ranges  0x00000820       0x88 d:/fpga/nios2eds/bin/gnu/h-i686-mingw32/bin/../lib/gcc/nios2-elf/4.1.2\libgcc.a(_mul_df.o)
 .debug_ranges  0x000008a8       0x50 d:/fpga/nios2eds/bin/gnu/h-i686-mingw32/bin/../lib/gcc/nios2-elf/4.1.2\libgcc.a(_div_df.o)
 .debug_ranges  0x000008f8       0x18 d:/fpga/nios2eds/bin/gnu/h-i686-mingw32/bin/../lib/gcc/nios2-elf/4.1.2\libgcc.a(_usi_to_df.o)
 .debug_ranges  0x00000910       0x68 d:/fpga/nios2eds/bin/gnu/h-i686-mingw32/bin/../lib/gcc/nios2-elf/4.1.2\libgcc.a(_muldi3.o)
 .debug_ranges  0x00000978       0x28 ../Hardware_Denoise_bsp/\libhal_bsp.a(alt_irq_entry.o)
 .debug_ranges  0x000009a0       0x30 ../Hardware_Denoise_bsp/\libhal_bsp.a(alt_exception_entry.o)
 .debug_ranges  0x000009d0       0x18 d:/fpga/nios2eds/bin/gnu/h-i686-mingw32/bin/../lib/gcc/nios2-elf/4.1.2/../../../../nios2-elf/lib\libc.a(lib_a-__call_atexit.o)
